AARCH64 GAS  C:\Users\RAFAEL~1.ROM\AppData\Local\Temp\ccH9DRWF.s 			page 1


   1              		.arch armv8-a
   2              		.file	"main.c"
   3              		.text
   4              		.align	2
   5              		.p2align 4,,15
   6              		.global	timer_handler
   7              		.type	timer_handler, %function
   8              	timer_handler:
   9 0000 00000090 		adrp	x0, .LANCHOR0
  10 0004 21008052 		mov	w1, 1
  11 0008 010000B9 		str	w1, [x0, #:lo12:.LANCHOR0]
  12 000c C0035FD6 		ret
  13              		.size	timer_handler, .-timer_handler
  14              		.section	.rodata.str1.8,"aMS",@progbits,1
  15              		.align	3
  16              	.LC0:
  17 0000 54687265 		.string	"Thread 1 in Core 1\n"
  17      61642031 
  17      20696E20 
  17      436F7265 
  17      20310A00 
  18              		.text
  19              		.align	2
  20              		.p2align 4,,15
  21              		.global	thread_1
  22              		.type	thread_1, %function
  23              	thread_1:
  24 0010 F353BEA9 		stp	x19, x20, [sp, -32]!
  25 0014 13000090 		adrp	x19, .LC0
  26 0018 73020091 		add	x19, x19, :lo12:.LC0
  27 001c 146889D2 		mov	x20, 19264
  28 0020 9409A0F2 		movk	x20, 0x4c, lsl 16
  29 0024 FE0B00F9 		str	x30, [sp, 16]
  30              		.p2align 3,,7
  31              	.L4:
  32 0028 E00314AA 		mov	x0, x20
  33 002c 00000094 		bl	hal_timer_delay_microsecs
  34 0030 E00313AA 		mov	x0, x19
  35 0034 00000094 		bl	kprintf
  36 0038 FCFFFF17 		b	.L4
  37              		.size	thread_1, .-thread_1
  38              		.align	2
  39 003c 1F2003D5 		.p2align 4,,15
  40              		.global	thread_2
  41              		.type	thread_2, %function
  42              	thread_2:
  43 0040 F37BBDA9 		stp	x19, x30, [sp, -48]!
  44 0044 01F080D2 		mov	x1, 1920
  45 0048 00F580D2 		mov	x0, 1960
  46 004c 0105C0F2 		movk	x1, 0x28, lsl 32
  47 0050 000AC0F2 		movk	x0, 0x50, lsl 32
  48 0054 93848452 		mov	w19, 9252
  49 0058 7304A072 		movk	w19, 0x23, lsl 16
  50 005c E10302A9 		stp	x1, x0, [sp, 32]
  51 0060 0D000014 		b	.L10
  52              		.p2align 2,,3
  53              	.L7:
AARCH64 GAS  C:\Users\RAFAEL~1.ROM\AppData\Local\Temp\ccH9DRWF.s 			page 2


  54 0064 00000094 		bl	hal_video_put_pixel_area
  55 0068 E12740B9 		ldr	w1, [sp, 36]
  56 006c E02F40B9 		ldr	w0, [sp, 44]
  57 0070 21040011 		add	w1, w1, 1
  58 0074 E12700B9 		str	w1, [sp, 36]
  59 0078 00040011 		add	w0, w0, 1
  60 007c E02F00B9 		str	w0, [sp, 44]
  61              	.L11:
  62 0080 E11F8052 		mov	w1, 255
  63 0084 E0830091 		add	x0, sp, 32
  64 0088 00000094 		bl	hal_video_put_pixel_area
  65 008c 008E92D2 		mov	x0, 38000
  66 0090 00000094 		bl	hal_timer_delay_microsecs
  67              	.L10:
  68 0094 E17F0091 		add	x1, sp, 31
  69 0098 00008052 		mov	w0, 0
  70 009c 00000094 		bl	hal_io_serial_nonblocking_getc
  71 00a0 E203002A 		mov	w2, w0
  72 00a4 E103132A 		mov	w1, w19
  73 00a8 E0830091 		add	x0, sp, 32
  74 00ac C2FDFF34 		cbz	w2, .L7
  75 00b0 E27F4039 		ldrb	w2, [sp, 31]
  76 00b4 5F840171 		cmp	w2, 97
  77 00b8 60010054 		beq	.L15
  78 00bc 00000094 		bl	hal_video_put_pixel_area
  79 00c0 E30B4429 		ldp	w3, w2, [sp, 32]
  80 00c4 E1034529 		ldp	w1, w0, [sp, 40]
  81 00c8 63280011 		add	w3, w3, 10
  82 00cc 42040011 		add	w2, w2, 1
  83 00d0 21280011 		add	w1, w1, 10
  84              	.L14:
  85 00d4 00040011 		add	w0, w0, 1
  86 00d8 E30B0429 		stp	w3, w2, [sp, 32]
  87 00dc E1030529 		stp	w1, w0, [sp, 40]
  88 00e0 E8FFFF17 		b	.L11
  89              		.p2align 2,,3
  90              	.L15:
  91 00e4 E0830091 		add	x0, sp, 32
  92 00e8 00000094 		bl	hal_video_put_pixel_area
  93 00ec E30B4429 		ldp	w3, w2, [sp, 32]
  94 00f0 E1034529 		ldp	w1, w0, [sp, 40]
  95 00f4 63280051 		sub	w3, w3, #10
  96 00f8 42040011 		add	w2, w2, 1
  97 00fc 21280051 		sub	w1, w1, #10
  98 0100 F5FFFF17 		b	.L14
  99              		.size	thread_2, .-thread_2
 100              		.section	.rodata.str1.8
 101 0014 00000000 		.align	3
 102              	.LC1:
 103 0018 5469636B 		.string	"Tick. (count: %d, time since last tick: %d milliseconds)\n"
 103      2E202863 
 103      6F756E74 
 103      3A202564 
 103      2C207469 
 104 0052 00000000 		.align	3
 104      0000
 105              	.LC2:
AARCH64 GAS  C:\Users\RAFAEL~1.ROM\AppData\Local\Temp\ccH9DRWF.s 			page 3


 106 0058 5469636B 		.string	"Tick. (count: %d) \n"
 106      2E202863 
 106      6F756E74 
 106      3A202564 
 106      29200A00 
 107              		.text
 108              		.align	2
 109 0104 1F2003D5 		.p2align 4,,15
 109      1F2003D5 
 109      1F2003D5 
 110              		.global	thread_3
 111              		.type	thread_3, %function
 112              	thread_3:
 113 0110 F353BCA9 		stp	x19, x20, [sp, -64]!
 114 0114 13000090 		adrp	x19, .LANCHOR0
 115 0118 73020091 		add	x19, x19, :lo12:.LANCHOR0
 116 011c F55B01A9 		stp	x21, x22, [sp, 16]
 117 0120 16000090 		adrp	x22, .LC1
 118 0124 D6020091 		add	x22, x22, :lo12:.LC1
 119 0128 F76302A9 		stp	x23, x24, [sp, 32]
 120 012c 18000090 		adrp	x24, .LC2
 121 0130 18030091 		add	x24, x24, :lo12:.LC2
 122 0134 77BA8952 		mov	w23, 19923
 123 0138 570CA272 		movk	w23, 0x1062, lsl 16
 124 013c 15008052 		mov	w21, 0
 125 0140 F97B03A9 		stp	x25, x30, [sp, 48]
 126 0144 39008052 		mov	w25, 1
 127              		.p2align 3,,7
 128              	.L17:
 129 0148 600240B9 		ldr	w0, [x19]
 130 014c E0FFFF34 		cbz	w0, .L17
 131 0150 00008052 		mov	w0, 0
 132 0154 00000094 		bl	hal_timer_read_count
 133 0158 3F070071 		cmp	w25, 1
 134 015c F40300AA 		mov	x20, x0
 135 0160 69010054 		bls	.L18
 136 0164 0200154B 		sub	w2, w0, w21
 137 0168 E103192A 		mov	w1, w25
 138 016c E00316AA 		mov	x0, x22
 139 0170 427CB79B 		umull	x2, w2, w23
 140 0174 42FC66D3 		lsr	x2, x2, 38
 141 0178 00000094 		bl	kprintf
 142              	.L19:
 143 017c 39070011 		add	w25, w25, 1
 144 0180 F503142A 		mov	w21, w20
 145 0184 7F0200B9 		str	wzr, [x19]
 146 0188 F0FFFF17 		b	.L17
 147              		.p2align 2,,3
 148              	.L18:
 149 018c E103192A 		mov	w1, w25
 150 0190 E00318AA 		mov	x0, x24
 151 0194 00000094 		bl	kprintf
 152 0198 F9FFFF17 		b	.L19
 153              		.size	thread_3, .-thread_3
 154              		.section	.rodata.str1.8
 155 006c 00000000 		.align	3
 156              	.LC3:
AARCH64 GAS  C:\Users\RAFAEL~1.ROM\AppData\Local\Temp\ccH9DRWF.s 			page 4


 157 0070 4D61696E 		.string	"Main Thread in Core 0\n"
 157      20546872 
 157      65616420 
 157      696E2043 
 157      6F726520 
 158              		.text
 159              		.align	2
 160 019c 1F2003D5 		.p2align 4,,15
 161              		.global	kernel_main
 162              		.type	kernel_main, %function
 163              	kernel_main:
 164 01a0 F353BEA9 		stp	x19, x20, [sp, -32]!
 165 01a4 14B091D2 		mov	x20, 36224
 166 01a8 740BA0F2 		movk	x20, 0x5b, lsl 16
 167 01ac FE0B00F9 		str	x30, [sp, 16]
 168 01b0 00000094 		bl	system_init
 169 01b4 20008052 		mov	w0, 1
 170 01b8 01000090 		adrp	x1, thread_1
 171 01bc 21000091 		add	x1, x1, :lo12:thread_1
 172 01c0 00000094 		bl	hal_cpu_thread_start
 173 01c4 40008052 		mov	w0, 2
 174 01c8 01000090 		adrp	x1, thread_2
 175 01cc 21000091 		add	x1, x1, :lo12:thread_2
 176 01d0 00000094 		bl	hal_cpu_thread_start
 177 01d4 01000090 		adrp	x1, thread_3
 178 01d8 21000091 		add	x1, x1, :lo12:thread_3
 179 01dc 60008052 		mov	w0, 3
 180 01e0 00000094 		bl	hal_cpu_thread_start
 181 01e4 00008052 		mov	w0, 0
 182 01e8 13000090 		adrp	x19, .LC3
 183 01ec 73020091 		add	x19, x19, :lo12:.LC3
 184 01f0 00000094 		bl	hal_timer_start_poll
 185 01f4 02000090 		adrp	x2, timer_handler
 186 01f8 42000091 		add	x2, x2, :lo12:timer_handler
 187 01fc 01D89852 		mov	w1, 50880
 188 0200 A105A072 		movk	w1, 0x2d, lsl 16
 189 0204 20008052 		mov	w0, 1
 190 0208 00000094 		bl	hal_timer_start_int
 191 020c 1F2003D5 		.p2align 3,,7
 192              	.L25:
 193 0210 E00314AA 		mov	x0, x20
 194 0214 00000094 		bl	hal_timer_delay_microsecs
 195 0218 E00313AA 		mov	x0, x19
 196 021c 00000094 		bl	kprintf
 197 0220 FCFFFF17 		b	.L25
 198              		.size	kernel_main, .-kernel_main
 199              		.align	2
 200 0224 1F2003D5 		.p2align 4,,15
 200      1F2003D5 
 200      1F2003D5 
 201              		.global	abs
 202              		.type	abs, %function
 203              	abs:
 204 0230 C0035FD6 		ret
 205              		.size	abs, .-abs
 206              		.align	2
 207 0234 1F2003D5 		.p2align 4,,15
AARCH64 GAS  C:\Users\RAFAEL~1.ROM\AppData\Local\Temp\ccH9DRWF.s 			page 5


 207      1F2003D5 
 207      1F2003D5 
 208              		.global	ms_to_us
 209              		.type	ms_to_us, %function
 210              	ms_to_us:
 211 0240 017D8052 		mov	w1, 1000
 212 0244 007C011B 		mul	w0, w0, w1
 213 0248 C0035FD6 		ret
 214              		.size	ms_to_us, .-ms_to_us
 215              		.align	2
 216 024c 1F2003D5 		.p2align 4,,15
 217              		.global	secs_to_us
 218              		.type	secs_to_us, %function
 219              	secs_to_us:
 220 0250 01488852 		mov	w1, 16960
 221 0254 E101A072 		movk	w1, 0xf, lsl 16
 222 0258 007C011B 		mul	w0, w0, w1
 223 025c C0035FD6 		ret
 224              		.size	secs_to_us, .-secs_to_us
 225              		.align	2
 226              		.p2align 4,,15
 227              		.global	systick_diff_to_ms
 228              		.type	systick_diff_to_ms, %function
 229              	systick_diff_to_ms:
 230 0260 0000014B 		sub	w0, w0, w1
 231 0264 61BA8952 		mov	w1, 19923
 232 0268 410CA272 		movk	w1, 0x1062, lsl 16
 233 026c 007CA19B 		umull	x0, w0, w1
 234 0270 00FC66D3 		lsr	x0, x0, 38
 235 0274 C0035FD6 		ret
 236              		.size	systick_diff_to_ms, .-systick_diff_to_ms
 237              		.global	tick_happened
 238              		.bss
 239              		.align	2
 240              		.set	.LANCHOR0,. + 0
 241              		.type	tick_happened, %object
 242              		.size	tick_happened, 4
 243              	tick_happened:
 244 0000 00000000 		.zero	4
 245              		.ident	"GCC: (GNU Toolchain for the A-profile Architecture 9.2-2020.02 (arm-9.10)) 9.2.1 20191025"
AARCH64 GAS  C:\Users\RAFAEL~1.ROM\AppData\Local\Temp\ccH9DRWF.s 			page 6


DEFINED SYMBOLS
                            *ABS*:0000000000000000 main.c
C:\Users\RAFAEL~1.ROM\AppData\Local\Temp\ccH9DRWF.s:4      .text:0000000000000000 $x
C:\Users\RAFAEL~1.ROM\AppData\Local\Temp\ccH9DRWF.s:8      .text:0000000000000000 timer_handler
C:\Users\RAFAEL~1.ROM\AppData\Local\Temp\ccH9DRWF.s:15     .rodata.str1.8:0000000000000000 $d
C:\Users\RAFAEL~1.ROM\AppData\Local\Temp\ccH9DRWF.s:23     .text:0000000000000010 thread_1
C:\Users\RAFAEL~1.ROM\AppData\Local\Temp\ccH9DRWF.s:42     .text:0000000000000040 thread_2
C:\Users\RAFAEL~1.ROM\AppData\Local\Temp\ccH9DRWF.s:112    .text:0000000000000110 thread_3
C:\Users\RAFAEL~1.ROM\AppData\Local\Temp\ccH9DRWF.s:163    .text:00000000000001a0 kernel_main
C:\Users\RAFAEL~1.ROM\AppData\Local\Temp\ccH9DRWF.s:203    .text:0000000000000230 abs
C:\Users\RAFAEL~1.ROM\AppData\Local\Temp\ccH9DRWF.s:210    .text:0000000000000240 ms_to_us
C:\Users\RAFAEL~1.ROM\AppData\Local\Temp\ccH9DRWF.s:219    .text:0000000000000250 secs_to_us
C:\Users\RAFAEL~1.ROM\AppData\Local\Temp\ccH9DRWF.s:229    .text:0000000000000260 systick_diff_to_ms
C:\Users\RAFAEL~1.ROM\AppData\Local\Temp\ccH9DRWF.s:243    .bss:0000000000000000 tick_happened
C:\Users\RAFAEL~1.ROM\AppData\Local\Temp\ccH9DRWF.s:239    .bss:0000000000000000 $d

UNDEFINED SYMBOLS
hal_timer_delay_microsecs
kprintf
hal_video_put_pixel_area
hal_io_serial_nonblocking_getc
hal_timer_read_count
system_init
hal_cpu_thread_start
hal_timer_start_poll
hal_timer_start_int
AARCH64 GAS  C:\Users\RAFAEL~1.ROM\AppData\Local\Temp\ccH9DRWF.s 			page 1


   1              		.arch armv8-a
   2              		.file	"system.c"
   3              		.text
   4              		.section	.rodata.str1.8,"aMS",@progbits,1
   5              		.align	3
   6              	.LC0:
   7 0000 53657269 		.string	"Serial Init [OK]\n\r"
   7      616C2049 
   7      6E697420 
   7      5B4F4B5D 
   7      0A0D00
   8 0013 00000000 		.align	3
   8      00
   9              	.LC1:
  10 0018 56696465 		.string	"Video Init [OK] \n\r    resolution %d x %d\n\r"
  10      6F20496E 
  10      6974205B 
  10      4F4B5D20 
  10      0A0D2020 
  11 0043 00000000 		.align	3
  11      00
  12              	.LC2:
  13 0048 43505520 		.string	"CPU Init [OK] \n\r    CPU: %s \n\r    cores: %d \n\r    speed: %d Mhz\n\r"
  13      496E6974 
  13      205B4F4B 
  13      5D200A0D 
  13      20202020 
  14 008a 00000000 		.align	3
  14      0000
  15              	.LC3:
  16 0090 56696465 		.string	"Video Init [FAILED]. Cannot continue.\n\r"
  16      6F20496E 
  16      6974205B 
  16      4641494C 
  16      45445D2E 
  17              		.align	3
  18              	.LC4:
  19 00b8 53442043 		.string	"SD Card Init [OK]\n\r"
  19      61726420 
  19      496E6974 
  19      205B4F4B 
  19      5D0A0D00 
  20 00cc 00000000 		.align	3
  21              	.LC5:
  22 00d0 53442043 		.string	"SD Card Init [FAILED]. Cannot continue.\n\r"
  22      61726420 
  22      496E6974 
  22      205B4641 
  22      494C4544 
  23 00fa 00000000 		.align	3
  23      0000
  24              	.LC6:
  25 0100 46696C65 		.string	"File System [OK]\n\r"
  25      20537973 
  25      74656D20 
  25      5B4F4B5D 
  25      0A0D00
AARCH64 GAS  C:\Users\RAFAEL~1.ROM\AppData\Local\Temp\ccH9DRWF.s 			page 2


  26 0113 00000000 		.align	3
  26      00
  27              	.LC7:
  28 0118 54696D65 		.string	"Timers Init [OK]\n\r"
  28      72732049 
  28      6E697420 
  28      5B4F4B5D 
  28      0A0D00
  29 012b 00000000 		.align	3
  29      00
  30              	.LC8:
  31 0130 0A0D00   		.string	"\n\r"
  32 0133 00000000 		.align	3
  32      00
  33              	.LC9:
  34 0138 46696C65 		.string	"File System [FAILED]. Cannot continue.\n\r"
  34      20537973 
  34      74656D20 
  34      5B464149 
  34      4C45445D 
  35 0161 00000000 		.align	3
  35      000000
  36              	.LC10:
  37 0168 46696C65 		.string	"File System [FAILED]\n\r"
  37      20537973 
  37      74656D20 
  37      5B464149 
  37      4C45445D 
  38              		.text
  39              		.align	2
  40              		.p2align 4,,15
  41              		.global	system_init
  42              		.type	system_init, %function
  43              	system_init:
  44 0000 F353BDA9 		stp	x19, x20, [sp, -48]!
  45 0004 14000090 		adrp	x20, .LC3
  46 0008 94020091 		add	x20, x20, :lo12:.LC3
  47 000c FE0F00F9 		str	x30, [sp, 24]
  48 0010 00000094 		bl	hal_io_serial_init
  49 0014 01000090 		adrp	x1, .LC0
  50 0018 21000091 		add	x1, x1, :lo12:.LC0
  51 001c 00008052 		mov	w0, 0
  52 0020 00000094 		bl	hal_io_serial_puts
  53 0024 00000094 		bl	hal_video_init
  54 0028 60010034 		cbz	w0, .L19
  55 002c 1F2003D5 		.p2align 3,,7
  56              	.L2:
  57 0030 E00314AA 		mov	x0, x20
  58 0034 53018052 		mov	w19, 10
  59 0038 00000094 		bl	kprintf_debug
  60 003c 1F2003D5 		.p2align 3,,7
  61              	.L5:
  62 0040 007D8052 		mov	w0, 1000
  63 0044 00000094 		bl	hal_cpu_delay
  64 0048 73060071 		subs	w19, w19, #1
  65 004c A1FFFF54 		bne	.L5
  66 0050 F8FFFF17 		b	.L2
AARCH64 GAS  C:\Users\RAFAEL~1.ROM\AppData\Local\Temp\ccH9DRWF.s 			page 3


  67              	.L19:
  68 0054 02000090 		adrp	x2, .LC1
  69 0058 42000091 		add	x2, x2, :lo12:.LC1
  70 005c 04608052 		mov	w4, 768
  71 0060 03A08052 		mov	w3, 1280
  72 0064 810C80D2 		mov	x1, 100
  73 0068 13000090 		adrp	x19, info_buf
  74 006c 73020091 		add	x19, x19, :lo12:info_buf
  75 0070 E00313AA 		mov	x0, x19
  76 0074 00000094 		bl	snprintf
  77 0078 80848452 		mov	w0, 9252
  78 007c 6004A072 		movk	w0, 0x23, lsl 16
  79 0080 00000094 		bl	hal_video_clear
  80 0084 02E09F52 		mov	w2, 65280
  81 0088 21008052 		mov	w1, 1
  82 008c E00313AA 		mov	x0, x19
  83 0090 00000094 		bl	hal_video_puts
  84 0094 E00313AA 		mov	x0, x19
  85 0098 00000094 		bl	kprintf_debug
  86 009c E0830091 		add	x0, sp, 32
  87 00a0 00000094 		bl	hal_cpu_init
  88 00a4 E5134529 		ldp	w5, w4, [sp, 40]
  89 00a8 810C80D2 		mov	x1, 100
  90 00ac E31340F9 		ldr	x3, [sp, 32]
  91 00b0 E00313AA 		mov	x0, x19
  92 00b4 02000090 		adrp	x2, .LC2
  93 00b8 42000091 		add	x2, x2, :lo12:.LC2
  94 00bc 00000094 		bl	snprintf
  95 00c0 02E09F52 		mov	w2, 65280
  96 00c4 21008052 		mov	w1, 1
  97 00c8 E00313AA 		mov	x0, x19
  98 00cc 00000094 		bl	hal_video_puts
  99 00d0 E00313AA 		mov	x0, x19
 100 00d4 00000094 		bl	kprintf_debug
 101 00d8 007D8052 		mov	w0, 1000
 102 00dc 00000094 		bl	hal_cpu_delay
 103 00e0 00000094 		bl	hal_sd_card_init
 104 00e4 00020034 		cbz	w0, .L3
 105 00e8 14000090 		adrp	x20, .LC5
 106 00ec 94020091 		add	x20, x20, :lo12:.LC5
 107              		.p2align 3,,7
 108              	.L4:
 109 00f0 E21F8052 		mov	w2, 255
 110 00f4 21008052 		mov	w1, 1
 111 00f8 E00314AA 		mov	x0, x20
 112 00fc 00000094 		bl	hal_video_puts
 113 0100 E00314AA 		mov	x0, x20
 114 0104 53018052 		mov	w19, 10
 115 0108 00000094 		bl	kprintf_debug
 116 010c 1F2003D5 		.p2align 3,,7
 117              	.L8:
 118 0110 007D8052 		mov	w0, 1000
 119 0114 00000094 		bl	hal_cpu_delay
 120 0118 73060071 		subs	w19, w19, #1
 121 011c A1FFFF54 		bne	.L8
 122 0120 F4FFFF17 		b	.L4
 123              	.L3:
AARCH64 GAS  C:\Users\RAFAEL~1.ROM\AppData\Local\Temp\ccH9DRWF.s 			page 4


 124 0124 13000090 		adrp	x19, .LC4
 125 0128 73020091 		add	x19, x19, :lo12:.LC4
 126 012c E00313AA 		mov	x0, x19
 127 0130 02E09F52 		mov	w2, 65280
 128 0134 21008052 		mov	w1, 1
 129 0138 00000094 		bl	hal_video_puts
 130 013c E00313AA 		mov	x0, x19
 131 0140 00000094 		bl	kprintf_debug
 132 0144 00000094 		bl	fat_init
 133 0148 60020034 		cbz	w0, .L6
 134 014c 14000090 		adrp	x20, .LC10
 135 0150 94020091 		add	x20, x20, :lo12:.LC10
 136 0154 F50B00F9 		str	x21, [sp, 16]
 137 0158 15000090 		adrp	x21, .LC9
 138 015c B5020091 		add	x21, x21, :lo12:.LC9
 139              	.L7:
 140 0160 E21F8052 		mov	w2, 255
 141 0164 21008052 		mov	w1, 1
 142 0168 E00315AA 		mov	x0, x21
 143 016c 00000094 		bl	hal_video_puts
 144 0170 E00314AA 		mov	x0, x20
 145 0174 53018052 		mov	w19, 10
 146 0178 00000094 		bl	kprintf_debug
 147 017c 1F2003D5 		.p2align 3,,7
 148              	.L9:
 149 0180 007D8052 		mov	w0, 1000
 150 0184 00000094 		bl	hal_cpu_delay
 151 0188 73060071 		subs	w19, w19, #1
 152 018c A1FFFF54 		bne	.L9
 153 0190 F4FFFF17 		b	.L7
 154              	.L6:
 155 0194 13000090 		adrp	x19, .LC6
 156 0198 73020091 		add	x19, x19, :lo12:.LC6
 157 019c 02E09F52 		mov	w2, 65280
 158 01a0 21008052 		mov	w1, 1
 159 01a4 E00313AA 		mov	x0, x19
 160 01a8 00000094 		bl	hal_video_puts
 161 01ac E00313AA 		mov	x0, x19
 162 01b0 00000094 		bl	kprintf_debug
 163 01b4 13000090 		adrp	x19, .LC7
 164 01b8 73020091 		add	x19, x19, :lo12:.LC7
 165 01bc 00000094 		bl	hal_timer_init
 166 01c0 02E09F52 		mov	w2, 65280
 167 01c4 21008052 		mov	w1, 1
 168 01c8 E00313AA 		mov	x0, x19
 169 01cc 00000094 		bl	hal_video_puts
 170 01d0 E00313AA 		mov	x0, x19
 171 01d4 00000094 		bl	kprintf_debug
 172 01d8 00000090 		adrp	x0, .LC8
 173 01dc 00000091 		add	x0, x0, :lo12:.LC8
 174 01e0 00000094 		bl	kprintf
 175 01e4 FE0F40F9 		ldr	x30, [sp, 24]
 176 01e8 F353C3A8 		ldp	x19, x20, [sp], 48
 177 01ec C0035FD6 		ret
 178              		.size	system_init, .-system_init
 179              		.align	2
 180              		.p2align 4,,15
AARCH64 GAS  C:\Users\RAFAEL~1.ROM\AppData\Local\Temp\ccH9DRWF.s 			page 5


 181              		.global	wait_for_ten_secs
 182              		.type	wait_for_ten_secs, %function
 183              	wait_for_ten_secs:
 184 01f0 F37BBFA9 		stp	x19, x30, [sp, -16]!
 185 01f4 53018052 		mov	w19, 10
 186              		.p2align 3,,7
 187              	.L21:
 188 01f8 007D8052 		mov	w0, 1000
 189 01fc 00000094 		bl	hal_cpu_delay
 190 0200 73060071 		subs	w19, w19, #1
 191 0204 A1FFFF54 		bne	.L21
 192 0208 F37BC1A8 		ldp	x19, x30, [sp], 16
 193 020c C0035FD6 		ret
 194              		.size	wait_for_ten_secs, .-wait_for_ten_secs
 195              		.comm	info_buf,100,8
 196              		.ident	"GCC: (GNU Toolchain for the A-profile Architecture 9.2-2020.02 (arm-9.10)) 9.2.1 20191025"
AARCH64 GAS  C:\Users\RAFAEL~1.ROM\AppData\Local\Temp\ccH9DRWF.s 			page 6


DEFINED SYMBOLS
                            *ABS*:0000000000000000 system.c
C:\Users\RAFAEL~1.ROM\AppData\Local\Temp\ccH9DRWF.s:5      .rodata.str1.8:0000000000000000 $d
C:\Users\RAFAEL~1.ROM\AppData\Local\Temp\ccH9DRWF.s:39     .text:0000000000000000 $x
C:\Users\RAFAEL~1.ROM\AppData\Local\Temp\ccH9DRWF.s:43     .text:0000000000000000 system_init
                            *COM*:0000000000000064 info_buf
C:\Users\RAFAEL~1.ROM\AppData\Local\Temp\ccH9DRWF.s:183    .text:00000000000001f0 wait_for_ten_secs

UNDEFINED SYMBOLS
hal_io_serial_init
hal_io_serial_puts
hal_video_init
kprintf_debug
hal_cpu_delay
snprintf
hal_video_clear
hal_video_puts
hal_cpu_init
hal_sd_card_init
fat_init
hal_timer_init
kprintf
AARCH64 GAS  C:\Users\RAFAEL~1.ROM\AppData\Local\Temp\ccH9DRWF.s 			page 1


   1              	# 1 "src/smartstart/SmartStart64.S"
   1              	﻿;/*"++++++++++++++++++++++++++++++++++++++++++++++++++++++++++++++++++++++++"
   0              	
   0              	
   2              	;@"																			"
   3              	;@"      Filename: smartstart64.s											"
   4              	;@"      Copyright(c): Leon de Boer(LdB) 2017								"
   5              	;@"      Version: 2.03														"
   6              	;@"																			"
   7              	;@"***************[ THIS CODE IS FREEWARE UNDER CC Attribution]*************"
   8              	;@"																            "
   9              	;@"     This sourcecode is released for the purpose to promote programming  "
  10              	;@"  on the Raspberry Pi. You may redistribute it and/or modify with the    "
  11              	;@"  following disclaimer and condition.                                    "
  12              	;@"																            "
  13              	;@"      The SOURCE CODE is distributed "AS IS" WITHOUT WARRANTIES AS TO    "
  14              	;@"   PERFORMANCE OF MERCHANTABILITY WHETHER EXPRESSED OR IMPLIED.          "
  15              	;@"   Redistributions of source code must retain the copyright notices to   "
  16              	;@"   maintain the author credit (attribution) .							"
  17              	;@"																			"
  18              	;@"*************************************************************************"
  19              	;@"                                                                         "
  20              	;@"       This code expands on my earlier SmartStart bootstub assembler for "
  21              	;@" the Pi3. It directly supports multicore operation in C/C++. To do that  "
  22              	;@" it provides stack space to each core and provides a modified bootloader "
  23              	;@" spinlock that protects against registers X0-X7 trashed. As any C/C++    "
  24              	;@" 64 bit compiler will trash those registers, to use C/C++ in multicore   "
  25              	;@" programming this protection must be done.								"
  26              	;@"       This is a matching paired AARCH64 stub for the 64bit linker file  "
  27              	;@" and carries the samme arrangement as AARCH32 to ease porting.		    "
  28              	;@"																            "
  29              	;@"+++++++++++++++++++++++[ REVISIONS ]+++++++++++++++++++++++++++++++++++++"
  30              	;@"  1.01 Initial release .. Pi autodetection main aim                      "
  31              	;@"  1.02 Many functions moved out C to aide 32/64 bit compatability        "
  32              	;@"  2.01 Futher reductions to bare minmum assembeler code                  "
  33              	;@"  2.02 Multicore functionality added                                     "
  34              	;@"  2.03 Timer Irq support added  											"
  35              	;@"+++++++++++++++++++++++++++++++++++++++++++++++++++++++++++++++++++++++"*/
  36              	
  37              	.section ".text.startup", "ax", %progbits
  38              	.balign	4
  39              	.global _start
  40              	_start:
  41 0000 0C000010 		adr x12, _start							// Hold boot address in high register R12
  42 0004 610D0058 		ldr x1, =RPi_BootAddr					// Address of RPi_BootAddr
  43 0008 2C0000B9 		str w12, [x1]							// Store the boot address
  44              	
  45 000c 600D0058 		ldr	x0, =0x3F000000						// No need to detect address in 64bit mode it has to be 0x3F000000 on Pi3
  46 0010 810D0058 		ldr x1, =RPi_IO_Base_Addr				// Address of RPi_IO_Base_Addr
  47 0014 200000B9 		str w0, [x1]							// Store the IO base address
  48              	
  49 0018 200080D2 		mov x0, #1								// Multicore support starts as 1 core
  50 001c 610D0058 		ldr x1, =RPi_CoresReady					// Address of RPi_CoresReady
  51 0020 200000B9 		str w0, [x1]							// Store the CoresReady count as 1
  52              	
  53 0024 001380D2 		mov x0, #0x98							// Compiled for ARM8 CPU in AARCH64 and supports 4 cores
  54 0028 410D0058 		ldr x1, =RPi_CompileMode				// Address of RPi_CompileMode
AARCH64 GAS  C:\Users\RAFAEL~1.ROM\AppData\Local\Temp\ccH9DRWF.s 			page 2


  55 002c 200000B9 		str w0, [x1]							// Store the compiler mode
  56              	
  57 0030 000038D5 		mrs	x0, midr_el1						// Read CPU Id register
  58 0034 210D0058 		ldr x1, =RPi_CpuId						// Address of RPi_CpuId
  59 0038 200000B9 		str w0, [x1]							// Store the CPU id
  60              	
  61              	//"================================================================"
  62              	//  Initialize Generic Timers for Core0
  63              	//"================================================================"
  64 003c 00E13CD5 		mrs	x0, cnthctl_el2
  65 0040 000440B2 		orr	x0, x0, #0x3						/* Enable EL1 access to timers */
  66 0044 00E11CD5 		msr	cnthctl_el2, x0
  67 0048 7FE01CD5 		msr	cntvoff_el2, xzr
  68              	
  69              		/* Not sure if I want this yet */
  70 004c 00E138D5 		mrs	x0, cntkctl_el1
  71 0050 000440B2 		orr	x0, x0, #0x3						/* Enable EL0 access to timers */
  72 0054 00E118D5 		msr	cntkctl_el1, x0
  73              	
  74              	//"================================================================"
  75              	//  Setup stack pointers for each core and each CPU operation mode
  76              	//"================================================================"
  77              	multicore_start:
  78 0058 420C0058 	    ldr x2, = __EL2_stack_core0				// Address of EL2_stack_core0 stack pointer value
  79 005c 630C0058 	    ldr x3, = __EL1_stack_core0				// Address of EL1_stack_core0 stack pointer value
  80 0060 840C0058 	    ldr x4, = __EL0_stack_core0				// Address of EL0_stack_core0 stack pointer value
  81 0064 A60038D5 		mrs x6, mpidr_el1						// Read core id on ARM8
  82 0068 C60440F2 		ands x6, x6, #0x3						// Make cpu id bitmask
  83 006c C0010054 		beq set_stacks							// Ready to set core 0 stacks
  84 0070 420C0058 	    ldr x2, = __EL2_stack_core1				// Address of EL2_stack_core1 stack pointer value
  85 0074 630C0058 	    ldr x3, = __EL1_stack_core1				// Address of EL1_stack_core1 stack pointer value
  86 0078 840C0058 	    ldr x4, = __EL0_stack_core1				// Address of EL0_stack_core1 stack pointer value
  87 007c DF0400F1 		cmp x6, #1								// Check cpu id for core 1
  88 0080 20010054 		beq set_stacks							// Ready to set core 1 stacks
  89 0084 620C0058 	    ldr x2, = __EL2_stack_core2				// Address of EL2_stack_core2 stack pointer value
  90 0088 830C0058 	    ldr x3, = __EL1_stack_core2				// Address of EL1_stack_core2 stack pointer value
  91 008c A40C0058 	    ldr x4, = __EL0_stack_core2				// Address of EL0_stack_core2 stack pointer value
  92 0090 DF0800F1 		cmp x6, #2								// Check cpu id for core 2
  93 0094 80000054 		beq set_stacks							// Ready to set core 1 stacks
  94 0098 820C0058 	    ldr x2, = __EL2_stack_core3				// Address of EL2_stack_core3 stack pointer value
  95 009c A30C0058 	    ldr x3, = __EL1_stack_core3				// Address of EL1_stack_core3 stack pointer value
  96 00a0 C40C0058 	    ldr x4, = __EL0_stack_core3				// Address of EL0_stack_core3 stack pointer value
  97              	set_stacks:
  98 00a4 5F000091 		mov	sp, x2								/* EL2 stack set */
  99 00a8 03411CD5 		msr	sp_el1, x3							/* EL1 stack set */
 100 00ac 044118D5 		msr	sp_el0, x4							/* EL0 stack set */
 101              	
 102              	//"================================================================"
 103              	//  Initilize MPID/MPIDR registers for all Cores
 104              	//"================================================================"
 105 00b0 000038D5 		mrs	x0, midr_el1
 106 00b4 A10038D5 		mrs	x1, mpidr_el1
 107 00b8 00001CD5 		msr	vpidr_el2, x0
 108 00bc A1001CD5 		msr	vmpidr_el2, x1
 109              	
 110              	//"================================================================"
 111              	//  Disable coprocessor traps for all Cores
AARCH64 GAS  C:\Users\RAFAEL~1.ROM\AppData\Local\Temp\ccH9DRWF.s 			page 3


 112              	//"================================================================"
 113 00c0 E07F86D2 		mov	x0, #0x33ff
 114 00c4 40111CD5 		msr	cptr_el2, x0						// Disable coprocessor traps to EL2
 115 00c8 7F111CD5 		msr	hstr_el2, xzr						// Disable coprocessor traps to EL2
 116 00cc 0006A0D2 		mov	x0, #3 << 20
 117 00d0 401018D5 		msr	cpacr_el1, x0						// Enable FP/SIMD at EL1
 118              	
 119              	//"================================================================"
 120              	//  Initialize HCR_EL2 so EL1 is 64 bits for all Cores
 121              	//"================================================================"
 122 00d4 0000B0D2 		mov	x0, #(1 << 31)						// 64bit EL1
 123 00d8 00111CD5 		msr	hcr_el2, x0
 124              	
 125              	//"================================================================"
 126              	//  Initialize SCTLR_EL1 for all Cores
 127              	//"================================================================"
 128              	    /*  RES1 bits (29,28,23,22,20,11) to 1
 129              		 *  RES0 bits (31,30,27,21,17,13,10,6) +
 130              		 *  UCI,EE,EOE,WXN,nTWE,nTWI,UCT,DZE,I,UMA,SED,ITD,
 131              		 *  CP15BEN,SA0,SA,C,A,M to 0 */
 132 00dc 000081D2 		mov	x0, #0x0800
 133 00e0 001AA6F2 		movk	x0, #0x30d0, lsl #16
 134 00e4 00007EB2 		orr    x0, x0, #(0x1 << 2)            // The C bit on (data cache).
 135 00e8 000074B2 		orr    x0, x0, #(0x1 << 12)           // The I bit on (instruction cache)
 136 00ec 001018D5 		msr	sctlr_el1, x0
 137              	
 138              	//"================================================================"
 139              	//  Return to the EL1_SP1 mode from EL2 for all Cores
 140              	//"================================================================"
 141 00f0 A07880D2 		mov	x0, #0x3c5							// EL1_SP1 | D | A | I | F
 142 00f4 00401CD5 		msr	spsr_el2, x0						// Set spsr_el2 with settings
 143 00f8 60000010 		adr	x0, exit_el1						// Address to exit EL2
 144 00fc 20401CD5 		msr	elr_el2, x0							// Set elevated return register
 145 0100 E0039FD6 		eret									// Call elevated return
 146              	exit_el1:
 147 0104 A60038D5 		mrs x6, mpidr_el1						// Read core id on ARM8
 148 0108 C6044092 		and x6, x6, #0x3						// Make cpu id bitmask
 149 010c C60000B4 		cbz x6, cpu0_exit_multicore_park		// Core0 continues on
 150              	
 151              	//"================================================================"
 152              	//      Now park Core 1,2,3 into secondary spinloop on BCM2837
 153              	//"================================================================"
 154 0110 C1050058 		ldr x1, =RPi_CoresReady					// Address of CoreReady count
 155 0114 200040B9 		ldr w0, [x1]							// Load current core count
 156 0118 00040011 		add w0, w0, #1							// Add one as core about to go ready
 157 011c 200000B9 		str w0, [x1]							// Update CoreReady count
 158 0120 50000014 		b  StartSecondarySpin					// Jump to setup secondary spin
 159              	cpu0_exit_multicore_park:
 160              	
 161              	//"================================================================"
 162              	//  Set vector table for EL1 for Core0 (All others cores parked)
 163              	//"================================================================"
 164 0124 E0080058 	    ldr x0, =VectorTable
 165 0128 00C018D5 	    msr vbar_el1,x0
 166              	
 167              	//"================================================================"
 168              	//  About to go to into C kernel clear BSS (Core0 only)
AARCH64 GAS  C:\Users\RAFAEL~1.ROM\AppData\Local\Temp\ccH9DRWF.s 			page 4


 169              	//"================================================================"
 170 012c E3080058 		ldr x3, =__bss_end__
 171 0130 00090058 		ldr x0, =__bss_start__
 172 0134 1F0003EB 		cmp	x0, x3
 173 0138 82000054 		bcs	.bss_cleared
 174              	.bss_zero_loop:
 175 013c 1F4400B8 		str	wzr, [x0], 4
 176 0140 7F0000EB 		cmp	x3, x0
 177 0144 C8FFFF54 		bhi	.bss_zero_loop
 178              	.bss_cleared:
 179              	
 180              	//"================================================================"
 181              	//			Core0 will bring Core 1,2,3 to secondary spin
 182              	//"================================================================"
 183              	#define spin_cpu1 0xe0
 184 0148 011C80D2 		mov x1, #spin_cpu1						// Spin core1 jump address
 185 014c 62080058 		ldr x2, =multicore_start				// Function we are going to call
 186 0150 220000F9 		str	x2, [x1]							// Store the function address to core1
 187 0154 9F2003D5 		sev										// Wake core1 up
 188 0158 83030058 	 	ldr x3, =RPi_CoresReady					// Set CoresReady count address
 189              	.WaitCore1ACK:
 190 015c 610040B9 		ldr	w1, [x3]							// Read CoresReady count
 191 0160 3F080071 		cmp	w1, #2								// Wait for setting of second core ready
 192 0164 C1FFFF54 		bne	.WaitCore1ACK						// Core1 not ready so read again
 193              	#define spin_cpu2 0xe8
 194 0168 011D80D2 		mov x1, #spin_cpu2						// Spin core2 jump address
 195 016c 62070058 		ldr x2, =multicore_start				// Function we are going to call
 196 0170 220000F9 		str	x2, [x1]							// Store the function address to core2
 197 0174 9F2003D5 		sev										// Wake core2 up
 198 0178 83020058 	 	ldr x3, =RPi_CoresReady					// Set CoresReady count address
 199              	.WaitCore2ACK:
 200 017c 610040B9 		ldr	w1, [x3]							// Read CoresReady count
 201 0180 3F0C0071 		cmp	w1, #3								// Wait for setting of third core ready
 202 0184 C1FFFF54 		bne	.WaitCore2ACK						// Core2 not ready so read again
 203              	#define spin_cpu3 0xf0
 204 0188 011E80D2 		mov x1, #spin_cpu3						// Spin core3 jump address
 205 018c 62060058 		ldr x2, =multicore_start				// Function we are going to call
 206 0190 220000F9 		str	x2, [x1]							// Store the function address to core3
 207 0194 9F2003D5 		sev										// Wake core3 up
 208 0198 83010058 	 	ldr x3, =RPi_CoresReady					// Set CoresReady count address
 209              	.WaitCore3ACK:
 210 019c 610040B9 		ldr	w1, [x3]							// Read CoresReady count
 211 01a0 3F100071 		cmp	w1, #4								// Wait for setting of third core ready
 212 01a4 C1FFFF54 		bne	.WaitCore3ACK						// Core3 not ready so read again
 213              	
 214              	//"================================================================"
 215              	// Finally that all done Core0 jumps to the C compiler entry point
 216              	//"================================================================"
 217 01a8 00000014 		b kernel_main							// Jump out to C kernel
 218              	
 219              	/*================================================================"
 220              	      Just safety incase C code ever returns back
 221              	"================================================================*/
 222              	hang:
 223 01ac 00000014 		b hang
 224              	.balign	4
 225 01b0 00000000 	.ltorg										/* Tell assembler ltorg data for code above can go here */
AARCH64 GAS  C:\Users\RAFAEL~1.ROM\AppData\Local\Temp\ccH9DRWF.s 			page 5


 225      00000000 
 225      0000003F 
 225      00000000 
 225      00000000 
 226              	
 227              	
 228              	/*++++++++++++++++++++++++++++++++++++++++++++++++++++++++++++++++++++++++++}
 229              	{    Modified bootloader Spin loop but tolerant on registers X0-X7 for C    }
 230              	{++++++++++++++++++++++++++++++++++++++++++++++++++++++++++++++++++++++++++*/
 231              	#define spin_cpu0 0xd8
 232              	.balign	4
 233              	StartSecondarySpin:
 234 0260 A60038D5 		mrs x6, MPIDR_EL1						// Fetch core Id
 235 0264 C6044092 		and x6, x6, #0x3						// Create 2 bit mask of core Id
 236 0268 051B80D2 		mov x5, #spin_cpu0						// Load address of spins
 237 026c 010080D2 		mov x1, #0                              // zero x1 register
 238 0270 A17826F8 		str x1, [x5, x6, lsl #3]				// Make sure caller address is zeroed
 239              	secondary_spin:
 240 0274 5F2003D5 		wfe										// This is all I really want processor to sleep
 241 0278 A47866F8 	    ldr x4, [x5, x6, lsl #3]				// Fetch address that has been set
 242 027c C4FFFFB4 		cbz x4, secondary_spin					// If zero spin
 243 0280 000080D2 		mov x0, #0
 244 0284 A07826F8 		str x0, [x5, x6, lsl #3]				// Zero caller address
 245 0288 010080D2 		mov x1, #0
 246 028c 020080D2 		mov x2, #0
 247 0290 030080D2 		mov x3, #0
 248 0294 80003FD6 		blr x4									// Call the function set
 249 0298 F2FFFF17 		b StartSecondarySpin					// Loop back to spinlock
 250              	
 251              	
 252              	.global EnableInterrupts
 253              	EnableInterrupts:
 254 029c FF4203D5 		msr daifclr,#2
 255 02a0 C0035FD6 		ret
 256              	
 257              	.global DisableInterrupts
 258              	DisableInterrupts:
 259 02a4 DF4203D5 		msr daifset,#2
 260 02a8 C0035FD6 		ret
 261              	
 262              	.global CoreExecute
 263              	CoreExecute:
 264 02ac 001C40F2 		ands x0, x0, #255
 265 02b0 A0010054 		beq CoreExecuteFail
 266 02b4 E3010058 		ldr x3, =RPi_CoresReady
 267 02b8 620040B9 		ldr w2, [x3]							// Fetch cores ready count
 268 02bc 1F00026B 		cmp w0, w2
 269 02c0 22010054 		bcs	CoreExecuteFail
 270 02c4 060080D2 		mov x6, #0
 271 02c8 E603002A 		mov w6, w0
 272 02cc 051B80D2 		mov x5, #spin_cpu0						// Load address of spins
 273 02d0 A17826F8 		str x1, [x5, x6, lsl #3]				// Save caller address
 274 02d4 9F3F03D5 		dsb sy
 275 02d8 9F2003D5 		sev
 276 02dc 200080D2 		mov x0, #1
 277 02e0 C0035FD6 		ret
 278              	CoreExecuteFail:
AARCH64 GAS  C:\Users\RAFAEL~1.ROM\AppData\Local\Temp\ccH9DRWF.s 			page 6


 279 02e4 000080D2 		mov x0, #0
 280 02e8 C0035FD6 		ret
 281              	.balign	4
 282 02ec 00000000 	.ltorg										// Tell assembler ltorg data for this code can go here
 282      00000000 
 282      00000000 
 283              	
 284              	/*++++++++++++++++++++++++++++++++++++++++++++++++++++++++++++++++++++++++++}
 285              	{				IRQ HELPER ROUTINES PROVIDE BY RPi-SmartStart API		    }
 286              	{++++++++++++++++++++++++++++++++++++++++++++++++++++++++++++++++++++++++++*/
 287              	
 288              	/* "PROVIDE C FUNCTION: TimerIrqHandler setTimerIrqAddress ( TimerIrqHandler* ARMaddress);" */
 289              	.section .text.setTimerIrqAddress, "ax", %progbits
 290              	.balign	4
 291              	.global setTimerIrqAddress;
 292              	.type setTimerIrqAddress, %function
 293              	setTimerIrqAddress:
 294 0000 DF4203D5 		msr daifset,#2							// Disable irq interrupts as we are clearly changing call
 295 0004 A1000058 		ldr x1, =RPi_TimerIrqAddr				// Load address of function to call on interrupt
 296 0008 220040F9 		ldr x2, [x1]							// Load current irq call address
 297 000c 200000F9 		str x0, [x1]							// Store the new function pointer address we were given
 298 0010 E00302AA 		mov x0, x2								// return the old call function
 299 0014 C0035FD6 		ret										// Return
 300              	.balign	4
 301 0018 00000000 	.ltorg										// Tell assembler ltorg data for this code can go here
 301      00000000 
 302              	.size	setTimerIrqAddress, .-setTimerIrqAddress
 303              	
 304              	/*++++++++++++++++++++++++++++++++++++++++++++++++++++++++++++++++++++++++++}
 305              	{			VC4 ADDRESS HELPER ROUTINES PROVIDE BY RPi-SmartStart API	    }
 306              	{++++++++++++++++++++++++++++++++++++++++++++++++++++++++++++++++++++++++++*/
 307              	
 308              	/* "PROVIDE C FUNCTION: uint32_t ARMaddrToGPUaddr (void* ARMaddress);" */
 309              	.section .text.ARMaddrToGPUaddr, "ax", %progbits
 310              	.balign	4
 311              	.global ARMaddrToGPUaddr;
 312              	.type ARMaddrToGPUaddr, %function
 313              	//"================================================================"
 314              	// ARMaddrToGPUaddr -- AARCH64 Pi3 code
 315              	// C Function: uint32_t ARMaddrToGPUaddr (void* ARMaddress);
 316              	// Entry: x0 will have ARMAddress value
 317              	//"================================================================"
 318              	ARMaddrToGPUaddr:
 319 0000 0100B8D2 		mov x1, #0xC0000000						// ARM to VC conversion value
 320 0004 000001AA 		orr x0, x0, x1							// Create bus address
 321 0008 C0035FD6 		ret										// Return
 322              	.balign	4
 323              	.ltorg										// Tell assembler ltorg data for this code can go here
 324              	.size	ARMaddrToGPUaddr, .-ARMaddrToGPUaddr
 325              	
 326              	
 327              	/* "PROVIDE C FUNCTION: uint32_t GPUaddrToARMaddr (uint32_t BUSaddress);" */
 328              	.section .text.GPUaddrToARMaddr, "ax", %progbits
 329              	.balign	4
 330              	.global GPUaddrToARMaddr;
 331              	.type GPUaddrToARMaddr, %function
 332              	//"================================================================"
AARCH64 GAS  C:\Users\RAFAEL~1.ROM\AppData\Local\Temp\ccH9DRWF.s 			page 7


 333              	// GPUaddrToARMaddr -- AARCH64 Pi3 code
 334              	// C Function: uint32_t GPUaddrToARMaddr (uint32_t BUSaddress);
 335              	// Entry: x0 will have GPUAddress value
 336              	//"================================================================"
 337              	GPUaddrToARMaddr:
 338 0000 0100B8D2 		mov x1, #0xC0000000						// ARM to VC conversion value
 339 0004 0000218A 		bic x0, x0, x1							// Create arm address
 340 0008 C0035FD6 		ret										// Return
 341              	.balign	4
 342              	.ltorg										// Tell assembler ltorg data for this code can go here
 343              	.size	GPUaddrToARMaddr, .-GPUaddrToARMaddr
 344              	
 345              	
 346              	/* Synchronous handler */
 347              	.global synchronous_handler
 348 000c 00000014 		b hal_synchronous_handler
 349              	
 350              	
 351              	
 352              	/* Re-entrant interrupt handler stub */
 353              	/* http://infocenter.arm.com/help/index.jsp?topic=/com.arm.doc.den0024a/ch10s05.html */
 354              	.global irq_handler
 355              	irq_handler:
 356 0010 FD7BBFA9 		stp	x29, x30, [sp, #-16]!
 357 0014 FB73BFA9 		stp	x27, x28, [sp, #-16]!
 358 0018 F96BBFA9 		stp	x25, x26, [sp, #-16]!
 359 001c F763BFA9 		stp	x23, x24, [sp, #-16]!
 360 0020 F55BBFA9 		stp	x21, x22, [sp, #-16]!
 361 0024 F353BFA9 		stp	x19, x20, [sp, #-16]!
 362 0028 F14BBFA9 		stp	x17, x18, [sp, #-16]!
 363 002c EF43BFA9 		stp	x15, x16, [sp, #-16]!
 364 0030 ED3BBFA9 		stp	x13, x14, [sp, #-16]!
 365 0034 EB33BFA9 		stp	x11, x12, [sp, #-16]!
 366 0038 E92BBFA9 		stp	x9, x10, [sp, #-16]!
 367 003c E723BFA9 		stp	x7, x8, [sp, #-16]!
 368 0040 E51BBFA9 		stp	x5, x6, [sp, #-16]!
 369 0044 E313BFA9 		stp	x3, x4, [sp, #-16]!
 370 0048 E10BBFA9 		stp	x1, x2, [sp, #-16]!
 371 004c E00F1FF8 		str	x0, [sp, #-16]!
 372              	
 373 0050 014038D5 		mrs	x1, SPSR_EL1
 374 0054 224038D5 		mrs	x2, ELR_EL1
 375 0058 E10BBFA9 		stp	x1, x2, [sp, #-16]!
 376              	
 377              	
 378              		//  if (IRQ->IRQBasicPending.Timer_IRQ_pending) {				// Check irq on timer is triggered
 379              		//	  ARMTIMER->Clear = 1;										// Write any value to register to clear irq ... PAGE 198
 380              		//	  IRQ->IRQPending1 &= ~0x1;									// Clear timer pending irq bit 0
 381              		//  }
 382 005c 60790058 		ldr x0, =RPi_IO_Base_Addr
 383 0060 000040B9 		ldr	w0, [x0]						// Fetch Pi IO base address
 384 0064 03409652 		mov	w3, 45568						// W3 = 0xB200
 385 0068 0100030B 		add	w1, w0, w3						// W1 = Pi IO base addres + 0xB200
 386 006c 220040B9 		ldr	w2, [x1]						// W2 = IRQ->IRQBasicPending
 387 0070 E2000036 		tbz	x2, 0, .TimerIrqNotPending	    // If timer IRQ pending not yet exit
 388 0074 02809652 		mov	w2, 46080						// W2 = 0xB400
 389 0078 0000020B 		add	w0, w0, w2						// Add Pi Base Addr + 0xB400
AARCH64 GAS  C:\Users\RAFAEL~1.ROM\AppData\Local\Temp\ccH9DRWF.s 			page 8


 390 007c 020C00B9 		str	w2, [x0, 12]					// Store W2 to IRQPending1 clearing it
 391 0080 200440B9 		ldr	w0, [x1, 4]						// W0 = IRQPending1
 392 0084 00781F12 		and	w0, w0, -2						// Clear timer pending irq bit 0
 393 0088 200400B9 		str	w0, [x1, 4]						// Write IRQPending1 clearing
 394              	.TimerIrqNotPending:
 395              	
 396 008c FF4203D5 		msr daifclr,#2						// Enable irq interrupts
 397 0090 00780058 		ldr x0, =RPi_TimerIrqAddr			// Address to TimerIrqAddr
 398 0094 000040F9 		ldr x0, [x0]						// Load TimerIrqAddr value
 399 0098 600000B4 		cbz x0, no_irqset					// If zero no irq set
 400 009c 00003FD6 		blr x0								// Call Irqhandler that has been set
 401 00a0 DF4203D5 		msr daifset,#2						// Disable irq interrupts
 402              	no_irqset:
 403              	
 404              	
 405 00a4 E10BC1A8 		ldp	x1, x2, [sp], #16
 406 00a8 224018D5 		msr	ELR_EL1, x2
 407 00ac 014018D5 		msr	SPSR_EL1, x1
 408              	
 409 00b0 E00741F8 		ldr	x0, [sp], #16
 410 00b4 E10BC1A8 		ldp	x1, x2, [sp], #16
 411 00b8 E313C1A8 		ldp	x3, x4, [sp], #16
 412 00bc E51BC1A8 		ldp	x5, x6, [sp], #16
 413 00c0 E723C1A8 		ldp	x7, x8, [sp], #16
 414 00c4 E92BC1A8 		ldp	x9, x10, [sp], #16
 415 00c8 EB33C1A8 		ldp	x11, x12, [sp], #16
 416 00cc ED3BC1A8 		ldp	x13, x14, [sp], #16
 417 00d0 EF43C1A8 		ldp	x15, x16, [sp], #16
 418 00d4 F14BC1A8 		ldp	x17, x18, [sp], #16
 419 00d8 F353C1A8 		ldp	x19, x20, [sp], #16
 420 00dc F55BC1A8 		ldp	x21, x22, [sp], #16
 421 00e0 F763C1A8 		ldp	x23, x24, [sp], #16
 422 00e4 F96BC1A8 		ldp	x25, x26, [sp], #16
 423 00e8 FB73C1A8 		ldp	x27, x28, [sp], #16
 424 00ec FD7BC1A8 		ldp	x29, x30, [sp], #16
 425 00f0 E0039FD6 		eret
 426              	
 427              	/* macro to align handlers every 0x80 bytes */
 428              	.macro	vector handler
 429              	.balign 0x80
 430              	b	\handler
 431              	.endm
 432              	
 433 00f4 1F2003D5 	.balign 0x800
 433      1F2003D5 
 433      1F2003D5 
 433      1F2003D5 
 433      1F2003D5 
 434              	.global	VectorTable
 435              	VectorTable:
 436              		/* from current EL with sp_el0 */
 437 0800 00000014 		vector	_start			/* Synchronous */
 438 0804 1F2003D5 		vector  hang			/* IRQ */
 438      1F2003D5 
 438      1F2003D5 
 438      1F2003D5 
 438      1F2003D5 
AARCH64 GAS  C:\Users\RAFAEL~1.ROM\AppData\Local\Temp\ccH9DRWF.s 			page 9


 439 0884 1F2003D5 		vector	hang			/* FIQ */
 439      1F2003D5 
 439      1F2003D5 
 439      1F2003D5 
 439      1F2003D5 
 440 0904 1F2003D5 		vector	hang			/* SErrorStub */
 440      1F2003D5 
 440      1F2003D5 
 440      1F2003D5 
 440      1F2003D5 
 441              	
 442              		/* from current EL with sp_elx, x != 0 */
 443 0984 1F2003D5 		vector	hal_synchronous_handler			/* Synchronous */
 443      1F2003D5 
 443      1F2003D5 
 443      1F2003D5 
 443      1F2003D5 
 444 0a04 1F2003D5 		vector	irq_handler		/* IRQ */
 444      1F2003D5 
 444      1F2003D5 
 444      1F2003D5 
 444      1F2003D5 
 445 0a84 1F2003D5 		vector	hang			/* FIQ */
 445      1F2003D5 
 445      1F2003D5 
 445      1F2003D5 
 445      1F2003D5 
 446 0b04 1F2003D5 		vector	hang			/* SErrorStub */
 446      1F2003D5 
 446      1F2003D5 
 446      1F2003D5 
 446      1F2003D5 
 447              	
 448              		/* from lower EL, target EL minus 1 is AArch64 */
 449 0b84 1F2003D5 		vector	hang			/* Synchronous */
 449      1F2003D5 
 449      1F2003D5 
 449      1F2003D5 
 449      1F2003D5 
 450 0c04 1F2003D5 		vector  hang			/* IRQ */
 450      1F2003D5 
 450      1F2003D5 
 450      1F2003D5 
 450      1F2003D5 
 451 0c84 1F2003D5 		vector	hang			/* FIQ */
 451      1F2003D5 
 451      1F2003D5 
 451      1F2003D5 
 451      1F2003D5 
 452 0d04 1F2003D5 		vector	hang			/* SErrorStub */
 452      1F2003D5 
 452      1F2003D5 
 452      1F2003D5 
 452      1F2003D5 
 453              	
 454              		/* from lower EL, target EL minus 1 is AArch32 */
 455 0d84 1F2003D5 		vector	hang			/* Synchronous */
AARCH64 GAS  C:\Users\RAFAEL~1.ROM\AppData\Local\Temp\ccH9DRWF.s 			page 10


 455      1F2003D5 
 455      1F2003D5 
 455      1F2003D5 
 455      1F2003D5 
 456 0e04 1F2003D5 		vector  hang			/* IRQ */
 456      1F2003D5 
 456      1F2003D5 
 456      1F2003D5 
 456      1F2003D5 
 457 0e84 1F2003D5 		vector	hang			/* FIQ */
 457      1F2003D5 
 457      1F2003D5 
 457      1F2003D5 
 457      1F2003D5 
 458 0f04 1F2003D5 		vector	hang			/* SErrorStub */
 458      1F2003D5 
 458      1F2003D5 
 458      1F2003D5 
 458      1F2003D5 
 459              	
 460              	/****************************************************************
 461              	       	   DATA FOR SMARTSTART64  EXPOSED TO INTERFACE
 462              	****************************************************************/
 463 0f84 00000000 	.section ".data.smartstart64", "aw"
 464              	.balign 4
 465              	
 466              	.global RPi_IO_Base_Addr;				// Make sure Pi_IO_Base_Addr label is global
 467 0000 00000000 	RPi_IO_Base_Addr : .4byte 0;			// Peripheral Base addr is 4 byte variable in 64bit mode
 468              	
 469              	.global RPi_BootAddr;					// Make sure RPi_BootAddr label is global
 470 0004 00000000 	RPi_BootAddr : .4byte 0;				// CPU boot address is 4 byte variable in 64bit mode
 471              	
 472              	.global RPi_CoresReady;					// Make sure RPi_CoresReady label is global
 473 0008 00000000 	RPi_CoresReady : .4byte 0;				// CPU cores ready for use is 4 byte variable in 32bit mode
 474              	
 475              	.global RPi_CPUBootMode;					// Make sure RPi_CPUBootMode label is global
 476 000c 00000000 	RPi_CPUBootMode : .4byte 0;				// CPU Boot Mode is 4 byte variable in 64bit mode
 477              	
 478              	.global RPi_CpuId;						// Make sure RPi_CpuId label is global
 479 0010 00000000 	RPi_CpuId : .4byte 0;					// CPU Id is 4 byte variable in 64bit mode
 480              	
 481              	.global RPi_CompileMode;					// Make sure RPi_CompileMode label is global
 482 0014 00000000 	RPi_CompileMode : .4byte 0;				// Compile mode is 4 byte variable in 64bit mode
 483              	
 484              	/****************************************************************
 485              	       	   DATA FOR SMARTSTART64  NOT EXPOSED TO INTERFACE
 486              	****************************************************************/
 487 0018 00000000 	RPi_TimerIrqAddr : .8byte 0;			// Timer Irq Address
 487      00000000 
AARCH64 GAS  C:\Users\RAFAEL~1.ROM\AppData\Local\Temp\ccH9DRWF.s 			page 11


DEFINED SYMBOLS
src/smartstart/SmartStart64.S:38     .text.startup:0000000000000000 $x
src/smartstart/SmartStart64.S:40     .text.startup:0000000000000000 _start
src/smartstart/SmartStart64.S:470    .data.smartstart64:0000000000000004 RPi_BootAddr
src/smartstart/SmartStart64.S:467    .data.smartstart64:0000000000000000 RPi_IO_Base_Addr
src/smartstart/SmartStart64.S:473    .data.smartstart64:0000000000000008 RPi_CoresReady
src/smartstart/SmartStart64.S:482    .data.smartstart64:0000000000000014 RPi_CompileMode
src/smartstart/SmartStart64.S:479    .data.smartstart64:0000000000000010 RPi_CpuId
src/smartstart/SmartStart64.S:77     .text.startup:0000000000000058 multicore_start
src/smartstart/SmartStart64.S:97     .text.startup:00000000000000a4 set_stacks
src/smartstart/SmartStart64.S:146    .text.startup:0000000000000104 exit_el1
src/smartstart/SmartStart64.S:159    .text.startup:0000000000000124 cpu0_exit_multicore_park
src/smartstart/SmartStart64.S:233    .text.startup:0000000000000260 StartSecondarySpin
src/smartstart/SmartStart64.S:435    .text.GPUaddrToARMaddr:0000000000000800 VectorTable
src/smartstart/SmartStart64.S:178    .text.startup:0000000000000148 .bss_cleared
src/smartstart/SmartStart64.S:174    .text.startup:000000000000013c .bss_zero_loop
src/smartstart/SmartStart64.S:189    .text.startup:000000000000015c .WaitCore1ACK
src/smartstart/SmartStart64.S:199    .text.startup:000000000000017c .WaitCore2ACK
src/smartstart/SmartStart64.S:209    .text.startup:000000000000019c .WaitCore3ACK
src/smartstart/SmartStart64.S:222    .text.startup:00000000000001ac hang
src/smartstart/SmartStart64.S:225    .text.startup:00000000000001b0 $d
src/smartstart/SmartStart64.S:232    .text.startup:0000000000000260 $x
src/smartstart/SmartStart64.S:239    .text.startup:0000000000000274 secondary_spin
src/smartstart/SmartStart64.S:253    .text.startup:000000000000029c EnableInterrupts
src/smartstart/SmartStart64.S:258    .text.startup:00000000000002a4 DisableInterrupts
src/smartstart/SmartStart64.S:263    .text.startup:00000000000002ac CoreExecute
src/smartstart/SmartStart64.S:278    .text.startup:00000000000002e4 CoreExecuteFail
src/smartstart/SmartStart64.S:282    .text.startup:00000000000002f0 $d
src/smartstart/SmartStart64.S:290    .text.setTimerIrqAddress:0000000000000000 $x
src/smartstart/SmartStart64.S:293    .text.setTimerIrqAddress:0000000000000000 setTimerIrqAddress
src/smartstart/SmartStart64.S:487    .data.smartstart64:0000000000000018 RPi_TimerIrqAddr
src/smartstart/SmartStart64.S:301    .text.setTimerIrqAddress:0000000000000018 $d
src/smartstart/SmartStart64.S:310    .text.ARMaddrToGPUaddr:0000000000000000 $x
src/smartstart/SmartStart64.S:318    .text.ARMaddrToGPUaddr:0000000000000000 ARMaddrToGPUaddr
src/smartstart/SmartStart64.S:329    .text.GPUaddrToARMaddr:0000000000000000 $x
src/smartstart/SmartStart64.S:337    .text.GPUaddrToARMaddr:0000000000000000 GPUaddrToARMaddr
src/smartstart/SmartStart64.S:355    .text.GPUaddrToARMaddr:0000000000000010 irq_handler
src/smartstart/SmartStart64.S:394    .text.GPUaddrToARMaddr:000000000000008c .TimerIrqNotPending
src/smartstart/SmartStart64.S:402    .text.GPUaddrToARMaddr:00000000000000a4 no_irqset
src/smartstart/SmartStart64.S:464    .data.smartstart64:0000000000000000 $d
src/smartstart/SmartStart64.S:476    .data.smartstart64:000000000000000c RPi_CPUBootMode
src/smartstart/SmartStart64.S:487    .text.GPUaddrToARMaddr:0000000000000f88 $d

UNDEFINED SYMBOLS
__EL2_stack_core0
__EL1_stack_core0
__EL0_stack_core0
__EL2_stack_core1
__EL1_stack_core1
__EL0_stack_core1
__EL2_stack_core2
__EL1_stack_core2
__EL0_stack_core2
__EL2_stack_core3
__EL1_stack_core3
__EL0_stack_core3
__bss_end__
AARCH64 GAS  C:\Users\RAFAEL~1.ROM\AppData\Local\Temp\ccH9DRWF.s 			page 12


__bss_start__
kernel_main
synchronous_handler
hal_synchronous_handler
AARCH64 GAS  C:\Users\RAFAEL~1.ROM\AppData\Local\Temp\ccH9DRWF.s 			page 1


   1              		.arch armv8-a
   2              		.file	"rpi-SmartStart.c"
   3              		.text
   4              		.align	2
   5              		.p2align 4,,15
   6              		.type	mailbox_tag_message.constprop.1, %function
   7              	mailbox_tag_message.constprop.1:
   8 0000 F37BB2A9 		stp	x19, x30, [sp, -224]!
   9 0004 010480D2 		mov	x1, 32
  10 0008 E7008012 		mov	w7, -8
  11 000c E8C30291 		add	x8, sp, 176
  12 0010 E9830391 		add	x9, sp, 224
  13 0014 F30300AA 		mov	x19, x0
  14 0018 E0C30091 		add	x0, sp, 48
  15 001c E92701A9 		stp	x9, x9, [sp, 16]
  16 0020 E81300F9 		str	x8, [sp, 32]
  17 0024 E77F0529 		stp	w7, wzr, [sp, 40]
  18 0028 E11B00F9 		str	x1, [sp, 48]
  19 002c E20F0729 		stp	w2, w3, [sp, 56]
  20 0030 E4170829 		stp	w4, w5, [sp, 64]
  21 0034 E67F0929 		stp	w6, wzr, [sp, 72]
  22 0038 E28F0BA9 		stp	x2, x3, [sp, 184]
  23 003c E4970CA9 		stp	x4, x5, [sp, 200]
  24 0040 E66F00F9 		str	x6, [sp, 216]
  25 0044 00000094 		bl	ARMaddrToGPUaddr
  26 0048 01000090 		adrp	x1, RPi_IO_Base_Addr
  27 004c 220040B9 		ldr	w2, [x1, #:lo12:RPi_IO_Base_Addr]
  28 0050 036C1C12 		and	w3, w0, -16
  29 0054 00109752 		mov	w0, 47232
  30 0058 63001D32 		orr	w3, w3, 8
  31 005c 4200000B 		add	w2, w2, w0
  32              		.p2align 3,,7
  33              	.L15:
  34 0060 413840B9 		ldr	w1, [x2, 56]
  35 0064 E1FFFF37 		tbnz	w1, #31, .L15
  36 0068 432000B9 		str	w3, [x2, 32]
  37 006c 1F2003D5 		.p2align 3,,7
  38              	.L16:
  39 0070 411840B9 		ldr	w1, [x2, 24]
  40 0074 E1FFF737 		tbnz	x1, 30, .L16
  41 0078 410040B9 		ldr	w1, [x2]
  42 007c 210C0012 		and	w1, w1, 15
  43 0080 3F200071 		cmp	w1, 8
  44 0084 61FFFF54 		bne	.L16
  45 0088 E23740B9 		ldr	w2, [sp, 52]
  46 008c 0100B052 		mov	w1, -2147483648
  47 0090 00008052 		mov	w0, 0
  48 0094 5F00016B 		cmp	w2, w1
  49 0098 60000054 		beq	.L31
  50 009c F37BCEA8 		ldp	x19, x30, [sp], 224
  51 00a0 C0035FD6 		ret
  52              		.p2align 2,,3
  53              	.L31:
  54 00a4 F30000B4 		cbz	x19, .L20
  55 00a8 E40F4729 		ldp	w4, w3, [sp, 56]
  56 00ac 640E0029 		stp	w4, w3, [x19]
  57 00b0 E2074829 		ldp	w2, w1, [sp, 64]
AARCH64 GAS  C:\Users\RAFAEL~1.ROM\AppData\Local\Temp\ccH9DRWF.s 			page 2


  58 00b4 62060129 		stp	w2, w1, [x19, 8]
  59 00b8 E04B40B9 		ldr	w0, [sp, 72]
  60 00bc 601200B9 		str	w0, [x19, 16]
  61              	.L20:
  62 00c0 20008052 		mov	w0, 1
  63 00c4 F37BCEA8 		ldp	x19, x30, [sp], 224
  64 00c8 C0035FD6 		ret
  65              		.size	mailbox_tag_message.constprop.1, .-mailbox_tag_message.constprop.1
  66              		.align	2
  67 00cc 1F2003D5 		.p2align 4,,15
  68              		.type	mailbox_tag_message.constprop.0, %function
  69              	mailbox_tag_message.constprop.0:
  70 00d0 FE0F12F8 		str	x30, [sp, -224]!
  71 00d4 010480D2 		mov	x1, 32
  72 00d8 E7008012 		mov	w7, -8
  73 00dc E8C30291 		add	x8, sp, 176
  74 00e0 E9830391 		add	x9, sp, 224
  75 00e4 E0C30091 		add	x0, sp, 48
  76 00e8 E92701A9 		stp	x9, x9, [sp, 16]
  77 00ec E81300F9 		str	x8, [sp, 32]
  78 00f0 E77F0529 		stp	w7, wzr, [sp, 40]
  79 00f4 E11B00F9 		str	x1, [sp, 48]
  80 00f8 E20F0729 		stp	w2, w3, [sp, 56]
  81 00fc E4170829 		stp	w4, w5, [sp, 64]
  82 0100 E67F0929 		stp	w6, wzr, [sp, 72]
  83 0104 E28F0BA9 		stp	x2, x3, [sp, 184]
  84 0108 E4970CA9 		stp	x4, x5, [sp, 200]
  85 010c E66F00F9 		str	x6, [sp, 216]
  86 0110 00000094 		bl	ARMaddrToGPUaddr
  87 0114 01000090 		adrp	x1, RPi_IO_Base_Addr
  88 0118 210040B9 		ldr	w1, [x1, #:lo12:RPi_IO_Base_Addr]
  89 011c 026C1C12 		and	w2, w0, -16
  90 0120 00109752 		mov	w0, 47232
  91 0124 42001D32 		orr	w2, w2, 8
  92 0128 2100000B 		add	w1, w1, w0
  93 012c 1F2003D5 		.p2align 3,,7
  94              	.L46:
  95 0130 203840B9 		ldr	w0, [x1, 56]
  96 0134 E0FFFF37 		tbnz	w0, #31, .L46
  97 0138 222000B9 		str	w2, [x1, 32]
  98 013c 1F2003D5 		.p2align 3,,7
  99              	.L47:
 100 0140 201840B9 		ldr	w0, [x1, 24]
 101 0144 E0FFF737 		tbnz	x0, 30, .L47
 102 0148 200040B9 		ldr	w0, [x1]
 103 014c 000C0012 		and	w0, w0, 15
 104 0150 1F200071 		cmp	w0, 8
 105 0154 61FFFF54 		bne	.L47
 106 0158 E13740B9 		ldr	w1, [sp, 52]
 107 015c 0000B052 		mov	w0, -2147483648
 108 0160 FE074EF8 		ldr	x30, [sp], 224
 109 0164 3F00006B 		cmp	w1, w0
 110 0168 E0179F1A 		cset	w0, eq
 111 016c C0035FD6 		ret
 112              		.size	mailbox_tag_message.constprop.0, .-mailbox_tag_message.constprop.0
 113              		.align	2
 114              		.p2align 4,,15
AARCH64 GAS  C:\Users\RAFAEL~1.ROM\AppData\Local\Temp\ccH9DRWF.s 			page 3


 115              		.global	memcpy
 116              		.type	memcpy, %function
 117              	memcpy:
 118 0170 22010034 		cbz	w2, .L57
 119 0174 45040051 		sub	w5, w2, #1
 120 0178 020080D2 		mov	x2, 0
 121 017c 1F2003D5 		.p2align 3,,7
 122              	.L58:
 123 0180 24686238 		ldrb	w4, [x1, x2]
 124 0184 BF0002EB 		cmp	x5, x2
 125 0188 04682238 		strb	w4, [x0, x2]
 126 018c 42040091 		add	x2, x2, 1
 127 0190 81FFFF54 		bne	.L58
 128              	.L57:
 129 0194 C0035FD6 		ret
 130              		.size	memcpy, .-memcpy
 131              		.align	2
 132 0198 1F2003D5 		.p2align 4,,15
 132      1F2003D5 
 133              		.global	strlen
 134              		.type	strlen, %function
 135              	strlen:
 136 01a0 01004039 		ldrb	w1, [x0]
 137 01a4 E1000034 		cbz	w1, .L66
 138 01a8 E10300AA 		mov	x1, x0
 139 01ac 1F2003D5 		.p2align 3,,7
 140              	.L65:
 141 01b0 221C4038 		ldrb	w2, [x1, 1]!
 142 01b4 E2FFFF35 		cbnz	w2, .L65
 143 01b8 2000004B 		sub	w0, w1, w0
 144 01bc C0035FD6 		ret
 145              		.p2align 2,,3
 146              	.L66:
 147 01c0 00008052 		mov	w0, 0
 148 01c4 C0035FD6 		ret
 149              		.size	strlen, .-strlen
 150              		.section	.rodata.str1.8,"aMS",@progbits,1
 151              		.align	3
 152              	.LC0:
 153 0000 756E6B6E 		.string	"unknown ARM cpu"
 153      6F776E20 
 153      41524D20 
 153      63707500 
 154              		.align	3
 155              	.LC1:
 156 0010 636F7274 		.string	"cortex-a53"
 156      65782D61 
 156      353300
 157 001b 00000000 		.align	3
 157      00
 158              	.LC2:
 159 0020 636F7274 		.string	"cortex-a7"
 159      65782D61 
 159      3700
 160 002a 00000000 		.align	3
 160      0000
 161              	.LC3:
AARCH64 GAS  C:\Users\RAFAEL~1.ROM\AppData\Local\Temp\ccH9DRWF.s 			page 4


 162 0030 61726D31 		.string	"arm1176jzf-s"
 162      3137366A 
 162      7A662D73 
 162      00
 163              		.text
 164              		.align	2
 165 01c8 1F2003D5 		.p2align 4,,15
 165      1F2003D5 
 166              		.global	RPi_CpuIdString
 167              		.type	RPi_CpuIdString, %function
 168              	RPi_CpuIdString:
 169 01d0 00000090 		adrp	x0, RPi_CpuId
 170 01d4 00004079 		ldrh	w0, [x0, #:lo12:RPi_CpuId]
 171 01d8 003C44D3 		ubfx	x0, x0, 4, 12
 172 01dc 1F1C3071 		cmp	w0, 3079
 173 01e0 A0010054 		beq	.L70
 174 01e4 1F0C3471 		cmp	w0, 3331
 175 01e8 00010054 		beq	.L71
 176 01ec 1FD82D71 		cmp	w0, 2934
 177 01f0 00000090 		adrp	x0, .LC3
 178 01f4 01000091 		add	x1, x0, :lo12:.LC3
 179 01f8 00000090 		adrp	x0, .LC0
 180 01fc 00000091 		add	x0, x0, :lo12:.LC0
 181 0200 0010819A 		csel	x0, x0, x1, ne
 182 0204 C0035FD6 		ret
 183              		.p2align 2,,3
 184              	.L71:
 185 0208 00000090 		adrp	x0, .LC1
 186 020c 00000091 		add	x0, x0, :lo12:.LC1
 187 0210 C0035FD6 		ret
 188              		.p2align 2,,3
 189              	.L70:
 190 0214 00000090 		adrp	x0, .LC2
 191 0218 00000091 		add	x0, x0, :lo12:.LC2
 192 021c C0035FD6 		ret
 193              		.size	RPi_CpuIdString, .-RPi_CpuIdString
 194              		.align	2
 195              		.p2align 4,,15
 196              		.global	gpio_setup
 197              		.type	gpio_setup, %function
 198              	gpio_setup:
 199 0220 1FD80071 		cmp	w0, 54
 200 0224 E203002A 		mov	w2, w0
 201 0228 2298477A 		ccmp	w1, 7, 2, ls
 202 022c 00008052 		mov	w0, 0
 203 0230 49000054 		bls	.L76
 204 0234 C0035FD6 		ret
 205              		.p2align 2,,3
 206              	.L76:
 207 0238 A3999952 		mov	w3, 52429
 208 023c 8399B972 		movk	w3, 0xcccc, lsl 16
 209 0240 47018052 		mov	w7, 10
 210 0244 00000090 		adrp	x0, RPi_IO_Base_Addr
 211 0248 050040B9 		ldr	w5, [x0, #:lo12:RPi_IO_Base_Addr]
 212 024c 437CA39B 		umull	x3, w2, w3
 213 0250 E4008052 		mov	w4, 7
 214 0254 20008052 		mov	w0, 1
AARCH64 GAS  C:\Users\RAFAEL~1.ROM\AppData\Local\Temp\ccH9DRWF.s 			page 5


 215 0258 A5004811 		add	w5, w5, 2097152
 216 025c 63FC63D3 		lsr	x3, x3, 35
 217 0260 E603032A 		uxtw	x6, w3
 218 0264 6288071B 		msub	w2, w3, w7, w2
 219 0268 A77866B8 		ldr	w7, [x5, x6, lsl 2]
 220 026c 4204020B 		add	w2, w2, w2, lsl 1
 221 0270 8320C21A 		lsl	w3, w4, w2
 222 0274 E300230A 		bic	w3, w7, w3
 223 0278 2120C21A 		lsl	w1, w1, w2
 224 027c 2100032A 		orr	w1, w1, w3
 225 0280 A17826B8 		str	w1, [x5, x6, lsl 2]
 226 0284 C0035FD6 		ret
 227              		.size	gpio_setup, .-gpio_setup
 228              		.align	2
 229 0288 1F2003D5 		.p2align 4,,15
 229      1F2003D5 
 230              		.global	gpio_output
 231              		.type	gpio_output, %function
 232              	gpio_output:
 233 0290 211C0012 		and	w1, w1, 255
 234 0294 E203002A 		mov	w2, w0
 235 0298 1FD80071 		cmp	w0, 54
 236 029c 88020054 		bhi	.L80
 237 02a0 447C0553 		lsr	w4, w2, 5
 238 02a4 00000090 		adrp	x0, RPi_IO_Base_Addr
 239 02a8 030040B9 		ldr	w3, [x0, #:lo12:RPi_IO_Base_Addr]
 240 02ac 20008052 		mov	w0, 1
 241 02b0 84687ED3 		ubfiz	x4, x4, 2, 27
 242 02b4 0220C21A 		lsl	w2, w0, w2
 243 02b8 63004811 		add	w3, w3, 2097152
 244 02bc E1000035 		cbnz	w1, .L81
 245 02c0 84800091 		add	x4, x4, 32
 246 02c4 E103002A 		mov	w1, w0
 247 02c8 6300048B 		add	x3, x3, x4
 248 02cc E003012A 		mov	w0, w1
 249 02d0 620800B9 		str	w2, [x3, 8]
 250 02d4 C0035FD6 		ret
 251              		.p2align 2,,3
 252              	.L81:
 253 02d8 84400091 		add	x4, x4, 16
 254 02dc E003012A 		mov	w0, w1
 255 02e0 6300048B 		add	x3, x3, x4
 256 02e4 620C00B9 		str	w2, [x3, 12]
 257 02e8 C0035FD6 		ret
 258              		.p2align 2,,3
 259              	.L80:
 260 02ec 01008052 		mov	w1, 0
 261 02f0 E003012A 		mov	w0, w1
 262 02f4 C0035FD6 		ret
 263              		.size	gpio_output, .-gpio_output
 264              		.align	2
 265 02f8 1F2003D5 		.p2align 4,,15
 265      1F2003D5 
 266              		.global	gpio_input
 267              		.type	gpio_input, %function
 268              	gpio_input:
 269 0300 1FD80071 		cmp	w0, 54
AARCH64 GAS  C:\Users\RAFAEL~1.ROM\AppData\Local\Temp\ccH9DRWF.s 			page 6


 270 0304 A8010054 		bhi	.L84
 271 0308 01000090 		adrp	x1, RPi_IO_Base_Addr
 272 030c 230040B9 		ldr	w3, [x1, #:lo12:RPi_IO_Base_Addr]
 273 0310 017C0553 		lsr	w1, w0, 5
 274 0314 22008052 		mov	w2, 1
 275 0318 21300091 		add	x1, x1, 12
 276 031c 63004811 		add	w3, w3, 2097152
 277 0320 4020C01A 		lsl	w0, w2, w0
 278 0324 6108018B 		add	x1, x3, x1, lsl 2
 279 0328 210440B9 		ldr	w1, [x1, 4]
 280 032c 1F00016A 		tst	w0, w1
 281 0330 E0079F1A 		cset	w0, ne
 282 0334 C0035FD6 		ret
 283              		.p2align 2,,3
 284              	.L84:
 285 0338 00008052 		mov	w0, 0
 286 033c C0035FD6 		ret
 287              		.size	gpio_input, .-gpio_input
 288              		.align	2
 289              		.p2align 4,,15
 290              		.global	gpio_checkEvent
 291              		.type	gpio_checkEvent, %function
 292              	gpio_checkEvent:
 293 0340 1FD80071 		cmp	w0, 54
 294 0344 88010054 		bhi	.L87
 295 0348 01000090 		adrp	x1, RPi_IO_Base_Addr
 296 034c 220040B9 		ldr	w2, [x1, #:lo12:RPi_IO_Base_Addr]
 297 0350 037C0553 		lsr	w3, w0, 5
 298 0354 21008052 		mov	w1, 1
 299 0358 42004811 		add	w2, w2, 2097152
 300 035c 63400091 		add	x3, x3, 16
 301 0360 2020C01A 		lsl	w0, w1, w0
 302 0364 417863B8 		ldr	w1, [x2, x3, lsl 2]
 303 0368 1F00016A 		tst	w0, w1
 304 036c E0079F1A 		cset	w0, ne
 305 0370 C0035FD6 		ret
 306              		.p2align 2,,3
 307              	.L87:
 308 0374 00008052 		mov	w0, 0
 309 0378 C0035FD6 		ret
 310              		.size	gpio_checkEvent, .-gpio_checkEvent
 311              		.align	2
 312 037c 1F2003D5 		.p2align 4,,15
 313              		.global	gpio_clearEvent
 314              		.type	gpio_clearEvent, %function
 315              	gpio_clearEvent:
 316 0380 1FD80071 		cmp	w0, 54
 317 0384 68010054 		bhi	.L90
 318 0388 01000090 		adrp	x1, RPi_IO_Base_Addr
 319 038c 230040B9 		ldr	w3, [x1, #:lo12:RPi_IO_Base_Addr]
 320 0390 047C0553 		lsr	w4, w0, 5
 321 0394 22008052 		mov	w2, 1
 322 0398 63004811 		add	w3, w3, 2097152
 323 039c 84400091 		add	x4, x4, 16
 324 03a0 4120C01A 		lsl	w1, w2, w0
 325 03a4 E003022A 		mov	w0, w2
 326 03a8 617824B8 		str	w1, [x3, x4, lsl 2]
AARCH64 GAS  C:\Users\RAFAEL~1.ROM\AppData\Local\Temp\ccH9DRWF.s 			page 7


 327 03ac C0035FD6 		ret
 328              		.p2align 2,,3
 329              	.L90:
 330 03b0 00008052 		mov	w0, 0
 331 03b4 C0035FD6 		ret
 332              		.size	gpio_clearEvent, .-gpio_clearEvent
 333              		.align	2
 334 03b8 1F2003D5 		.p2align 4,,15
 334      1F2003D5 
 335              		.global	gpio_edgeDetect
 336              		.type	gpio_edgeDetect, %function
 337              	gpio_edgeDetect:
 338 03c0 E303002A 		mov	w3, w0
 339 03c4 211C0012 		and	w1, w1, 255
 340 03c8 401C0012 		and	w0, w2, 255
 341 03cc 7FD80071 		cmp	w3, 54
 342 03d0 68020054 		bhi	.L96
 343 03d4 657C0553 		lsr	w5, w3, 5
 344 03d8 02000090 		adrp	x2, RPi_IO_Base_Addr
 345 03dc 440040B9 		ldr	w4, [x2, #:lo12:RPi_IO_Base_Addr]
 346 03e0 22008052 		mov	w2, 1
 347 03e4 A5687ED3 		ubfiz	x5, x5, 2, 27
 348 03e8 4320C31A 		lsl	w3, w2, w3
 349 03ec 84004811 		add	w4, w4, 2097152
 350 03f0 C1000034 		cbz	w1, .L93
 351 03f4 80010034 		cbz	w0, .L94
 352 03f8 A5C00191 		add	x5, x5, 112
 353 03fc 8400058B 		add	x4, x4, x5
 354 0400 830C00B9 		str	w3, [x4, 12]
 355 0404 C0035FD6 		ret
 356              		.p2align 2,,3
 357              	.L93:
 358 0408 80010034 		cbz	w0, .L95
 359 040c A5000291 		add	x5, x5, 128
 360 0410 8400058B 		add	x4, x4, x5
 361 0414 830800B9 		str	w3, [x4, 8]
 362 0418 C0035FD6 		ret
 363              		.p2align 2,,3
 364              	.L96:
 365 041c 00008052 		mov	w0, 0
 366 0420 C0035FD6 		ret
 367              		.p2align 2,,3
 368              	.L94:
 369 0424 A5000191 		add	x5, x5, 64
 370 0428 E003012A 		mov	w0, w1
 371 042c 8400058B 		add	x4, x4, x5
 372 0430 830C00B9 		str	w3, [x4, 12]
 373 0434 C0035FD6 		ret
 374              		.p2align 2,,3
 375              	.L95:
 376 0438 A5400191 		add	x5, x5, 80
 377 043c E003022A 		mov	w0, w2
 378 0440 8400058B 		add	x4, x4, x5
 379 0444 830800B9 		str	w3, [x4, 8]
 380 0448 C0035FD6 		ret
 381              		.size	gpio_edgeDetect, .-gpio_edgeDetect
 382              		.align	2
AARCH64 GAS  C:\Users\RAFAEL~1.ROM\AppData\Local\Temp\ccH9DRWF.s 			page 8


 383 044c 1F2003D5 		.p2align 4,,15
 384              		.global	gpio_fixResistor
 385              		.type	gpio_fixResistor, %function
 386              	gpio_fixResistor:
 387 0450 1FD80071 		cmp	w0, 54
 388 0454 2298427A 		ccmp	w1, 2, 2, ls
 389 0458 69000054 		bls	.L112
 390 045c 00008052 		mov	w0, 0
 391 0460 C0035FD6 		ret
 392              		.p2align 2,,3
 393              	.L112:
 394 0464 02000090 		adrp	x2, RPi_IO_Base_Addr
 395 0468 420040B9 		ldr	w2, [x2, #:lo12:RPi_IO_Base_Addr]
 396 046c 46004811 		add	w6, w2, 2097152
 397 0470 420C4011 		add	w2, w2, 12288
 398 0474 C19400B9 		str	w1, [x6, 148]
 399              		.p2align 3,,7
 400              	.L99:
 401 0478 410840B9 		ldr	w1, [x2, 8]
 402 047c 440440B9 		ldr	w4, [x2, 4]
 403 0480 430840B9 		ldr	w3, [x2, 8]
 404 0484 3F00036B 		cmp	w1, w3
 405 0488 81FFFF54 		bne	.L99
 406 048c E403042A 		uxtw	x4, w4
 407 0490 818001AA 		orr	x1, x4, x1, lsl 32
 408 0494 25080091 		add	x5, x1, 2
 409              		.p2align 3,,7
 410              	.L100:
 411 0498 410840B9 		ldr	w1, [x2, 8]
 412 049c 440440B9 		ldr	w4, [x2, 4]
 413 04a0 430840B9 		ldr	w3, [x2, 8]
 414 04a4 3F00036B 		cmp	w1, w3
 415 04a8 81FFFF54 		bne	.L100
 416 04ac E403042A 		uxtw	x4, w4
 417 04b0 818001AA 		orr	x1, x4, x1, lsl 32
 418 04b4 BF0001EB 		cmp	x5, x1
 419 04b8 08FFFF54 		bhi	.L100
 420 04bc 057C0553 		lsr	w5, w0, 5
 421 04c0 21008052 		mov	w1, 1
 422 04c4 2020C01A 		lsl	w0, w1, w0
 423 04c8 C508058B 		add	x5, x6, x5, lsl 2
 424 04cc A09800B9 		str	w0, [x5, 152]
 425              		.p2align 3,,7
 426              	.L102:
 427 04d0 400840B9 		ldr	w0, [x2, 8]
 428 04d4 430440B9 		ldr	w3, [x2, 4]
 429 04d8 410840B9 		ldr	w1, [x2, 8]
 430 04dc 1F00016B 		cmp	w0, w1
 431 04e0 81FFFF54 		bne	.L102
 432 04e4 E303032A 		uxtw	x3, w3
 433 04e8 608000AA 		orr	x0, x3, x0, lsl 32
 434 04ec 04080091 		add	x4, x0, 2
 435              		.p2align 3,,7
 436              	.L103:
 437 04f0 400840B9 		ldr	w0, [x2, 8]
 438 04f4 430440B9 		ldr	w3, [x2, 4]
 439 04f8 410840B9 		ldr	w1, [x2, 8]
AARCH64 GAS  C:\Users\RAFAEL~1.ROM\AppData\Local\Temp\ccH9DRWF.s 			page 9


 440 04fc 1F00016B 		cmp	w0, w1
 441 0500 81FFFF54 		bne	.L103
 442 0504 E303032A 		uxtw	x3, w3
 443 0508 608000AA 		orr	x0, x3, x0, lsl 32
 444 050c 9F0000EB 		cmp	x4, x0
 445 0510 08FFFF54 		bhi	.L103
 446 0514 DF9400B9 		str	wzr, [x6, 148]
 447 0518 20008052 		mov	w0, 1
 448 051c BF9800B9 		str	wzr, [x5, 152]
 449 0520 C0035FD6 		ret
 450              		.size	gpio_fixResistor, .-gpio_fixResistor
 451              		.align	2
 452 0524 1F2003D5 		.p2align 4,,15
 452      1F2003D5 
 452      1F2003D5 
 453              		.global	timer_getTickCount
 454              		.type	timer_getTickCount, %function
 455              	timer_getTickCount:
 456 0530 00000090 		adrp	x0, RPi_IO_Base_Addr
 457 0534 010040B9 		ldr	w1, [x0, #:lo12:RPi_IO_Base_Addr]
 458 0538 210C4011 		add	w1, w1, 12288
 459 053c 1F2003D5 		.p2align 3,,7
 460              	.L114:
 461 0540 200840B9 		ldr	w0, [x1, 8]
 462 0544 230440B9 		ldr	w3, [x1, 4]
 463 0548 220840B9 		ldr	w2, [x1, 8]
 464 054c 1F00026B 		cmp	w0, w2
 465 0550 81FFFF54 		bne	.L114
 466 0554 E303032A 		uxtw	x3, w3
 467 0558 608000AA 		orr	x0, x3, x0, lsl 32
 468 055c C0035FD6 		ret
 469              		.size	timer_getTickCount, .-timer_getTickCount
 470              		.align	2
 471              		.p2align 4,,15
 472              		.global	timer_wait
 473              		.type	timer_wait, %function
 474              	timer_wait:
 475 0560 01000090 		adrp	x1, RPi_IO_Base_Addr
 476 0564 210040B9 		ldr	w1, [x1, #:lo12:RPi_IO_Base_Addr]
 477 0568 210C4011 		add	w1, w1, 12288
 478 056c 1F2003D5 		.p2align 3,,7
 479              	.L117:
 480 0570 220840B9 		ldr	w2, [x1, 8]
 481 0574 240440B9 		ldr	w4, [x1, 4]
 482 0578 230840B9 		ldr	w3, [x1, 8]
 483 057c 5F00036B 		cmp	w2, w3
 484 0580 81FFFF54 		bne	.L117
 485 0584 E403042A 		uxtw	x4, w4
 486 0588 828002AA 		orr	x2, x4, x2, lsl 32
 487 058c 4400008B 		add	x4, x2, x0
 488              		.p2align 3,,7
 489              	.L118:
 490 0590 200840B9 		ldr	w0, [x1, 8]
 491 0594 230440B9 		ldr	w3, [x1, 4]
 492 0598 220840B9 		ldr	w2, [x1, 8]
 493 059c 1F00026B 		cmp	w0, w2
 494 05a0 81FFFF54 		bne	.L118
AARCH64 GAS  C:\Users\RAFAEL~1.ROM\AppData\Local\Temp\ccH9DRWF.s 			page 10


 495 05a4 E303032A 		uxtw	x3, w3
 496 05a8 608000AA 		orr	x0, x3, x0, lsl 32
 497 05ac 9F0000EB 		cmp	x4, x0
 498 05b0 08FFFF54 		bhi	.L118
 499 05b4 C0035FD6 		ret
 500              		.size	timer_wait, .-timer_wait
 501              		.align	2
 502 05b8 1F2003D5 		.p2align 4,,15
 502      1F2003D5 
 503              		.global	tick_difference
 504              		.type	tick_difference, %function
 505              	tick_difference:
 506 05c0 200000CB 		sub	x0, x1, x0
 507 05c4 C0035FD6 		ret
 508              		.size	tick_difference, .-tick_difference
 509              		.align	2
 510 05c8 1F2003D5 		.p2align 4,,15
 510      1F2003D5 
 511              		.global	mailbox_write
 512              		.type	mailbox_write, %function
 513              	mailbox_write:
 514 05d0 1F240071 		cmp	w0, 9
 515 05d4 88010054 		bhi	.L127
 516 05d8 02000090 		adrp	x2, RPi_IO_Base_Addr
 517 05dc 420040B9 		ldr	w2, [x2, #:lo12:RPi_IO_Base_Addr]
 518 05e0 216C1C12 		and	w1, w1, -16
 519 05e4 0300012A 		orr	w3, w0, w1
 520 05e8 00109752 		mov	w0, 47232
 521 05ec 4100000B 		add	w1, w2, w0
 522              		.p2align 3,,7
 523              	.L126:
 524 05f0 203840B9 		ldr	w0, [x1, 56]
 525 05f4 E0FFFF37 		tbnz	w0, #31, .L126
 526 05f8 20008052 		mov	w0, 1
 527 05fc 232000B9 		str	w3, [x1, 32]
 528 0600 C0035FD6 		ret
 529              		.p2align 2,,3
 530              	.L127:
 531 0604 00008052 		mov	w0, 0
 532 0608 C0035FD6 		ret
 533              		.size	mailbox_write, .-mailbox_write
 534              		.align	2
 535 060c 1F2003D5 		.p2align 4,,15
 536              		.global	mailbox_read
 537              		.type	mailbox_read, %function
 538              	mailbox_read:
 539 0610 1F240071 		cmp	w0, 9
 540 0614 A8010054 		bhi	.L133
 541 0618 01000090 		adrp	x1, RPi_IO_Base_Addr
 542 061c 220040B9 		ldr	w2, [x1, #:lo12:RPi_IO_Base_Addr]
 543 0620 01109752 		mov	w1, 47232
 544 0624 4200010B 		add	w2, w2, w1
 545              		.p2align 3,,7
 546              	.L131:
 547 0628 411840B9 		ldr	w1, [x2, 24]
 548 062c E1FFF737 		tbnz	x1, 30, .L131
 549 0630 410040B9 		ldr	w1, [x2]
AARCH64 GAS  C:\Users\RAFAEL~1.ROM\AppData\Local\Temp\ccH9DRWF.s 			page 11


 550 0634 230C0012 		and	w3, w1, 15
 551 0638 1F00036B 		cmp	w0, w3
 552 063c 61FFFF54 		bne	.L131
 553 0640 206C1C12 		and	w0, w1, -16
 554 0644 C0035FD6 		ret
 555              	.L133:
 556 0648 A0D59B52 		mov	w0, 57005
 557 064c A0DDBF72 		movk	w0, 0xfeed, lsl 16
 558 0650 C0035FD6 		ret
 559              		.size	mailbox_read, .-mailbox_read
 560              		.align	2
 561 0654 1F2003D5 		.p2align 4,,15
 561      1F2003D5 
 561      1F2003D5 
 562              		.global	mailbox_tag_message
 563              		.type	mailbox_tag_message, %function
 564              	mailbox_tag_message:
 565 0660 F353B1A9 		stp	x19, x20, [sp, -240]!
 566 0664 331C0012 		and	w19, w1, 255
 567 0668 610A0011 		add	w1, w19, 2
 568 066c F4030191 		add	x20, sp, 64
 569 0670 690E0011 		add	w9, w19, 3
 570 0674 217C4093 		sxtw	x1, w1
 571 0678 F57B01A9 		stp	x21, x30, [sp, 16]
 572 067c 29751E53 		lsl	w9, w9, 2
 573 0680 E94300B9 		str	w9, [sp, 64]
 574 0684 EA030391 		add	x10, sp, 192
 575 0688 9F7A21B8 		str	wzr, [x20, x1, lsl 2]
 576 068c E9C30391 		add	x9, sp, 240
 577 0690 E8058012 		mov	w8, -48
 578 0694 E92702A9 		stp	x9, x9, [sp, 32]
 579 0698 F50300AA 		mov	x21, x0
 580 069c EA1B00F9 		str	x10, [sp, 48]
 581 06a0 E87F0729 		stp	w8, wzr, [sp, 56]
 582 06a4 FF4700B9 		str	wzr, [sp, 68]
 583 06a8 E20F0CA9 		stp	x2, x3, [sp, 192]
 584 06ac E4170DA9 		stp	x4, x5, [sp, 208]
 585 06b0 E61F0EA9 		stp	x6, x7, [sp, 224]
 586 06b4 73050034 		cbz	w19, .L148
 587 06b8 E303082A 		mov	w3, w8
 588 06bc E4C30391 		add	x4, sp, 240
 589 06c0 E103082A 		mov	w1, w8
 590 06c4 E503082A 		mov	w5, w8
 591 06c8 00008052 		mov	w0, 0
 592 06cc 02008052 		mov	w2, 0
 593              		.p2align 3,,7
 594              	.L140:
 595 06d0 8500F836 		tbz	w5, #31, .L142
 596 06d4 A5200011 		add	w5, w5, 8
 597 06d8 20008052 		mov	w0, 1
 598 06dc E103052A 		mov	w1, w5
 599              	.L142:
 600 06e0 42040011 		add	w2, w2, 1
 601 06e4 7F02026B 		cmp	w19, w2
 602 06e8 41FFFF54 		bne	.L140
 603 06ec 40000034 		cbz	w0, .L143
 604 06f0 E13B00B9 		str	w1, [sp, 56]
AARCH64 GAS  C:\Users\RAFAEL~1.ROM\AppData\Local\Temp\ccH9DRWF.s 			page 12


 605              	.L143:
 606 06f4 61060051 		sub	w1, w19, #1
 607 06f8 82120091 		add	x2, x20, 4
 608 06fc E60314AA 		mov	x6, x20
 609 0700 4148218B 		add	x1, x2, x1, uxtw 2
 610 0704 09000014 		b	.L147
 611              		.p2align 2,,3
 612              	.L170:
 613 0708 E50304AA 		mov	x5, x4
 614 070c 3F0002EB 		cmp	x1, x2
 615 0710 84200091 		add	x4, x4, 8
 616 0714 A50040B9 		ldr	w5, [x5]
 617 0718 C50800B9 		str	w5, [x6, 8]
 618 071c E60302AA 		mov	x6, x2
 619 0720 42100091 		add	x2, x2, 4
 620 0724 E0010054 		beq	.L148
 621              	.L147:
 622 0728 67200011 		add	w7, w3, 8
 623 072c E3FEFF36 		tbz	w3, #31, .L170
 624 0730 E0C30391 		add	x0, sp, 240
 625 0734 FF000071 		cmp	w7, 0
 626 0738 05C0238B 		add	x5, x0, x3, sxtw
 627 073c E303072A 		mov	w3, w7
 628 0740 4CFEFF54 		bgt	.L170
 629 0744 A50040B9 		ldr	w5, [x5]
 630 0748 3F0002EB 		cmp	x1, x2
 631 074c C50800B9 		str	w5, [x6, 8]
 632 0750 E60302AA 		mov	x6, x2
 633 0754 42100091 		add	x2, x2, 4
 634 0758 81FEFF54 		bne	.L147
 635 075c 1F2003D5 		.p2align 3,,7
 636              	.L148:
 637 0760 E00314AA 		mov	x0, x20
 638 0764 00000094 		bl	ARMaddrToGPUaddr
 639 0768 01000090 		adrp	x1, RPi_IO_Base_Addr
 640 076c 230040B9 		ldr	w3, [x1, #:lo12:RPi_IO_Base_Addr]
 641 0770 006C1C12 		and	w0, w0, -16
 642 0774 01109752 		mov	w1, 47232
 643 0778 00001D32 		orr	w0, w0, 8
 644 077c 6300010B 		add	w3, w3, w1
 645              		.p2align 3,,7
 646              	.L138:
 647 0780 623840B9 		ldr	w2, [x3, 56]
 648 0784 E2FFFF37 		tbnz	w2, #31, .L138
 649 0788 602000B9 		str	w0, [x3, 32]
 650 078c 1F2003D5 		.p2align 3,,7
 651              	.L149:
 652 0790 621840B9 		ldr	w2, [x3, 24]
 653 0794 E2FFF737 		tbnz	x2, 30, .L149
 654 0798 620040B9 		ldr	w2, [x3]
 655 079c 420C0012 		and	w2, w2, 15
 656 07a0 5F200071 		cmp	w2, 8
 657 07a4 61FFFF54 		bne	.L149
 658 07a8 E24740B9 		ldr	w2, [sp, 68]
 659 07ac 0100B052 		mov	w1, -2147483648
 660 07b0 00008052 		mov	w0, 0
 661 07b4 5F00016B 		cmp	w2, w1
AARCH64 GAS  C:\Users\RAFAEL~1.ROM\AppData\Local\Temp\ccH9DRWF.s 			page 13


 662 07b8 80000054 		beq	.L172
 663 07bc F57B41A9 		ldp	x21, x30, [sp, 16]
 664 07c0 F353CFA8 		ldp	x19, x20, [sp], 240
 665 07c4 C0035FD6 		ret
 666              		.p2align 2,,3
 667              	.L172:
 668 07c8 550100B4 		cbz	x21, .L153
 669 07cc 33010034 		cbz	w19, .L153
 670 07d0 000080D2 		mov	x0, 0
 671 07d4 1F2003D5 		.p2align 3,,7
 672              	.L154:
 673 07d8 810A008B 		add	x1, x20, x0, lsl 2
 674 07dc 210840B9 		ldr	w1, [x1, 8]
 675 07e0 A17A20B8 		str	w1, [x21, x0, lsl 2]
 676 07e4 00040091 		add	x0, x0, 1
 677 07e8 7F02006B 		cmp	w19, w0
 678 07ec 6CFFFF54 		bgt	.L154
 679              	.L153:
 680 07f0 20008052 		mov	w0, 1
 681 07f4 F57B41A9 		ldp	x21, x30, [sp, 16]
 682 07f8 F353CFA8 		ldp	x19, x20, [sp], 240
 683 07fc C0035FD6 		ret
 684              		.size	mailbox_tag_message, .-mailbox_tag_message
 685              		.align	2
 686              		.p2align 4,,15
 687              		.global	TimerIrqSetup
 688              		.type	TimerIrqSetup, %function
 689              	TimerIrqSetup:
 690 0800 F353BBA9 		stp	x19, x20, [sp, -80]!
 691 0804 F303002A 		mov	w19, w0
 692 0808 04018052 		mov	w4, 8
 693 080c F55B01A9 		stp	x21, x22, [sp, 16]
 694 0810 16000090 		adrp	x22, RPi_IO_Base_Addr
 695 0814 C30240B9 		ldr	w3, [x22, #:lo12:RPi_IO_Base_Addr]
 696 0818 15809652 		mov	w21, 46080
 697 081c FE1300F9 		str	x30, [sp, 32]
 698 0820 6300150B 		add	w3, w3, w21
 699 0824 FFFF03A9 		stp	xzr, xzr, [sp, 56]
 700 0828 F40301AA 		mov	x20, x1
 701 082c FF4B00B9 		str	wzr, [sp, 72]
 702 0830 06008052 		mov	w6, 0
 703 0834 85008052 		mov	w5, 4
 704 0838 A1008052 		mov	w1, 5
 705 083c 600840B9 		ldr	w0, [x3, 8]
 706 0840 42008052 		mov	w2, 2
 707 0844 6200A072 		movk	w2, 0x3, lsl 16
 708 0848 00781812 		and	w0, w0, -129
 709 084c 600800B9 		str	w0, [x3, 8]
 710 0850 E303042A 		mov	w3, w4
 711 0854 E0E30091 		add	x0, sp, 56
 712 0858 EAFDFF97 		bl	mailbox_tag_message.constprop.1
 713 085c E24B40B9 		ldr	w2, [sp, 72]
 714 0860 61BA8952 		mov	w1, 19923
 715 0864 410CA272 		movk	w1, 0x1062, lsl 16
 716 0868 639B86D2 		mov	x3, 13531
 717 086c C3F6BAF2 		movk	x3, 0xd7b6, lsl 16
 718 0870 E00314AA 		mov	x0, x20
AARCH64 GAS  C:\Users\RAFAEL~1.ROM\AppData\Local\Temp\ccH9DRWF.s 			page 14


 719 0874 43D0DBF2 		movk	x3, 0xde82, lsl 32
 720 0878 6363E8F2 		movk	x3, 0x431b, lsl 48
 721 087c 417CA19B 		umull	x1, w2, w1
 722 0880 21FC64D3 		lsr	x1, x1, 36
 723 0884 E14B00B9 		str	w1, [sp, 72]
 724 0888 737EA19B 		umull	x19, w19, w1
 725 088c 737EC39B 		umulh	x19, x19, x3
 726 0890 00000094 		bl	setTimerIrqAddress
 727 0894 C10240B9 		ldr	w1, [x22, #:lo12:RPi_IO_Base_Addr]
 728 0898 02409652 		mov	w2, 45568
 729 089c 2300020B 		add	w3, w1, w2
 730 08a0 2100150B 		add	w1, w1, w21
 731 08a4 73FE52D3 		lsr	x19, x19, 18
 732 08a8 621840B9 		ldr	w2, [x3, 24]
 733 08ac 42000032 		orr	w2, w2, 1
 734 08b0 621800B9 		str	w2, [x3, 24]
 735 08b4 330000B9 		str	w19, [x1]
 736 08b8 220840B9 		ldr	w2, [x1, 8]
 737 08bc 42001F32 		orr	w2, w2, 2
 738 08c0 220800B9 		str	w2, [x1, 8]
 739 08c4 220840B9 		ldr	w2, [x1, 8]
 740 08c8 42741C12 		and	w2, w2, -13
 741 08cc 220800B9 		str	w2, [x1, 8]
 742 08d0 220840B9 		ldr	w2, [x1, 8]
 743 08d4 42001B32 		orr	w2, w2, 32
 744 08d8 220800B9 		str	w2, [x1, 8]
 745 08dc 220840B9 		ldr	w2, [x1, 8]
 746 08e0 42001932 		orr	w2, w2, 128
 747 08e4 220800B9 		str	w2, [x1, 8]
 748 08e8 F55B41A9 		ldp	x21, x22, [sp, 16]
 749 08ec FE1340F9 		ldr	x30, [sp, 32]
 750 08f0 F353C5A8 		ldp	x19, x20, [sp], 80
 751 08f4 C0035FD6 		ret
 752              		.size	TimerIrqSetup, .-TimerIrqSetup
 753              		.align	2
 754 08f8 1F2003D5 		.p2align 4,,15
 754      1F2003D5 
 755              		.global	set_Activity_LED
 756              		.type	set_Activity_LED, %function
 757              	set_Activity_LED:
 758 0900 01000090 		adrp	x1, RPi_CpuId
 759 0904 21004079 		ldrh	w1, [x1, #:lo12:RPi_CpuId]
 760 0908 F37BBEA9 		stp	x19, x30, [sp, -32]!
 761 090c 131C0012 		and	w19, w0, 255
 762 0910 213C44D3 		ubfx	x1, x1, 4, 12
 763 0914 3F1C3071 		cmp	w1, 3079
 764 0918 20010054 		beq	.L176
 765 091c 3F0C3471 		cmp	w1, 3331
 766 0920 60040054 		beq	.L177
 767 0924 3FD82D71 		cmp	w1, 2934
 768 0928 C0010054 		beq	.L190
 769 092c 13008052 		mov	w19, 0
 770              	.L178:
 771 0930 E003132A 		mov	w0, w19
 772 0934 F37BC2A8 		ldp	x19, x30, [sp], 32
 773 0938 C0035FD6 		ret
 774              		.p2align 2,,3
AARCH64 GAS  C:\Users\RAFAEL~1.ROM\AppData\Local\Temp\ccH9DRWF.s 			page 15


 775              	.L176:
 776 093c 00000090 		adrp	x0, RPi_IO_Base_Addr
 777 0940 000040B9 		ldr	w0, [x0, #:lo12:RPi_IO_Base_Addr]
 778 0944 01009052 		mov	w1, 32768
 779 0948 00004811 		add	w0, w0, 2097152
 780 094c B3040034 		cbz	w19, .L185
 781 0950 012000B9 		str	w1, [x0, 32]
 782 0954 E003132A 		mov	w0, w19
 783 0958 F37BC2A8 		ldp	x19, x30, [sp], 32
 784 095c C0035FD6 		ret
 785              		.p2align 2,,3
 786              	.L190:
 787 0960 00000090 		adrp	x0, .LANCHOR0
 788 0964 01004039 		ldrb	w1, [x0, #:lo12:.LANCHOR0]
 789 0968 A1040034 		cbz	w1, .L179
 790              	.L189:
 791 096c 00000090 		adrp	x0, .LANCHOR1
 792 0970 000040B9 		ldr	w0, [x0, #:lo12:.LANCHOR1]
 793 0974 1FD80071 		cmp	w0, 54
 794 0978 E8030054 		bhi	.L187
 795              	.L183:
 796 097c 027C0553 		lsr	w2, w0, 5
 797 0980 01000090 		adrp	x1, RPi_IO_Base_Addr
 798 0984 210040B9 		ldr	w1, [x1, #:lo12:RPi_IO_Base_Addr]
 799 0988 23008052 		mov	w3, 1
 800 098c 42687ED3 		ubfiz	x2, x2, 2, 27
 801 0990 6020C01A 		lsl	w0, w3, w0
 802 0994 21004811 		add	w1, w1, 2097152
 803 0998 D3050034 		cbz	w19, .L184
 804 099c 42400091 		add	x2, x2, 16
 805 09a0 2100028B 		add	x1, x1, x2
 806 09a4 200C00B9 		str	w0, [x1, 12]
 807 09a8 E2FFFF17 		b	.L178
 808              		.p2align 2,,3
 809              	.L177:
 810 09ac E603132A 		mov	w6, w19
 811 09b0 04018052 		mov	w4, 8
 812 09b4 45108052 		mov	w5, 130
 813 09b8 E303042A 		mov	w3, w4
 814 09bc A1008052 		mov	w1, 5
 815 09c0 22089052 		mov	w2, 32833
 816 09c4 6200A072 		movk	w2, 0x3, lsl 16
 817 09c8 000080D2 		mov	x0, 0
 818 09cc C1FDFF97 		bl	mailbox_tag_message.constprop.0
 819 09d0 131C0012 		and	w19, w0, 255
 820 09d4 E003132A 		mov	w0, w19
 821 09d8 F37BC2A8 		ldp	x19, x30, [sp], 32
 822 09dc C0035FD6 		ret
 823              		.p2align 2,,3
 824              	.L185:
 825 09e0 012C00B9 		str	w1, [x0, 44]
 826 09e4 33008052 		mov	w19, 1
 827 09e8 E003132A 		mov	w0, w19
 828 09ec F37BC2A8 		ldp	x19, x30, [sp], 32
 829 09f0 C0035FD6 		ret
 830              		.p2align 2,,3
 831              	.L187:
AARCH64 GAS  C:\Users\RAFAEL~1.ROM\AppData\Local\Temp\ccH9DRWF.s 			page 16


 832 09f4 33008052 		mov	w19, 1
 833 09f8 CEFFFF17 		b	.L178
 834              		.p2align 2,,3
 835              	.L179:
 836 09fc 21008052 		mov	w1, 1
 837 0a00 83008052 		mov	w3, 4
 838 0a04 01000039 		strb	w1, [x0, #:lo12:.LANCHOR0]
 839 0a08 42008052 		mov	w2, 2
 840 0a0c 2200A072 		movk	w2, 0x1, lsl 16
 841 0a10 E103032A 		mov	w1, w3
 842 0a14 E0430091 		add	x0, sp, 16
 843 0a18 05008052 		mov	w5, 0
 844 0a1c 04008052 		mov	w4, 0
 845 0a20 00000094 		bl	mailbox_tag_message
 846 0a24 1F1C0072 		tst	w0, 255
 847 0a28 20FAFF54 		beq	.L189
 848 0a2c E01F40B9 		ldr	w0, [sp, 28]
 849 0a30 02000090 		adrp	x2, .LANCHOR1
 850 0a34 00080051 		sub	w0, w0, #2
 851 0a38 1F340071 		cmp	w0, 13
 852 0a3c 48010054 		bhi	.L182
 853 0a40 01028052 		mov	w1, 16
 854 0a44 E003012A 		mov	w0, w1
 855 0a48 410000B9 		str	w1, [x2, #:lo12:.LANCHOR1]
 856 0a4c CCFFFF17 		b	.L183
 857              		.p2align 2,,3
 858              	.L184:
 859 0a50 42800091 		add	x2, x2, 32
 860 0a54 F303032A 		mov	w19, w3
 861 0a58 2100028B 		add	x1, x1, x2
 862 0a5c 200800B9 		str	w0, [x1, 8]
 863 0a60 B4FFFF17 		b	.L178
 864              		.p2align 2,,3
 865              	.L182:
 866 0a64 E1058052 		mov	w1, 47
 867 0a68 E003012A 		mov	w0, w1
 868 0a6c 410000B9 		str	w1, [x2, #:lo12:.LANCHOR1]
 869 0a70 C3FFFF17 		b	.L183
 870              		.size	set_Activity_LED, .-set_Activity_LED
 871              		.align	2
 872 0a74 1F2003D5 		.p2align 4,,15
 872      1F2003D5 
 872      1F2003D5 
 873              		.global	ARM_setmaxspeed
 874              		.type	ARM_setmaxspeed, %function
 875              	ARM_setmaxspeed:
 876 0a80 FE0F1DF8 		str	x30, [sp, -48]!
 877 0a84 04018052 		mov	w4, 8
 878 0a88 82008052 		mov	w2, 4
 879 0a8c 6200A072 		movk	w2, 0x3, lsl 16
 880 0a90 E0630091 		add	x0, sp, 24
 881 0a94 E303042A 		mov	w3, w4
 882 0a98 06008052 		mov	w6, 0
 883 0a9c 65008052 		mov	w5, 3
 884 0aa0 A1008052 		mov	w1, 5
 885 0aa4 FFFF01A9 		stp	xzr, xzr, [sp, 24]
 886 0aa8 FF2B00B9 		str	wzr, [sp, 40]
AARCH64 GAS  C:\Users\RAFAEL~1.ROM\AppData\Local\Temp\ccH9DRWF.s 			page 17


 887 0aac 55FDFF97 		bl	mailbox_tag_message.constprop.1
 888 0ab0 1F1C0072 		tst	w0, 255
 889 0ab4 81000054 		bne	.L192
 890              	.L194:
 891 0ab8 00008052 		mov	w0, 0
 892 0abc FE0743F8 		ldr	x30, [sp], 48
 893 0ac0 C0035FD6 		ret
 894              		.p2align 2,,3
 895              	.L192:
 896 0ac4 E62B40B9 		ldr	w6, [sp, 40]
 897 0ac8 04018052 		mov	w4, 8
 898 0acc E0630091 		add	x0, sp, 24
 899 0ad0 E303042A 		mov	w3, w4
 900 0ad4 42009052 		mov	w2, 32770
 901 0ad8 6200A072 		movk	w2, 0x3, lsl 16
 902 0adc 65008052 		mov	w5, 3
 903 0ae0 A1008052 		mov	w1, 5
 904 0ae4 47FDFF97 		bl	mailbox_tag_message.constprop.1
 905 0ae8 1F1C0072 		tst	w0, 255
 906 0aec 60FEFF54 		beq	.L194
 907 0af0 E02B40B9 		ldr	w0, [sp, 40]
 908 0af4 FE0743F8 		ldr	x30, [sp], 48
 909 0af8 C0035FD6 		ret
 910              		.size	ARM_setmaxspeed, .-ARM_setmaxspeed
 911              		.section	.rodata.str1.8
 912 003d 000000   		.align	3
 913              	.LC4:
 914 0040 44657465 		.string	"Detected %s CPU, part id: 0x%03X, Cores made ready for use: %u\n"
 914      63746564 
 914      20257320 
 914      4350552C 
 914      20706172 
 915              		.text
 916              		.align	2
 917 0afc 1F2003D5 		.p2align 4,,15
 918              		.global	displaySmartStart
 919              		.type	displaySmartStart, %function
 920              	displaySmartStart:
 921 0b00 600300B4 		cbz	x0, .L199
 922 0b04 02000090 		adrp	x2, RPi_CpuId
 923 0b08 44004079 		ldrh	w4, [x2, #:lo12:RPi_CpuId]
 924 0b0c E103012A 		uxtw	x1, w1
 925 0b10 843C44D3 		ubfx	x4, x4, 4, 12
 926 0b14 9F1C3071 		cmp	w4, 3079
 927 0b18 C0020054 		beq	.L202
 928 0b1c 9F0C3471 		cmp	w4, 3331
 929 0b20 80010054 		beq	.L203
 930 0b24 03000090 		adrp	x3, .LC0
 931 0b28 62000091 		add	x2, x3, :lo12:.LC0
 932 0b2c 9FD82D71 		cmp	w4, 2934
 933 0b30 03000090 		adrp	x3, .LC3
 934 0b34 63000091 		add	x3, x3, :lo12:.LC3
 935 0b38 6300829A 		csel	x3, x3, x2, eq
 936 0b3c 02000090 		adrp	x2, RPi_CoresReady
 937 0b40 450040B9 		ldr	w5, [x2, #:lo12:RPi_CoresReady]
 938 0b44 02000090 		adrp	x2, .LC4
 939 0b48 42000091 		add	x2, x2, :lo12:.LC4
AARCH64 GAS  C:\Users\RAFAEL~1.ROM\AppData\Local\Temp\ccH9DRWF.s 			page 18


 940 0b4c 00000014 		b	snprintf
 941              		.p2align 2,,3
 942              	.L203:
 943 0b50 02000090 		adrp	x2, RPi_CoresReady
 944 0b54 450040B9 		ldr	w5, [x2, #:lo12:RPi_CoresReady]
 945 0b58 03000090 		adrp	x3, .LC1
 946 0b5c 63000091 		add	x3, x3, :lo12:.LC1
 947 0b60 02000090 		adrp	x2, .LC4
 948 0b64 42000091 		add	x2, x2, :lo12:.LC4
 949 0b68 00000014 		b	snprintf
 950              		.p2align 2,,3
 951              	.L199:
 952 0b6c C0035FD6 		ret
 953              		.p2align 2,,3
 954              	.L202:
 955 0b70 02000090 		adrp	x2, RPi_CoresReady
 956 0b74 450040B9 		ldr	w5, [x2, #:lo12:RPi_CoresReady]
 957 0b78 03000090 		adrp	x3, .LC2
 958 0b7c 63000091 		add	x3, x3, :lo12:.LC2
 959 0b80 02000090 		adrp	x2, .LC4
 960 0b84 42000091 		add	x2, x2, :lo12:.LC4
 961 0b88 00000014 		b	snprintf
 962              		.size	displaySmartStart, .-displaySmartStart
 963              		.global	console
 964              		.data
 965              		.align	2
 966              		.set	.LANCHOR1,. + 0
 967              		.type	ActivityGPIOPort, %object
 968              		.size	ActivityGPIOPort, 4
 969              	ActivityGPIOPort:
 970 0000 2F000000 		.word	47
 971              		.bss
 972              		.align	2
 973              		.set	.LANCHOR0,. + 0
 974              		.type	ModelCheckHasRun, %object
 975              		.size	ModelCheckHasRun, 1
 976              	ModelCheckHasRun:
 977 0000 00       		.zero	1
 978 0001 000000   		.zero	3
 979              		.type	console, %object
 980              		.size	console, 104
 981              	console:
 982 0004 00000000 		.zero	104
 982      00000000 
 982      00000000 
 982      00000000 
 982      00000000 
 983              		.ident	"GCC: (GNU Toolchain for the A-profile Architecture 9.2-2020.02 (arm-9.10)) 9.2.1 20191025"
AARCH64 GAS  C:\Users\RAFAEL~1.ROM\AppData\Local\Temp\ccH9DRWF.s 			page 19


DEFINED SYMBOLS
                            *ABS*:0000000000000000 rpi-SmartStart.c
C:\Users\RAFAEL~1.ROM\AppData\Local\Temp\ccH9DRWF.s:4      .text:0000000000000000 $x
C:\Users\RAFAEL~1.ROM\AppData\Local\Temp\ccH9DRWF.s:7      .text:0000000000000000 mailbox_tag_message.constprop.1
C:\Users\RAFAEL~1.ROM\AppData\Local\Temp\ccH9DRWF.s:69     .text:00000000000000d0 mailbox_tag_message.constprop.0
C:\Users\RAFAEL~1.ROM\AppData\Local\Temp\ccH9DRWF.s:117    .text:0000000000000170 memcpy
C:\Users\RAFAEL~1.ROM\AppData\Local\Temp\ccH9DRWF.s:135    .text:00000000000001a0 strlen
C:\Users\RAFAEL~1.ROM\AppData\Local\Temp\ccH9DRWF.s:151    .rodata.str1.8:0000000000000000 $d
C:\Users\RAFAEL~1.ROM\AppData\Local\Temp\ccH9DRWF.s:168    .text:00000000000001d0 RPi_CpuIdString
C:\Users\RAFAEL~1.ROM\AppData\Local\Temp\ccH9DRWF.s:198    .text:0000000000000220 gpio_setup
C:\Users\RAFAEL~1.ROM\AppData\Local\Temp\ccH9DRWF.s:232    .text:0000000000000290 gpio_output
C:\Users\RAFAEL~1.ROM\AppData\Local\Temp\ccH9DRWF.s:268    .text:0000000000000300 gpio_input
C:\Users\RAFAEL~1.ROM\AppData\Local\Temp\ccH9DRWF.s:292    .text:0000000000000340 gpio_checkEvent
C:\Users\RAFAEL~1.ROM\AppData\Local\Temp\ccH9DRWF.s:315    .text:0000000000000380 gpio_clearEvent
C:\Users\RAFAEL~1.ROM\AppData\Local\Temp\ccH9DRWF.s:337    .text:00000000000003c0 gpio_edgeDetect
C:\Users\RAFAEL~1.ROM\AppData\Local\Temp\ccH9DRWF.s:386    .text:0000000000000450 gpio_fixResistor
C:\Users\RAFAEL~1.ROM\AppData\Local\Temp\ccH9DRWF.s:455    .text:0000000000000530 timer_getTickCount
C:\Users\RAFAEL~1.ROM\AppData\Local\Temp\ccH9DRWF.s:474    .text:0000000000000560 timer_wait
C:\Users\RAFAEL~1.ROM\AppData\Local\Temp\ccH9DRWF.s:505    .text:00000000000005c0 tick_difference
C:\Users\RAFAEL~1.ROM\AppData\Local\Temp\ccH9DRWF.s:513    .text:00000000000005d0 mailbox_write
C:\Users\RAFAEL~1.ROM\AppData\Local\Temp\ccH9DRWF.s:538    .text:0000000000000610 mailbox_read
C:\Users\RAFAEL~1.ROM\AppData\Local\Temp\ccH9DRWF.s:564    .text:0000000000000660 mailbox_tag_message
C:\Users\RAFAEL~1.ROM\AppData\Local\Temp\ccH9DRWF.s:689    .text:0000000000000800 TimerIrqSetup
C:\Users\RAFAEL~1.ROM\AppData\Local\Temp\ccH9DRWF.s:757    .text:0000000000000900 set_Activity_LED
C:\Users\RAFAEL~1.ROM\AppData\Local\Temp\ccH9DRWF.s:875    .text:0000000000000a80 ARM_setmaxspeed
C:\Users\RAFAEL~1.ROM\AppData\Local\Temp\ccH9DRWF.s:920    .text:0000000000000b00 displaySmartStart
C:\Users\RAFAEL~1.ROM\AppData\Local\Temp\ccH9DRWF.s:981    .bss:0000000000000004 console
C:\Users\RAFAEL~1.ROM\AppData\Local\Temp\ccH9DRWF.s:965    .data:0000000000000000 $d
C:\Users\RAFAEL~1.ROM\AppData\Local\Temp\ccH9DRWF.s:969    .data:0000000000000000 ActivityGPIOPort
C:\Users\RAFAEL~1.ROM\AppData\Local\Temp\ccH9DRWF.s:972    .bss:0000000000000000 $d
C:\Users\RAFAEL~1.ROM\AppData\Local\Temp\ccH9DRWF.s:976    .bss:0000000000000000 ModelCheckHasRun

UNDEFINED SYMBOLS
ARMaddrToGPUaddr
RPi_IO_Base_Addr
RPi_CpuId
setTimerIrqAddress
RPi_CoresReady
snprintf
AARCH64 GAS  C:\Users\RAFAEL~1.ROM\AppData\Local\Temp\ccH9DRWF.s 			page 1


   1              		.arch armv8-a
   2              		.file	"delays.c"
   3              		.text
   4              		.align	2
   5              		.p2align 4,,15
   6              		.global	delays_wait_cycles
   7              		.type	delays_wait_cycles, %function
   8              	delays_wait_cycles:
   9 0000 C0000034 		cbz	w0, .L1
  10 0004 00040051 		sub	w0, w0, #1
  11              		.p2align 3,,7
  12              	.L3:
  13              		// Start of user assembly
  14              	// 57 "src/drivers/delays/delays.c" 1
  15 0008 1F2003D5 		nop
  16              	// 0 "" 2
  17              		// End of user assembly
  18 000c 00040051 		sub	w0, w0, #1
  19 0010 1F040031 		cmn	w0, #1
  20 0014 A1FFFF54 		bne	.L3
  21              	.L1:
  22 0018 C0035FD6 		ret
  23              		.size	delays_wait_cycles, .-delays_wait_cycles
  24              		.align	2
  25 001c 1F2003D5 		.p2align 4,,15
  26              		.global	delays_wait_microsecs
  27              		.type	delays_wait_microsecs, %function
  28              	delays_wait_microsecs:
  29              		// Start of user assembly
  30              	// 67 "src/drivers/delays/delays.c" 1
  31 0020 01E03BD5 		mrs x1, cntfrq_el0
  32              	// 0 "" 2
  33              	// 69 "src/drivers/delays/delays.c" 1
  34 0024 24E03BD5 		mrs x4, cntpct_el0
  35              	// 0 "" 2
  36              		// End of user assembly
  37 0028 E3F99ED2 		mov	x3, 63439
  38 002c 636ABCF2 		movk	x3, 0xe353, lsl 16
  39 0030 21FC43D3 		lsr	x1, x1, 3
  40 0034 A374D3F2 		movk	x3, 0x9ba5, lsl 32
  41 0038 8318E4F2 		movk	x3, 0x20c4, lsl 48
  42 003c E203002A 		uxtw	x2, w0
  43 0040 207CC39B 		umulh	x0, x1, x3
  44 0044 00FC44D3 		lsr	x0, x0, 4
  45 0048 007C029B 		mul	x0, x0, x2
  46 004c 00FC43D3 		lsr	x0, x0, 3
  47 0050 007CC39B 		umulh	x0, x0, x3
  48 0054 8010408B 		add	x0, x4, x0, lsr 4
  49              		.p2align 3,,7
  50              	.L10:
  51              		// Start of user assembly
  52              	// 72 "src/drivers/delays/delays.c" 1
  53 0058 21E03BD5 		mrs x1, cntpct_el0
  54              	// 0 "" 2
  55              		// End of user assembly
  56 005c 1F0001EB 		cmp	x0, x1
  57 0060 C8FFFF54 		bhi	.L10
AARCH64 GAS  C:\Users\RAFAEL~1.ROM\AppData\Local\Temp\ccH9DRWF.s 			page 2


  58 0064 C0035FD6 		ret
  59              		.size	delays_wait_microsecs, .-delays_wait_microsecs
  60              		.align	2
  61 0068 1F2003D5 		.p2align 4,,15
  61      1F2003D5 
  62              		.global	get_system_timer
  63              		.type	get_system_timer, %function
  64              	get_system_timer:
  65 0070 020186D2 		mov	x2, 12296
  66 0074 02E0A7F2 		movk	x2, 0x3f00, lsl 16
  67 0078 830086D2 		mov	x3, 12292
  68 007c 03E0A7F2 		movk	x3, 0x3f00, lsl 16
  69 0080 400040B9 		ldr	w0, [x2]
  70 0084 610040B9 		ldr	w1, [x3]
  71 0088 440040B9 		ldr	w4, [x2]
  72 008c 9F00006B 		cmp	w4, w0
  73 0090 60000054 		beq	.L13
  74 0094 400040B9 		ldr	w0, [x2]
  75 0098 610040B9 		ldr	w1, [x3]
  76              	.L13:
  77 009c E103012A 		uxtw	x1, w1
  78 00a0 208000AA 		orr	x0, x1, x0, lsl 32
  79 00a4 C0035FD6 		ret
  80              		.size	get_system_timer, .-get_system_timer
  81              		.align	2
  82 00a8 1F2003D5 		.p2align 4,,15
  82      1F2003D5 
  83              		.global	delays_wait_msec_st
  84              		.type	delays_wait_msec_st, %function
  85              	delays_wait_msec_st:
  86 00b0 020186D2 		mov	x2, 12296
  87 00b4 02E0A7F2 		movk	x2, 0x3f00, lsl 16
  88 00b8 830086D2 		mov	x3, 12292
  89 00bc 03E0A7F2 		movk	x3, 0x3f00, lsl 16
  90 00c0 450040B9 		ldr	w5, [x2]
  91 00c4 610040B9 		ldr	w1, [x3]
  92 00c8 440040B9 		ldr	w4, [x2]
  93 00cc BF00046B 		cmp	w5, w4
  94 00d0 60000054 		beq	.L15
  95 00d4 440040B9 		ldr	w4, [x2]
  96 00d8 610040B9 		ldr	w1, [x3]
  97              	.L15:
  98 00dc E103012A 		uxtw	x1, w1
  99 00e0 248004AA 		orr	x4, x1, x4, lsl 32
 100 00e4 440200B4 		cbz	x4, .L14
 101 00e8 8440208B 		add	x4, x4, x0, uxtw
 102 00ec 010186D2 		mov	x1, 12296
 103 00f0 01E0A7F2 		movk	x1, 0x3f00, lsl 16
 104 00f4 850086D2 		mov	x5, 12292
 105 00f8 05E0A7F2 		movk	x5, 0x3f00, lsl 16
 106 00fc 1F2003D5 		.p2align 3,,7
 107              	.L21:
 108 0100 200040B9 		ldr	w0, [x1]
 109 0104 A20040B9 		ldr	w2, [x5]
 110 0108 230040B9 		ldr	w3, [x1]
 111 010c 1F00036B 		cmp	w0, w3
 112 0110 00010054 		beq	.L17
AARCH64 GAS  C:\Users\RAFAEL~1.ROM\AppData\Local\Temp\ccH9DRWF.s 			page 3


 113 0114 200040B9 		ldr	w0, [x1]
 114 0118 A20040B9 		ldr	w2, [x5]
 115 011c E203022A 		uxtw	x2, w2
 116 0120 408000AA 		orr	x0, x2, x0, lsl 32
 117 0124 1F0004EB 		cmp	x0, x4
 118 0128 C3FEFF54 		bcc	.L21
 119              	.L14:
 120 012c C0035FD6 		ret
 121              		.p2align 2,,3
 122              	.L17:
 123 0130 E203022A 		uxtw	x2, w2
 124 0134 408000AA 		orr	x0, x2, x0, lsl 32
 125 0138 1F0004EB 		cmp	x0, x4
 126 013c 23FEFF54 		bcc	.L21
 127 0140 C0035FD6 		ret
 128              		.size	delays_wait_msec_st, .-delays_wait_msec_st
 129              		.ident	"GCC: (GNU Toolchain for the A-profile Architecture 9.2-2020.02 (arm-9.10)) 9.2.1 20191025"
AARCH64 GAS  C:\Users\RAFAEL~1.ROM\AppData\Local\Temp\ccH9DRWF.s 			page 4


DEFINED SYMBOLS
                            *ABS*:0000000000000000 delays.c
C:\Users\RAFAEL~1.ROM\AppData\Local\Temp\ccH9DRWF.s:4      .text:0000000000000000 $x
C:\Users\RAFAEL~1.ROM\AppData\Local\Temp\ccH9DRWF.s:8      .text:0000000000000000 delays_wait_cycles
C:\Users\RAFAEL~1.ROM\AppData\Local\Temp\ccH9DRWF.s:28     .text:0000000000000020 delays_wait_microsecs
C:\Users\RAFAEL~1.ROM\AppData\Local\Temp\ccH9DRWF.s:64     .text:0000000000000070 get_system_timer
C:\Users\RAFAEL~1.ROM\AppData\Local\Temp\ccH9DRWF.s:85     .text:00000000000000b0 delays_wait_msec_st

NO UNDEFINED SYMBOLS
AARCH64 GAS  C:\Users\RAFAEL~1.ROM\AppData\Local\Temp\ccH9DRWF.s 			page 1


   1              		.arch armv8-a
   2              		.file	"fb.c"
   3              		.text
   4              		.align	2
   5              		.p2align 4,,15
   6              		.global	fb_init
   7              		.type	fb_init, %function
   8              	fb_init:
   9 0000 F37BBFA9 		stp	x19, x30, [sp, -16]!
  10 0004 00000090 		adrp	x0, mbox
  11 0008 13000091 		add	x19, x0, :lo12:mbox
  12 000c 81118052 		mov	w1, 140
  13 0010 010000B9 		str	w1, [x0, #:lo12:mbox]
  14 0014 62009052 		mov	w2, 32771
  15 0018 8200A072 		movk	w2, 0x4, lsl 16
  16 001c 7F0600B9 		str	wzr, [x19, 4]
  17 0020 01018052 		mov	w1, 8
  18 0024 620A00B9 		str	w2, [x19, 8]
  19 0028 03A08052 		mov	w3, 1280
  20 002c 610E00B9 		str	w1, [x19, 12]
  21 0030 00608052 		mov	w0, 768
  22 0034 611200B9 		str	w1, [x19, 16]
  23 0038 84009052 		mov	w4, 32772
  24 003c 8400A072 		movk	w4, 0x4, lsl 16
  25 0040 631600B9 		str	w3, [x19, 20]
  26 0044 601A00B9 		str	w0, [x19, 24]
  27 0048 2A019052 		mov	w10, 32777
  28 004c 8A00A072 		movk	w10, 0x4, lsl 16
  29 0050 641E00B9 		str	w4, [x19, 28]
  30 0054 612200B9 		str	w1, [x19, 32]
  31 0058 A9009052 		mov	w9, 32773
  32 005c 8900A072 		movk	w9, 0x4, lsl 16
  33 0060 612600B9 		str	w1, [x19, 36]
  34 0064 632A00B9 		str	w3, [x19, 40]
  35 0068 82008052 		mov	w2, 4
  36 006c 602E00B9 		str	w0, [x19, 44]
  37 0070 08048052 		mov	w8, 32
  38 0074 6A3200B9 		str	w10, [x19, 48]
  39 0078 C7009052 		mov	w7, 32774
  40 007c 8700A072 		movk	w7, 0x4, lsl 16
  41 0080 613600B9 		str	w1, [x19, 52]
  42 0084 613A00B9 		str	w1, [x19, 56]
  43 0088 26008052 		mov	w6, 1
  44 008c 7F3E00B9 		str	wzr, [x19, 60]
  45 0090 25008052 		mov	w5, 1
  46 0094 8500A072 		movk	w5, 0x4, lsl 16
  47 0098 7F4200B9 		str	wzr, [x19, 64]
  48 009c 694600B9 		str	w9, [x19, 68]
  49 00a0 04008252 		mov	w4, 4096
  50 00a4 624A00B9 		str	w2, [x19, 72]
  51 00a8 03018052 		mov	w3, 8
  52 00ac 8300A072 		movk	w3, 0x4, lsl 16
  53 00b0 624E00B9 		str	w2, [x19, 76]
  54 00b4 685200B9 		str	w8, [x19, 80]
  55 00b8 E003012A 		mov	w0, w1
  56 00bc 675600B9 		str	w7, [x19, 84]
  57 00c0 625A00B9 		str	w2, [x19, 88]
AARCH64 GAS  C:\Users\RAFAEL~1.ROM\AppData\Local\Temp\ccH9DRWF.s 			page 2


  58 00c4 625E00B9 		str	w2, [x19, 92]
  59 00c8 666200B9 		str	w6, [x19, 96]
  60 00cc 656600B9 		str	w5, [x19, 100]
  61 00d0 616A00B9 		str	w1, [x19, 104]
  62 00d4 616E00B9 		str	w1, [x19, 108]
  63 00d8 647200B9 		str	w4, [x19, 112]
  64 00dc 7F7600B9 		str	wzr, [x19, 116]
  65 00e0 637A00B9 		str	w3, [x19, 120]
  66 00e4 627E00B9 		str	w2, [x19, 124]
  67 00e8 628200B9 		str	w2, [x19, 128]
  68 00ec 7F8600B9 		str	wzr, [x19, 132]
  69 00f0 7F8A00B9 		str	wzr, [x19, 136]
  70 00f4 00000094 		bl	mbox_call
  71 00f8 20020034 		cbz	w0, .L3
  72 00fc 615240B9 		ldr	w1, [x19, 80]
  73 0100 000080D2 		mov	x0, 0
  74 0104 3F800071 		cmp	w1, 32
  75 0108 61010054 		bne	.L1
  76 010c 617240B9 		ldr	w1, [x19, 112]
  77 0110 21010034 		cbz	w1, .L1
  78 0114 607240B9 		ldr	w0, [x19, 112]
  79 0118 00740012 		and	w0, w0, 1073741823
  80 011c 607200B9 		str	w0, [x19, 112]
  81 0120 601640B9 		ldr	w0, [x19, 20]
  82 0124 601A40B9 		ldr	w0, [x19, 24]
  83 0128 608640B9 		ldr	w0, [x19, 132]
  84 012c 607240B9 		ldr	w0, [x19, 112]
  85 0130 E003002A 		uxtw	x0, w0
  86              	.L1:
  87 0134 F37BC1A8 		ldp	x19, x30, [sp], 16
  88 0138 C0035FD6 		ret
  89              		.p2align 2,,3
  90              	.L3:
  91 013c 000080D2 		mov	x0, 0
  92 0140 F37BC1A8 		ldp	x19, x30, [sp], 16
  93 0144 C0035FD6 		ret
  94              		.size	fb_init, .-fb_init
  95              		.ident	"GCC: (GNU Toolchain for the A-profile Architecture 9.2-2020.02 (arm-9.10)) 9.2.1 20191025"
AARCH64 GAS  C:\Users\RAFAEL~1.ROM\AppData\Local\Temp\ccH9DRWF.s 			page 3


DEFINED SYMBOLS
                            *ABS*:0000000000000000 fb.c
C:\Users\RAFAEL~1.ROM\AppData\Local\Temp\ccH9DRWF.s:4      .text:0000000000000000 $x
C:\Users\RAFAEL~1.ROM\AppData\Local\Temp\ccH9DRWF.s:8      .text:0000000000000000 fb_init

UNDEFINED SYMBOLS
mbox
mbox_call
AARCH64 GAS  C:\Users\RAFAEL~1.ROM\AppData\Local\Temp\ccH9DRWF.s 			page 1


   1              		.arch armv8-a
   2              		.file	"mbox.c"
   3              		.text
   4              		.align	2
   5              		.p2align 4,,15
   6              		.global	mbox_call
   7              		.type	mbox_call, %function
   8              	mbox_call:
   9 0000 000C0012 		and	w0, w0, 15
  10 0004 04000090 		adrp	x4, mbox
  11 0008 84000091 		add	x4, x4, :lo12:mbox
  12 000c 011397D2 		mov	x1, 47256
  13 0010 01E0A7F2 		movk	x1, 0x3f00, lsl 16
  14 0014 0200042A 		orr	w2, w0, w4
  15              		.p2align 3,,7
  16              	.L2:
  17              		// Start of user assembly
  18              	// 70 "src/drivers/mbox/mbox.c" 1
  19 0018 1F2003D5 		nop
  20              	// 0 "" 2
  21              		// End of user assembly
  22 001c 200040B9 		ldr	w0, [x1]
  23 0020 C0FFFF37 		tbnz	w0, #31, .L2
  24 0024 001497D2 		mov	x0, 47264
  25 0028 00E0A7F2 		movk	x0, 0x3f00, lsl 16
  26 002c 011397D2 		mov	x1, 47256
  27 0030 01E0A7F2 		movk	x1, 0x3f00, lsl 16
  28 0034 031097D2 		mov	x3, 47232
  29 0038 03E0A7F2 		movk	x3, 0x3f00, lsl 16
  30 003c 020000B9 		str	w2, [x0]
  31              		.p2align 3,,7
  32              	.L5:
  33              		// Start of user assembly
  34              	// 76 "src/drivers/mbox/mbox.c" 1
  35 0040 1F2003D5 		nop
  36              	// 0 "" 2
  37              		// End of user assembly
  38 0044 200040B9 		ldr	w0, [x1]
  39 0048 C0FFF737 		tbnz	x0, 30, .L5
  40 004c 600040B9 		ldr	w0, [x3]
  41 0050 1F00026B 		cmp	w0, w2
  42 0054 61FFFF54 		bne	.L5
  43 0058 810440B9 		ldr	w1, [x4, 4]
  44 005c 0000B052 		mov	w0, -2147483648
  45 0060 3F00006B 		cmp	w1, w0
  46 0064 E0179F1A 		cset	w0, eq
  47 0068 C0035FD6 		ret
  48              		.size	mbox_call, .-mbox_call
  49              		.comm	mbox,144,16
  50              		.ident	"GCC: (GNU Toolchain for the A-profile Architecture 9.2-2020.02 (arm-9.10)) 9.2.1 20191025"
AARCH64 GAS  C:\Users\RAFAEL~1.ROM\AppData\Local\Temp\ccH9DRWF.s 			page 2


DEFINED SYMBOLS
                            *ABS*:0000000000000000 mbox.c
C:\Users\RAFAEL~1.ROM\AppData\Local\Temp\ccH9DRWF.s:4      .text:0000000000000000 $x
C:\Users\RAFAEL~1.ROM\AppData\Local\Temp\ccH9DRWF.s:8      .text:0000000000000000 mbox_call
                            *COM*:0000000000000090 mbox

NO UNDEFINED SYMBOLS
AARCH64 GAS  C:\Users\RAFAEL~1.ROM\AppData\Local\Temp\ccH9DRWF.s 			page 1


   1              		.arch armv8-a
   2              		.file	"sd.c"
   3              		.text
   4              		.align	2
   5              		.p2align 4,,15
   6              		.global	sd_status
   7              		.type	sd_status, %function
   8              	sd_status:
   9 0000 F353BDA9 		stp	x19, x20, [sp, -48]!
  10 0004 F403002A 		mov	w20, w0
  11 0008 13488852 		mov	w19, 16960
  12 000c F301A072 		movk	w19, 0xf, lsl 16
  13 0010 F55B01A9 		stp	x21, x22, [sp, 16]
  14 0014 950480D2 		mov	x21, 36
  15 0018 15E6A7F2 		movk	x21, 0x3f30, lsl 16
  16 001c A00240B9 		ldr	w0, [x21]
  17 0020 FE1700F9 		str	x30, [sp, 40]
  18 0024 9F02006A 		tst	w20, w0
  19 0028 80020054 		beq	.L3
  20 002c 16009052 		mov	w22, 32768
  21 0030 D62FA072 		movk	w22, 0x17e, lsl 16
  22 0034 F71300F9 		str	x23, [sp, 32]
  23 0038 170680D2 		mov	x23, 48
  24 003c 17E6A7F2 		movk	x23, 0x3f30, lsl 16
  25 0040 08000014 		b	.L2
  26              		.p2align 2,,3
  27              	.L20:
  28 0044 73060051 		sub	w19, w19, #1
  29 0048 7F060031 		cmn	w19, #1
  30 004c E0020054 		beq	.L18
  31 0050 00000094 		bl	delays_wait_microsecs
  32 0054 A10240B9 		ldr	w1, [x21]
  33 0058 3F00146A 		tst	w1, w20
  34 005c A0000054 		beq	.L4
  35              	.L2:
  36 0060 E10240B9 		ldr	w1, [x23]
  37 0064 20008052 		mov	w0, 1
  38 0068 3F00166A 		tst	w1, w22
  39 006c C0FEFF54 		beq	.L20
  40              	.L4:
  41 0070 D3010034 		cbz	w19, .L18
  42 0074 F71340F9 		ldr	x23, [sp, 32]
  43              	.L3:
  44 0078 010680D2 		mov	x1, 48
  45 007c 01E6A7F2 		movk	x1, 0x3f30, lsl 16
  46 0080 00009052 		mov	w0, 32768
  47 0084 C02FA072 		movk	w0, 0x17e, lsl 16
  48 0088 210040B9 		ldr	w1, [x1]
  49 008c 3F00006A 		tst	w1, w0
  50 0090 E1000054 		bne	.L7
  51 0094 00008052 		mov	w0, 0
  52 0098 F55B41A9 		ldp	x21, x22, [sp, 16]
  53 009c FE1740F9 		ldr	x30, [sp, 40]
  54 00a0 F353C3A8 		ldp	x19, x20, [sp], 48
  55 00a4 C0035FD6 		ret
  56              	.L18:
  57 00a8 F71340F9 		ldr	x23, [sp, 32]
AARCH64 GAS  C:\Users\RAFAEL~1.ROM\AppData\Local\Temp\ccH9DRWF.s 			page 2


  58              	.L7:
  59 00ac 20008012 		mov	w0, -2
  60 00b0 F55B41A9 		ldp	x21, x22, [sp, 16]
  61 00b4 FE1740F9 		ldr	x30, [sp, 40]
  62 00b8 F353C3A8 		ldp	x19, x20, [sp], 48
  63 00bc C0035FD6 		ret
  64              		.size	sd_status, .-sd_status
  65              		.align	2
  66              		.p2align 4,,15
  67              		.global	sd_int
  68              		.type	sd_int, %function
  69              	sd_int:
  70 00c0 F353BDA9 		stp	x19, x20, [sp, -48]!
  71 00c4 140680D2 		mov	x20, 48
  72 00c8 14E6A7F2 		movk	x20, 0x3f30, lsl 16
  73 00cc F55B01A9 		stp	x21, x22, [sp, 16]
  74 00d0 F603002A 		mov	w22, w0
  75 00d4 15009052 		mov	w21, 32768
  76 00d8 D52FA072 		movk	w21, 0x17e, lsl 16
  77 00dc 1500152A 		orr	w21, w0, w21
  78 00e0 800240B9 		ldr	w0, [x20]
  79 00e4 FE1300F9 		str	x30, [sp, 32]
  80 00e8 BF02006A 		tst	w21, w0
  81 00ec A1030054 		bne	.L22
  82 00f0 F3478852 		mov	w19, 16959
  83 00f4 F301A072 		movk	w19, 0xf, lsl 16
  84 00f8 04000014 		b	.L24
  85              		.p2align 2,,3
  86              	.L38:
  87 00fc 73060051 		sub	w19, w19, #1
  88 0100 7F060031 		cmn	w19, #1
  89 0104 20030054 		beq	.L37
  90              	.L24:
  91 0108 20008052 		mov	w0, 1
  92 010c 00000094 		bl	delays_wait_microsecs
  93 0110 810240B9 		ldr	w1, [x20]
  94 0114 3F00156A 		tst	w1, w21
  95 0118 20FFFF54 		beq	.L38
  96 011c 810240B9 		ldr	w1, [x20]
  97 0120 73020034 		cbz	w19, .L27
  98              	.L26:
  99 0124 2002A052 		mov	w0, 1114112
 100 0128 3F00006A 		tst	w1, w0
 101 012c 01020054 		bne	.L27
 102 0130 00009052 		mov	w0, 32768
 103 0134 C02FA072 		movk	w0, 0x17e, lsl 16
 104 0138 3F00006A 		tst	w1, w0
 105 013c 21020054 		bne	.L39
 106 0140 010680D2 		mov	x1, 48
 107 0144 01E6A7F2 		movk	x1, 0x3f30, lsl 16
 108 0148 00008052 		mov	w0, 0
 109 014c 360000B9 		str	w22, [x1]
 110              	.L21:
 111 0150 F55B41A9 		ldp	x21, x22, [sp, 16]
 112 0154 FE1340F9 		ldr	x30, [sp, 32]
 113 0158 F353C3A8 		ldp	x19, x20, [sp], 48
 114 015c C0035FD6 		ret
AARCH64 GAS  C:\Users\RAFAEL~1.ROM\AppData\Local\Temp\ccH9DRWF.s 			page 3


 115              	.L22:
 116 0160 810240B9 		ldr	w1, [x20]
 117 0164 F0FFFF17 		b	.L26
 118              	.L37:
 119 0168 810240B9 		ldr	w1, [x20]
 120              	.L27:
 121 016c 020680D2 		mov	x2, 48
 122 0170 02E6A7F2 		movk	x2, 0x3f30, lsl 16
 123 0174 00008012 		mov	w0, -1
 124 0178 410000B9 		str	w1, [x2]
 125 017c F5FFFF17 		b	.L21
 126              	.L39:
 127 0180 020680D2 		mov	x2, 48
 128 0184 02E6A7F2 		movk	x2, 0x3f30, lsl 16
 129 0188 20008012 		mov	w0, -2
 130 018c 410000B9 		str	w1, [x2]
 131 0190 F0FFFF17 		b	.L21
 132              		.size	sd_int, .-sd_int
 133              		.section	.rodata.str1.8,"aMS",@progbits,1
 134              		.align	3
 135              	.LC0:
 136 0000 4552524F 		.string	"ERROR: failed to send SD APP command\n"
 136      523A2066 
 136      61696C65 
 136      6420746F 
 136      2073656E 
 137 0026 0000     		.align	3
 138              	.LC1:
 139 0028 454D4D43 		.string	"EMMC: Sending command "
 139      3A205365 
 139      6E64696E 
 139      6720636F 
 139      6D6D616E 
 140 003f 00       		.align	3
 141              	.LC2:
 142 0040 256400   		.string	"%d"
 143 0043 00000000 		.align	3
 143      00
 144              	.LC3:
 145 0048 20617267 		.string	" arg "
 145      2000
 146 004e 0000     		.align	3
 147              	.LC4:
 148 0050 0A00     		.string	"\n"
 149 0052 00000000 		.align	3
 149      0000
 150              	.LC5:
 151 0058 4552524F 		.string	"ERROR: EMMC busy\n"
 151      523A2045 
 151      4D4D4320 
 151      62757379 
 151      0A00
 152 006a 00000000 		.align	3
 152      0000
 153              	.LC6:
 154 0070 4552524F 		.string	"ERROR: failed to send EMMC command\n"
 154      523A2066 
AARCH64 GAS  C:\Users\RAFAEL~1.ROM\AppData\Local\Temp\ccH9DRWF.s 			page 4


 154      61696C65 
 154      6420746F 
 154      2073656E 
 155              		.text
 156              		.align	2
 157 0194 1F2003D5 		.p2align 4,,15
 157      1F2003D5 
 157      1F2003D5 
 158              		.global	sd_cmd
 159              		.type	sd_cmd, %function
 160              	sd_cmd:
 161 01a0 F353BBA9 		stp	x19, x20, [sp, -80]!
 162 01a4 F303002A 		mov	w19, w0
 163 01a8 F403012A 		mov	w20, w1
 164 01ac F76302A9 		stp	x23, x24, [sp, 32]
 165 01b0 17000090 		adrp	x23, sd_err
 166 01b4 FF0200F9 		str	xzr, [x23, #:lo12:sd_err]
 167 01b8 F55B01A9 		stp	x21, x22, [sp, 16]
 168 01bc FE2300F9 		str	x30, [sp, 64]
 169 01c0 A001F836 		tbz	w0, #31, .L41
 170 01c4 15000090 		adrp	x21, sd_rca
 171 01c8 A10240F9 		ldr	x1, [x21, #:lo12:sd_rca]
 172 01cc 42E0A652 		mov	w2, 922877952
 173 01d0 00E0A652 		mov	w0, 922746880
 174 01d4 737A0012 		and	w19, w19, 2147483647
 175 01d8 3F0000F1 		cmp	x1, 0
 176 01dc 4010801A 		csel	w0, w2, w0, ne
 177 01e0 00000094 		bl	sd_cmd
 178 01e4 A10240F9 		ldr	x1, [x21, #:lo12:sd_rca]
 179 01e8 3F0000F1 		cmp	x1, 0
 180 01ec 0018407A 		ccmp	w0, 0, 0, ne
 181 01f0 20120054 		beq	.L96
 182              	.L41:
 183 01f4 800480D2 		mov	x0, 36
 184 01f8 00E6A7F2 		movk	x0, 0x3f30, lsl 16
 185 01fc F96B03A9 		stp	x25, x26, [sp, 48]
 186 0200 15488852 		mov	w21, 16960
 187 0204 F501A072 		movk	w21, 0xf, lsl 16
 188 0208 010040B9 		ldr	w1, [x0]
 189 020c 41020036 		tbz	x1, 0, .L50
 190 0210 190680D2 		mov	x25, 48
 191 0214 19E6A7F2 		movk	x25, 0x3f30, lsl 16
 192 0218 18009052 		mov	w24, 32768
 193 021c D82FA072 		movk	w24, 0x17e, lsl 16
 194 0220 F60300AA 		mov	x22, x0
 195 0224 07000014 		b	.L45
 196              		.p2align 2,,3
 197              	.L97:
 198 0228 B5060051 		sub	w21, w21, #1
 199 022c BF060031 		cmn	w21, #1
 200 0230 400E0054 		beq	.L46
 201 0234 00000094 		bl	delays_wait_microsecs
 202 0238 C00240B9 		ldr	w0, [x22]
 203 023c A0000036 		tbz	x0, 0, .L48
 204              	.L45:
 205 0240 210340B9 		ldr	w1, [x25]
 206 0244 20008052 		mov	w0, 1
AARCH64 GAS  C:\Users\RAFAEL~1.ROM\AppData\Local\Temp\ccH9DRWF.s 			page 5


 207 0248 3F00186A 		tst	w1, w24
 208 024c E0FEFF54 		beq	.L97
 209              	.L48:
 210 0250 550D0034 		cbz	w21, .L46
 211              	.L50:
 212 0254 160680D2 		mov	x22, 48
 213 0258 16E6A7F2 		movk	x22, 0x3f30, lsl 16
 214 025c 00009052 		mov	w0, 32768
 215 0260 C02FA072 		movk	w0, 0x17e, lsl 16
 216 0264 C10240B9 		ldr	w1, [x22]
 217 0268 3F00006A 		tst	w1, w0
 218 026c 610C0054 		bne	.L46
 219 0270 00000090 		adrp	x0, .LC1
 220 0274 00000091 		add	x0, x0, :lo12:.LC1
 221 0278 00000094 		bl	kprintf_debug
 222 027c 15000090 		adrp	x21, .LC2
 223 0280 B5020091 		add	x21, x21, :lo12:.LC2
 224 0284 E103132A 		mov	w1, w19
 225 0288 E00315AA 		mov	x0, x21
 226 028c 00000094 		bl	kprintf_debug
 227 0290 00000090 		adrp	x0, .LC3
 228 0294 00000091 		add	x0, x0, :lo12:.LC3
 229 0298 00000094 		bl	kprintf_debug
 230 029c E103142A 		mov	w1, w20
 231 02a0 E00315AA 		mov	x0, x21
 232 02a4 00000094 		bl	kprintf_debug
 233 02a8 00000090 		adrp	x0, .LC4
 234 02ac 00000091 		add	x0, x0, :lo12:.LC4
 235 02b0 00000094 		bl	kprintf_debug
 236 02b4 C10240B9 		ldr	w1, [x22]
 237 02b8 020180D2 		mov	x2, 8
 238 02bc 02E6A7F2 		movk	x2, 0x3f30, lsl 16
 239 02c0 800180D2 		mov	x0, 12
 240 02c4 00E6A7F2 		movk	x0, 0x3f30, lsl 16
 241 02c8 C10200B9 		str	w1, [x22]
 242 02cc 540000B9 		str	w20, [x2]
 243 02d0 01E0A652 		mov	w1, 922746880
 244 02d4 7F02016B 		cmp	w19, w1
 245 02d8 130000B9 		str	w19, [x0]
 246 02dc F8179F1A 		cset	w24, eq
 247 02e0 4000A152 		mov	w0, 134348800
 248 02e4 7F02006B 		cmp	w19, w0
 249 02e8 19179F1A 		csinc	w25, w24, wzr, ne
 250 02ec F9090035 		cbnz	w25, .L51
 251              	.L95:
 252 02f0 C10240B9 		ldr	w1, [x22]
 253 02f4 20009052 		mov	w0, 32769
 254 02f8 C02FA072 		movk	w0, 0x17e, lsl 16
 255 02fc 3F00006A 		tst	w1, w0
 256 0300 210B0054 		bne	.L98
 257 0304 F5478852 		mov	w21, 16959
 258 0308 F501A072 		movk	w21, 0xf, lsl 16
 259 030c 160680D2 		mov	x22, 48
 260 0310 16E6A7F2 		movk	x22, 0x3f30, lsl 16
 261 0314 3A009052 		mov	w26, 32769
 262 0318 DA2FA072 		movk	w26, 0x17e, lsl 16
 263 031c 04000014 		b	.L55
AARCH64 GAS  C:\Users\RAFAEL~1.ROM\AppData\Local\Temp\ccH9DRWF.s 			page 6


 264              		.p2align 2,,3
 265              	.L100:
 266 0320 B5060051 		sub	w21, w21, #1
 267 0324 BF060031 		cmn	w21, #1
 268 0328 800D0054 		beq	.L99
 269              	.L55:
 270 032c 20008052 		mov	w0, 1
 271 0330 00000094 		bl	delays_wait_microsecs
 272 0334 C00240B9 		ldr	w0, [x22]
 273 0338 1F001A6A 		tst	w0, w26
 274 033c 20FFFF54 		beq	.L100
 275 0340 C00240B9 		ldr	w0, [x22]
 276 0344 D50C0034 		cbz	w21, .L57
 277              	.L53:
 278 0348 2102A052 		mov	w1, 1114112
 279 034c 1F00016A 		tst	w0, w1
 280 0350 610C0054 		bne	.L57
 281 0354 01009052 		mov	w1, 32768
 282 0358 C12FA072 		movk	w1, 0x17e, lsl 16
 283 035c 1F00016A 		tst	w0, w1
 284 0360 C10D0054 		bne	.L101
 285 0364 000680D2 		mov	x0, 48
 286 0368 00E6A7F2 		movk	x0, 0x3f30, lsl 16
 287 036c 22008052 		mov	w2, 1
 288 0370 010280D2 		mov	x1, 16
 289 0374 01E6A7F2 		movk	x1, 0x3f30, lsl 16
 290 0378 020000B9 		str	w2, [x0]
 291 037c 7F020071 		cmp	w19, 0
 292 0380 00008052 		mov	w0, 0
 293 0384 210040B9 		ldr	w1, [x1]
 294 0388 001B407A 		ccmp	w24, 0, 0, ne
 295 038c A1020054 		bne	.L93
 296 0390 40E0A652 		mov	w0, 922877952
 297 0394 7F02006B 		cmp	w19, w0
 298 0398 20020054 		beq	.L102
 299 039c B9050035 		cbnz	w25, .L103
 300 03a0 2040A052 		mov	w0, 33619968
 301 03a4 7F02006B 		cmp	w19, w0
 302 03a8 20060054 		beq	.L104
 303 03ac 4060A052 		mov	w0, 50462720
 304 03b0 7F02006B 		cmp	w19, w0
 305 03b4 80070054 		beq	.L105
 306 03b8 80009852 		mov	w0, 49156
 307 03bc 20FFBF72 		movk	w0, 0xfff9, lsl 16
 308 03c0 2000000A 		and	w0, w1, w0
 309 03c4 F55B41A9 		ldp	x21, x22, [sp, 16]
 310 03c8 F76342A9 		ldp	x23, x24, [sp, 32]
 311 03cc F96B43A9 		ldp	x25, x26, [sp, 48]
 312 03d0 FE2340F9 		ldr	x30, [sp, 64]
 313 03d4 F353C5A8 		ldp	x19, x20, [sp], 80
 314 03d8 C0035FD6 		ret
 315              		.p2align 2,,3
 316              	.L102:
 317 03dc 20001B12 		and	w0, w1, 32
 318              	.L93:
 319 03e0 F96B43A9 		ldp	x25, x26, [sp, 48]
 320              	.L40:
AARCH64 GAS  C:\Users\RAFAEL~1.ROM\AppData\Local\Temp\ccH9DRWF.s 			page 7


 321 03e4 F55B41A9 		ldp	x21, x22, [sp, 16]
 322 03e8 F76342A9 		ldp	x23, x24, [sp, 32]
 323 03ec FE2340F9 		ldr	x30, [sp, 64]
 324 03f0 F353C5A8 		ldp	x19, x20, [sp], 80
 325 03f4 C0035FD6 		ret
 326              		.p2align 2,,3
 327              	.L46:
 328 03f8 00000090 		adrp	x0, .LC5
 329 03fc 00000091 		add	x0, x0, :lo12:.LC5
 330 0400 00000094 		bl	kprintf_debug
 331 0404 01008092 		mov	x1, -1
 332 0408 00008052 		mov	w0, 0
 333 040c E10200F9 		str	x1, [x23, #:lo12:sd_err]
 334 0410 F55B41A9 		ldp	x21, x22, [sp, 16]
 335 0414 F76342A9 		ldp	x23, x24, [sp, 32]
 336 0418 F96B43A9 		ldp	x25, x26, [sp, 48]
 337 041c FE2340F9 		ldr	x30, [sp, 64]
 338 0420 F353C5A8 		ldp	x19, x20, [sp], 80
 339 0424 C0035FD6 		ret
 340              		.p2align 2,,3
 341              	.L51:
 342 0428 800C8052 		mov	w0, 100
 343 042c 00000094 		bl	delays_wait_microsecs
 344 0430 B0FFFF17 		b	.L95
 345              		.p2align 2,,3
 346              	.L96:
 347 0434 00000090 		adrp	x0, .LC0
 348 0438 00000091 		add	x0, x0, :lo12:.LC0
 349 043c 00000094 		bl	kprintf_debug
 350 0440 21008092 		mov	x1, -2
 351 0444 00008052 		mov	w0, 0
 352 0448 E10200F9 		str	x1, [x23, #:lo12:sd_err]
 353 044c E6FFFF17 		b	.L40
 354              		.p2align 2,,3
 355              	.L103:
 356 0450 3F00146B 		cmp	w1, w20
 357 0454 20008012 		mov	w0, -2
 358 0458 E003801A 		csel	w0, wzr, w0, eq
 359 045c F96B43A9 		ldp	x25, x26, [sp, 48]
 360 0460 E1FFFF17 		b	.L40
 361              		.p2align 2,,3
 362              	.L98:
 363 0464 C00240B9 		ldr	w0, [x22]
 364 0468 B8FFFF17 		b	.L53
 365              		.p2align 2,,3
 366              	.L104:
 367 046c 830380D2 		mov	x3, 28
 368 0470 03E6A7F2 		movk	x3, 0x3f30, lsl 16
 369 0474 000380D2 		mov	x0, 24
 370 0478 00E6A7F2 		movk	x0, 0x3f30, lsl 16
 371 047c 820280D2 		mov	x2, 20
 372 0480 02E6A7F2 		movk	x2, 0x3f30, lsl 16
 373 0484 630040B9 		ldr	w3, [x3]
 374 0488 000040B9 		ldr	w0, [x0]
 375 048c 420040B9 		ldr	w2, [x2]
 376 0490 2100032A 		orr	w1, w1, w3
 377 0494 F96B43A9 		ldp	x25, x26, [sp, 48]
AARCH64 GAS  C:\Users\RAFAEL~1.ROM\AppData\Local\Temp\ccH9DRWF.s 			page 8


 378 0498 0000022A 		orr	w0, w0, w2
 379 049c 0000012A 		orr	w0, w0, w1
 380 04a0 D1FFFF17 		b	.L40
 381              		.p2align 2,,3
 382              	.L105:
 383 04a4 225C1853 		lsl	w2, w1, 8
 384 04a8 20641A53 		lsl	w0, w1, 6
 385 04ac 44000A12 		and	w4, w2, 4194304
 386 04b0 43000912 		and	w3, w2, 8388608
 387 04b4 00000D12 		and	w0, w0, 524288
 388 04b8 22001E12 		and	w2, w1, 4
 389 04bc 0000042A 		orr	w0, w0, w4
 390 04c0 4200032A 		orr	w2, w2, w3
 391 04c4 4200002A 		orr	w2, w2, w0
 392 04c8 203C1012 		and	w0, w1, -65536
 393 04cc E20200F9 		str	x2, [x23, #:lo12:sd_err]
 394 04d0 F96B43A9 		ldp	x25, x26, [sp, 48]
 395 04d4 C4FFFF17 		b	.L40
 396              		.p2align 2,,3
 397              	.L99:
 398 04d8 C00240B9 		ldr	w0, [x22]
 399              	.L57:
 400 04dc 010680D2 		mov	x1, 48
 401 04e0 01E6A7F2 		movk	x1, 0x3f30, lsl 16
 402 04e4 13008092 		mov	x19, -1
 403 04e8 200000B9 		str	w0, [x1]
 404              	.L59:
 405 04ec 00000090 		adrp	x0, .LC6
 406 04f0 00000091 		add	x0, x0, :lo12:.LC6
 407 04f4 00000094 		bl	kprintf_debug
 408 04f8 F30200F9 		str	x19, [x23, #:lo12:sd_err]
 409 04fc 00008052 		mov	w0, 0
 410 0500 F55B41A9 		ldp	x21, x22, [sp, 16]
 411 0504 F76342A9 		ldp	x23, x24, [sp, 32]
 412 0508 F96B43A9 		ldp	x25, x26, [sp, 48]
 413 050c FE2340F9 		ldr	x30, [sp, 64]
 414 0510 F353C5A8 		ldp	x19, x20, [sp], 80
 415 0514 C0035FD6 		ret
 416              	.L101:
 417 0518 010680D2 		mov	x1, 48
 418 051c 01E6A7F2 		movk	x1, 0x3f30, lsl 16
 419 0520 33008092 		mov	x19, -2
 420 0524 200000B9 		str	w0, [x1]
 421 0528 F1FFFF17 		b	.L59
 422              		.size	sd_cmd, .-sd_cmd
 423              		.section	.rodata.str1.8
 424 0094 00000000 		.align	3
 425              	.LC7:
 426 0098 73645F72 		.string	"sd_readblock lba "
 426      65616462 
 426      6C6F636B 
 426      206C6261 
 426      2000
 427 00aa 00000000 		.align	3
 427      0000
 428              	.LC8:
 429 00b0 206E756D 		.string	" num "
AARCH64 GAS  C:\Users\RAFAEL~1.ROM\AppData\Local\Temp\ccH9DRWF.s 			page 9


 429      2000
 430 00b6 0000     		.align	3
 431              	.LC9:
 432 00b8 0D455252 		.string	"\rERROR: Timeout waiting for ready to read\n"
 432      4F523A20 
 432      54696D65 
 432      6F757420 
 432      77616974 
 433              		.text
 434              		.align	2
 435 052c 1F2003D5 		.p2align 4,,15
 436              		.global	sd_readblock
 437              		.type	sd_readblock, %function
 438              	sd_readblock:
 439 0530 5F000071 		cmp	w2, 0
 440 0534 F353B9A9 		stp	x19, x20, [sp, -112]!
 441 0538 F30301AA 		mov	x19, x1
 442 053c F55B01A9 		stp	x21, x22, [sp, 16]
 443 0540 56149F1A 		csinc	w22, w2, wzr, ne
 444 0544 F503002A 		mov	w21, w0
 445 0548 00000090 		adrp	x0, .LC7
 446 054c 00000091 		add	x0, x0, :lo12:.LC7
 447 0550 F76302A9 		stp	x23, x24, [sp, 32]
 448 0554 14000090 		adrp	x20, .LC2
 449 0558 94020091 		add	x20, x20, :lo12:.LC2
 450 055c F96B03A9 		stp	x25, x26, [sp, 48]
 451 0560 970480D2 		mov	x23, 36
 452 0564 17E6A7F2 		movk	x23, 0x3f30, lsl 16
 453 0568 FE2B00F9 		str	x30, [sp, 80]
 454 056c E26F00B9 		str	w2, [sp, 108]
 455 0570 00000094 		bl	kprintf_debug
 456 0574 E103152A 		mov	w1, w21
 457 0578 E00314AA 		mov	x0, x20
 458 057c 00000094 		bl	kprintf_debug
 459 0580 00000090 		adrp	x0, .LC8
 460 0584 00000091 		add	x0, x0, :lo12:.LC8
 461 0588 00000094 		bl	kprintf_debug
 462 058c E103162A 		mov	w1, w22
 463 0590 E00314AA 		mov	x0, x20
 464 0594 00000094 		bl	kprintf_debug
 465 0598 14488852 		mov	w20, 16960
 466 059c F401A072 		movk	w20, 0xf, lsl 16
 467 05a0 00000090 		adrp	x0, .LC4
 468 05a4 00000091 		add	x0, x0, :lo12:.LC4
 469 05a8 00000094 		bl	kprintf_debug
 470 05ac E00240B9 		ldr	w0, [x23]
 471 05b0 20020836 		tbz	x0, 1, .L112
 472 05b4 190680D2 		mov	x25, 48
 473 05b8 19E6A7F2 		movk	x25, 0x3f30, lsl 16
 474 05bc 18009052 		mov	w24, 32768
 475 05c0 D82FA072 		movk	w24, 0x17e, lsl 16
 476 05c4 07000014 		b	.L107
 477              		.p2align 2,,3
 478              	.L173:
 479 05c8 94060051 		sub	w20, w20, #1
 480 05cc 9F060031 		cmn	w20, #1
 481 05d0 200D0054 		beq	.L108
AARCH64 GAS  C:\Users\RAFAEL~1.ROM\AppData\Local\Temp\ccH9DRWF.s 			page 10


 482 05d4 00000094 		bl	delays_wait_microsecs
 483 05d8 E00240B9 		ldr	w0, [x23]
 484 05dc A0000836 		tbz	x0, 1, .L110
 485              	.L107:
 486 05e0 210340B9 		ldr	w1, [x25]
 487 05e4 20008052 		mov	w0, 1
 488 05e8 3F00186A 		tst	w1, w24
 489 05ec E0FEFF54 		beq	.L173
 490              	.L110:
 491 05f0 340C0034 		cbz	w20, .L108
 492              	.L112:
 493 05f4 010680D2 		mov	x1, 48
 494 05f8 01E6A7F2 		movk	x1, 0x3f30, lsl 16
 495 05fc 00009052 		mov	w0, 32768
 496 0600 C02FA072 		movk	w0, 0x17e, lsl 16
 497 0604 210040B9 		ldr	w1, [x1]
 498 0608 3F00006A 		tst	w1, w0
 499 060c 410B0054 		bne	.L108
 500 0610 18000090 		adrp	x24, sd_scr
 501 0614 000340F9 		ldr	x0, [x24, #:lo12:sd_scr]
 502 0618 01004092 		and	x1, x0, 1
 503 061c 00080037 		tbnz	x0, 0, .L113
 504 0620 800080D2 		mov	x0, 4
 505 0624 00E6A7F2 		movk	x0, 0x3f30, lsl 16
 506 0628 FB7304A9 		stp	x27, x28, [sp, 64]
 507 062c 02408052 		mov	w2, 512
 508 0630 2200A072 		movk	w2, 0x1, lsl 16
 509 0634 19000090 		adrp	x25, sd_err
 510 0638 020000B9 		str	w2, [x0]
 511              	.L119:
 512 063c 77020891 		add	x23, x19, 512
 513 0640 B55A1753 		lsl	w21, w21, 9
 514 0644 A002174B 		sub	w0, w21, w23
 515 0648 130680D2 		mov	x19, 48
 516 064c 13E6A7F2 		movk	x19, 0x3f30, lsl 16
 517 0650 14049052 		mov	w20, 32800
 518 0654 D42FA072 		movk	w20, 0x17e, lsl 16
 519 0658 1B0480D2 		mov	x27, 32
 520 065c 1BE6A7F2 		movk	x27, 0x3f30, lsl 16
 521 0660 15008052 		mov	w21, 0
 522 0664 E06B00B9 		str	w0, [sp, 104]
 523              		.p2align 3,,7
 524              	.L132:
 525 0668 FC0208D1 		sub	x28, x23, #512
 526 066c 010100B5 		cbnz	x1, .L172
 527 0670 E06B40B9 		ldr	w0, [sp, 104]
 528 0674 0100170B 		add	w1, w0, w23
 529 0678 00028052 		mov	w0, 16
 530 067c 4024A272 		movk	w0, 0x1122, lsl 16
 531 0680 00000094 		bl	sd_cmd
 532 0684 200340F9 		ldr	x0, [x25, #:lo12:sd_err]
 533 0688 800A00B5 		cbnz	x0, .L168
 534              	.L172:
 535 068c 600240B9 		ldr	w0, [x19]
 536 0690 FA478852 		mov	w26, 16959
 537 0694 FA01A072 		movk	w26, 0xf, lsl 16
 538 0698 1F00146A 		tst	w0, w20
AARCH64 GAS  C:\Users\RAFAEL~1.ROM\AppData\Local\Temp\ccH9DRWF.s 			page 11


 539 069c A0000054 		beq	.L124
 540 06a0 33000014 		b	.L174
 541              		.p2align 2,,3
 542              	.L176:
 543 06a4 5A070051 		sub	w26, w26, #1
 544 06a8 5F070031 		cmn	w26, #1
 545 06ac 800B0054 		beq	.L175
 546              	.L124:
 547 06b0 20008052 		mov	w0, 1
 548 06b4 00000094 		bl	delays_wait_microsecs
 549 06b8 600240B9 		ldr	w0, [x19]
 550 06bc 1F00146A 		tst	w0, w20
 551 06c0 20FFFF54 		beq	.L176
 552 06c4 600240B9 		ldr	w0, [x19]
 553 06c8 DA0A0034 		cbz	w26, .L126
 554              	.L122:
 555 06cc 2102A052 		mov	w1, 1114112
 556 06d0 1F00016A 		tst	w0, w1
 557 06d4 610A0054 		bne	.L126
 558 06d8 01009052 		mov	w1, 32768
 559 06dc C12FA072 		movk	w1, 0x17e, lsl 16
 560 06e0 1F00016A 		tst	w0, w1
 561 06e4 E10B0054 		bne	.L177
 562 06e8 00048052 		mov	w0, 32
 563 06ec 600200B9 		str	w0, [x19]
 564              		.p2align 3,,7
 565              	.L130:
 566 06f0 600340B9 		ldr	w0, [x27]
 567 06f4 804700B8 		str	w0, [x28], 4
 568 06f8 FF021CEB 		cmp	x23, x28
 569 06fc A1FFFF54 		bne	.L130
 570 0700 B5060011 		add	w21, w21, 1
 571 0704 F7020891 		add	x23, x23, 512
 572 0708 DF02156B 		cmp	w22, w21
 573 070c 80040054 		beq	.L131
 574 0710 000340F9 		ldr	x0, [x24, #:lo12:sd_scr]
 575 0714 01004092 		and	x1, x0, 1
 576 0718 D4FFFF17 		b	.L132
 577              	.L113:
 578 071c E16F40B9 		ldr	w1, [sp, 108]
 579 0720 3F040071 		cmp	w1, 1
 580 0724 A9060054 		bls	.L116
 581 0728 19000090 		adrp	x25, sd_err
 582 072c 400AC837 		tbnz	x0, 25, .L178
 583              	.L117:
 584 0730 820080D2 		mov	x2, 4
 585 0734 02E6A7F2 		movk	x2, 0x3f30, lsl 16
 586 0738 C13E1053 		lsl	w1, w22, 16
 587 073c 40068052 		mov	w0, 50
 588 0740 4044A272 		movk	w0, 0x1222, lsl 16
 589 0744 21001732 		orr	w1, w1, 512
 590 0748 410000B9 		str	w1, [x2]
 591              	.L134:
 592 074c E103152A 		mov	w1, w21
 593 0750 00000094 		bl	sd_cmd
 594 0754 200340F9 		ldr	x0, [x25, #:lo12:sd_err]
 595 0758 200400B5 		cbnz	x0, .L118
AARCH64 GAS  C:\Users\RAFAEL~1.ROM\AppData\Local\Temp\ccH9DRWF.s 			page 12


 596 075c 000340F9 		ldr	x0, [x24, #:lo12:sd_scr]
 597 0760 FB7304A9 		stp	x27, x28, [sp, 64]
 598 0764 01004092 		and	x1, x0, 1
 599 0768 B5FFFF17 		b	.L119
 600              	.L174:
 601 076c 600240B9 		ldr	w0, [x19]
 602 0770 D7FFFF17 		b	.L122
 603              	.L108:
 604 0774 01000090 		adrp	x1, sd_err
 605 0778 02008092 		mov	x2, -1
 606 077c 00008052 		mov	w0, 0
 607 0780 220000F9 		str	x2, [x1, #:lo12:sd_err]
 608              	.L106:
 609 0784 F55B41A9 		ldp	x21, x22, [sp, 16]
 610 0788 F76342A9 		ldp	x23, x24, [sp, 32]
 611 078c F96B43A9 		ldp	x25, x26, [sp, 48]
 612 0790 FE2B40F9 		ldr	x30, [sp, 80]
 613 0794 F353C7A8 		ldp	x19, x20, [sp], 112
 614 0798 C0035FD6 		ret
 615              	.L131:
 616 079c E06F40B9 		ldr	w0, [sp, 108]
 617 07a0 1F040071 		cmp	w0, 1
 618 07a4 29010054 		bls	.L133
 619 07a8 000340F9 		ldr	x0, [x24, #:lo12:sd_scr]
 620 07ac 00644092 		and	x0, x0, 67108863
 621 07b0 009C6792 		and	x0, x0, -33554431
 622 07b4 1F0400F1 		cmp	x0, 1
 623 07b8 81000054 		bne	.L133
 624 07bc 01008052 		mov	w1, 0
 625 07c0 6080A152 		mov	w0, 201523200
 626 07c4 00000094 		bl	sd_cmd
 627              	.L133:
 628 07c8 200340F9 		ldr	x0, [x25, #:lo12:sd_err]
 629 07cc 1F0000F1 		cmp	x0, 0
 630 07d0 A002567A 		ccmp	w21, w22, 0, eq
 631 07d4 E0050054 		beq	.L179
 632              	.L168:
 633 07d8 FB7344A9 		ldp	x27, x28, [sp, 64]
 634              	.L118:
 635 07dc 00008052 		mov	w0, 0
 636              	.L180:
 637 07e0 F55B41A9 		ldp	x21, x22, [sp, 16]
 638 07e4 F76342A9 		ldp	x23, x24, [sp, 32]
 639 07e8 F96B43A9 		ldp	x25, x26, [sp, 48]
 640 07ec FE2B40F9 		ldr	x30, [sp, 80]
 641 07f0 F353C7A8 		ldp	x19, x20, [sp], 112
 642 07f4 C0035FD6 		ret
 643              	.L116:
 644 07f8 820080D2 		mov	x2, 4
 645 07fc 02E6A7F2 		movk	x2, 0x3f30, lsl 16
 646 0800 C13E1053 		lsl	w1, w22, 16
 647 0804 00028052 		mov	w0, 16
 648 0808 4024A272 		movk	w0, 0x1122, lsl 16
 649 080c 21001732 		orr	w1, w1, 512
 650 0810 19000090 		adrp	x25, sd_err
 651 0814 410000B9 		str	w1, [x2]
 652 0818 CDFFFF17 		b	.L134
AARCH64 GAS  C:\Users\RAFAEL~1.ROM\AppData\Local\Temp\ccH9DRWF.s 			page 13


 653              	.L175:
 654 081c 600240B9 		ldr	w0, [x19]
 655              	.L126:
 656 0820 010680D2 		mov	x1, 48
 657 0824 01E6A7F2 		movk	x1, 0x3f30, lsl 16
 658 0828 13008092 		mov	x19, -1
 659 082c 200000B9 		str	w0, [x1]
 660              	.L128:
 661 0830 00000090 		adrp	x0, .LC9
 662 0834 00000091 		add	x0, x0, :lo12:.LC9
 663 0838 00000094 		bl	kprintf_debug
 664 083c 330300F9 		str	x19, [x25, #:lo12:sd_err]
 665 0840 00008052 		mov	w0, 0
 666 0844 F55B41A9 		ldp	x21, x22, [sp, 16]
 667 0848 F76342A9 		ldp	x23, x24, [sp, 32]
 668 084c F96B43A9 		ldp	x25, x26, [sp, 48]
 669 0850 FB7344A9 		ldp	x27, x28, [sp, 64]
 670 0854 FE2B40F9 		ldr	x30, [sp, 80]
 671 0858 F353C7A8 		ldp	x19, x20, [sp], 112
 672 085c C0035FD6 		ret
 673              	.L177:
 674 0860 010680D2 		mov	x1, 48
 675 0864 01E6A7F2 		movk	x1, 0x3f30, lsl 16
 676 0868 33008092 		mov	x19, -2
 677 086c 200000B9 		str	w0, [x1]
 678 0870 F0FFFF17 		b	.L128
 679              	.L178:
 680 0874 E103162A 		mov	w1, w22
 681 0878 40E0A252 		mov	w0, 386007040
 682 087c 00000094 		bl	sd_cmd
 683 0880 200340F9 		ldr	x0, [x25, #:lo12:sd_err]
 684 0884 60F5FFB4 		cbz	x0, .L117
 685 0888 00008052 		mov	w0, 0
 686 088c D5FFFF17 		b	.L180
 687              	.L179:
 688 0890 C05A1753 		lsl	w0, w22, 9
 689 0894 FB7344A9 		ldp	x27, x28, [sp, 64]
 690 0898 BBFFFF17 		b	.L106
 691              		.size	sd_readblock, .-sd_readblock
 692              		.section	.rodata.str1.8
 693 00e3 00000000 		.align	3
 693      00
 694              	.LC10:
 695 00e8 73645F77 		.string	"sd_writeblock lba "
 695      72697465 
 695      626C6F63 
 695      6B206C62 
 695      612000
 696 00fb 00000000 		.align	3
 696      00
 697              	.LC11:
 698 0100 0D455252 		.string	"\rERROR: Timeout waiting for ready to write\n"
 698      4F523A20 
 698      54696D65 
 698      6F757420 
 698      77616974 
 699 012c 00000000 		.align	3
AARCH64 GAS  C:\Users\RAFAEL~1.ROM\AppData\Local\Temp\ccH9DRWF.s 			page 14


 700              	.LC12:
 701 0130 0D455252 		.string	"\rERROR: Timeout waiting for data done\n"
 701      4F523A20 
 701      54696D65 
 701      6F757420 
 701      77616974 
 702              		.text
 703              		.align	2
 704 089c 1F2003D5 		.p2align 4,,15
 705              		.global	sd_writeblock
 706              		.type	sd_writeblock, %function
 707              	sd_writeblock:
 708 08a0 5F000071 		cmp	w2, 0
 709 08a4 F353B9A9 		stp	x19, x20, [sp, -112]!
 710 08a8 F30300AA 		mov	x19, x0
 711 08ac 00000090 		adrp	x0, .LC10
 712 08b0 00000091 		add	x0, x0, :lo12:.LC10
 713 08b4 F55B01A9 		stp	x21, x22, [sp, 16]
 714 08b8 56149F1A 		csinc	w22, w2, wzr, ne
 715 08bc 14000090 		adrp	x20, .LC2
 716 08c0 94020091 		add	x20, x20, :lo12:.LC2
 717 08c4 F76302A9 		stp	x23, x24, [sp, 32]
 718 08c8 F703012A 		mov	w23, w1
 719 08cc F96B03A9 		stp	x25, x26, [sp, 48]
 720 08d0 980480D2 		mov	x24, 36
 721 08d4 18E6A7F2 		movk	x24, 0x3f30, lsl 16
 722 08d8 FE2B00F9 		str	x30, [sp, 80]
 723 08dc 55808052 		mov	w21, 1026
 724 08e0 E26F00B9 		str	w2, [sp, 108]
 725 08e4 00000094 		bl	kprintf_debug
 726 08e8 E103172A 		mov	w1, w23
 727 08ec E00314AA 		mov	x0, x20
 728 08f0 00000094 		bl	kprintf_debug
 729 08f4 00000090 		adrp	x0, .LC8
 730 08f8 00000091 		add	x0, x0, :lo12:.LC8
 731 08fc 00000094 		bl	kprintf_debug
 732 0900 E103162A 		mov	w1, w22
 733 0904 E00314AA 		mov	x0, x20
 734 0908 00000094 		bl	kprintf_debug
 735 090c 14488852 		mov	w20, 16960
 736 0910 F401A072 		movk	w20, 0xf, lsl 16
 737 0914 00000090 		adrp	x0, .LC4
 738 0918 00000091 		add	x0, x0, :lo12:.LC4
 739 091c 00000094 		bl	kprintf_debug
 740 0920 000340B9 		ldr	w0, [x24]
 741 0924 1F00156A 		tst	w0, w21
 742 0928 40020054 		beq	.L187
 743 092c 1A0680D2 		mov	x26, 48
 744 0930 1AE6A7F2 		movk	x26, 0x3f30, lsl 16
 745 0934 19009052 		mov	w25, 32768
 746 0938 D92FA072 		movk	w25, 0x17e, lsl 16
 747 093c 08000014 		b	.L182
 748              		.p2align 2,,3
 749              	.L263:
 750 0940 94060051 		sub	w20, w20, #1
 751 0944 9F060031 		cmn	w20, #1
 752 0948 600D0054 		beq	.L183
AARCH64 GAS  C:\Users\RAFAEL~1.ROM\AppData\Local\Temp\ccH9DRWF.s 			page 15


 753 094c 00000094 		bl	delays_wait_microsecs
 754 0950 000340B9 		ldr	w0, [x24]
 755 0954 1F00156A 		tst	w0, w21
 756 0958 A0000054 		beq	.L185
 757              	.L182:
 758 095c 410340B9 		ldr	w1, [x26]
 759 0960 20008052 		mov	w0, 1
 760 0964 3F00196A 		tst	w1, w25
 761 0968 C0FEFF54 		beq	.L263
 762              	.L185:
 763 096c 540C0034 		cbz	w20, .L183
 764              	.L187:
 765 0970 010680D2 		mov	x1, 48
 766 0974 01E6A7F2 		movk	x1, 0x3f30, lsl 16
 767 0978 00009052 		mov	w0, 32768
 768 097c C02FA072 		movk	w0, 0x17e, lsl 16
 769 0980 210040B9 		ldr	w1, [x1]
 770 0984 3F00006A 		tst	w1, w0
 771 0988 610B0054 		bne	.L183
 772 098c 18000090 		adrp	x24, sd_scr
 773 0990 000340F9 		ldr	x0, [x24, #:lo12:sd_scr]
 774 0994 01004092 		and	x1, x0, 1
 775 0998 20080037 		tbnz	x0, 0, .L188
 776 099c 800080D2 		mov	x0, 4
 777 09a0 00E6A7F2 		movk	x0, 0x3f30, lsl 16
 778 09a4 FB7304A9 		stp	x27, x28, [sp, 64]
 779 09a8 02408052 		mov	w2, 512
 780 09ac 2200A072 		movk	w2, 0x1, lsl 16
 781 09b0 19000090 		adrp	x25, sd_err
 782 09b4 020000B9 		str	w2, [x0]
 783              	.L194:
 784 09b8 7C020891 		add	x28, x19, 512
 785 09bc F75A1753 		lsl	w23, w23, 9
 786 09c0 E0021C4B 		sub	w0, w23, w28
 787 09c4 130680D2 		mov	x19, 48
 788 09c8 13E6A7F2 		movk	x19, 0x3f30, lsl 16
 789 09cc 14029052 		mov	w20, 32784
 790 09d0 D42FA072 		movk	w20, 0x17e, lsl 16
 791 09d4 1B0480D2 		mov	x27, 32
 792 09d8 1BE6A7F2 		movk	x27, 0x3f30, lsl 16
 793 09dc 15008052 		mov	w21, 0
 794 09e0 E06B00B9 		str	w0, [sp, 104]
 795 09e4 1F2003D5 		.p2align 3,,7
 796              	.L207:
 797 09e8 970308D1 		sub	x23, x28, #512
 798 09ec 010100B5 		cbnz	x1, .L262
 799 09f0 E06B40B9 		ldr	w0, [sp, 104]
 800 09f4 01001C0B 		add	w1, w0, w28
 801 09f8 00028052 		mov	w0, 16
 802 09fc 4004A372 		movk	w0, 0x1822, lsl 16
 803 0a00 00000094 		bl	sd_cmd
 804 0a04 200340F9 		ldr	x0, [x25, #:lo12:sd_err]
 805 0a08 600E00B5 		cbnz	x0, .L258
 806              	.L262:
 807 0a0c 600240B9 		ldr	w0, [x19]
 808 0a10 FA478852 		mov	w26, 16959
 809 0a14 FA01A072 		movk	w26, 0xf, lsl 16
AARCH64 GAS  C:\Users\RAFAEL~1.ROM\AppData\Local\Temp\ccH9DRWF.s 			page 16


 810 0a18 1F00146A 		tst	w0, w20
 811 0a1c A0000054 		beq	.L199
 812 0a20 33000014 		b	.L264
 813              		.p2align 2,,3
 814              	.L266:
 815 0a24 5A070051 		sub	w26, w26, #1
 816 0a28 5F070031 		cmn	w26, #1
 817 0a2c 600F0054 		beq	.L265
 818              	.L199:
 819 0a30 20008052 		mov	w0, 1
 820 0a34 00000094 		bl	delays_wait_microsecs
 821 0a38 600240B9 		ldr	w0, [x19]
 822 0a3c 1F00146A 		tst	w0, w20
 823 0a40 20FFFF54 		beq	.L266
 824 0a44 600240B9 		ldr	w0, [x19]
 825 0a48 BA0E0034 		cbz	w26, .L201
 826              	.L197:
 827 0a4c 2102A052 		mov	w1, 1114112
 828 0a50 1F00016A 		tst	w0, w1
 829 0a54 410E0054 		bne	.L201
 830 0a58 01009052 		mov	w1, 32768
 831 0a5c C12FA072 		movk	w1, 0x17e, lsl 16
 832 0a60 1F00016A 		tst	w0, w1
 833 0a64 C10F0054 		bne	.L267
 834 0a68 00028052 		mov	w0, 16
 835 0a6c 600200B9 		str	w0, [x19]
 836              		.p2align 3,,7
 837              	.L205:
 838 0a70 E04640B8 		ldr	w0, [x23], 4
 839 0a74 600300B9 		str	w0, [x27]
 840 0a78 9F0317EB 		cmp	x28, x23
 841 0a7c A1FFFF54 		bne	.L205
 842 0a80 B5060011 		add	w21, w21, 1
 843 0a84 9C030891 		add	x28, x28, 512
 844 0a88 BF02166B 		cmp	w21, w22
 845 0a8c 80040054 		beq	.L206
 846 0a90 000340F9 		ldr	x0, [x24, #:lo12:sd_scr]
 847 0a94 01004092 		and	x1, x0, 1
 848 0a98 D4FFFF17 		b	.L207
 849              	.L188:
 850 0a9c E16F40B9 		ldr	w1, [sp, 108]
 851 0aa0 3F040071 		cmp	w1, 1
 852 0aa4 890A0054 		bls	.L191
 853 0aa8 19000090 		adrp	x25, sd_err
 854 0aac 200EC837 		tbnz	x0, 25, .L268
 855              	.L192:
 856 0ab0 820080D2 		mov	x2, 4
 857 0ab4 02E6A7F2 		movk	x2, 0x3f30, lsl 16
 858 0ab8 C13E1053 		lsl	w1, w22, 16
 859 0abc 40068052 		mov	w0, 50
 860 0ac0 4024A372 		movk	w0, 0x1922, lsl 16
 861 0ac4 21001732 		orr	w1, w1, 512
 862 0ac8 410000B9 		str	w1, [x2]
 863              	.L219:
 864 0acc E103172A 		mov	w1, w23
 865 0ad0 00000094 		bl	sd_cmd
 866 0ad4 200340F9 		ldr	x0, [x25, #:lo12:sd_err]
AARCH64 GAS  C:\Users\RAFAEL~1.ROM\AppData\Local\Temp\ccH9DRWF.s 			page 17


 867 0ad8 000800B5 		cbnz	x0, .L193
 868 0adc 000340F9 		ldr	x0, [x24, #:lo12:sd_scr]
 869 0ae0 FB7304A9 		stp	x27, x28, [sp, 64]
 870 0ae4 01004092 		and	x1, x0, 1
 871 0ae8 B4FFFF17 		b	.L194
 872              	.L264:
 873 0aec 600240B9 		ldr	w0, [x19]
 874 0af0 D7FFFF17 		b	.L197
 875              	.L183:
 876 0af4 01000090 		adrp	x1, sd_err
 877 0af8 02008092 		mov	x2, -1
 878 0afc 00008052 		mov	w0, 0
 879 0b00 220000F9 		str	x2, [x1, #:lo12:sd_err]
 880              	.L181:
 881 0b04 F55B41A9 		ldp	x21, x22, [sp, 16]
 882 0b08 F76342A9 		ldp	x23, x24, [sp, 32]
 883 0b0c F96B43A9 		ldp	x25, x26, [sp, 48]
 884 0b10 FE2B40F9 		ldr	x30, [sp, 80]
 885 0b14 F353C7A8 		ldp	x19, x20, [sp], 112
 886 0b18 C0035FD6 		ret
 887              	.L206:
 888 0b1c 140680D2 		mov	x20, 48
 889 0b20 14E6A7F2 		movk	x20, 0x3f30, lsl 16
 890 0b24 57009052 		mov	w23, 32770
 891 0b28 D72FA072 		movk	w23, 0x17e, lsl 16
 892 0b2c 800240B9 		ldr	w0, [x20]
 893 0b30 1F00176A 		tst	w0, w23
 894 0b34 810C0054 		bne	.L208
 895 0b38 F3478852 		mov	w19, 16959
 896 0b3c F301A072 		movk	w19, 0xf, lsl 16
 897 0b40 04000014 		b	.L210
 898              		.p2align 2,,3
 899              	.L270:
 900 0b44 73060051 		sub	w19, w19, #1
 901 0b48 7F060031 		cmn	w19, #1
 902 0b4c 000C0054 		beq	.L269
 903              	.L210:
 904 0b50 20008052 		mov	w0, 1
 905 0b54 00000094 		bl	delays_wait_microsecs
 906 0b58 800240B9 		ldr	w0, [x20]
 907 0b5c 1F00176A 		tst	w0, w23
 908 0b60 20FFFF54 		beq	.L270
 909 0b64 800240B9 		ldr	w0, [x20]
 910 0b68 530B0034 		cbz	w19, .L213
 911              	.L212:
 912 0b6c 2102A052 		mov	w1, 1114112
 913 0b70 1F00016A 		tst	w0, w1
 914 0b74 E10A0054 		bne	.L213
 915 0b78 01009052 		mov	w1, 32768
 916 0b7c C12FA072 		movk	w1, 0x17e, lsl 16
 917 0b80 1F00016A 		tst	w0, w1
 918 0b84 A1080054 		bne	.L271
 919 0b88 000680D2 		mov	x0, 48
 920 0b8c 00E6A7F2 		movk	x0, 0x3f30, lsl 16
 921 0b90 E26F40B9 		ldr	w2, [sp, 108]
 922 0b94 41008052 		mov	w1, 2
 923 0b98 010000B9 		str	w1, [x0]
AARCH64 GAS  C:\Users\RAFAEL~1.ROM\AppData\Local\Temp\ccH9DRWF.s 			page 18


 924 0b9c 5F040071 		cmp	w2, 1
 925 0ba0 29010054 		bls	.L218
 926 0ba4 000340F9 		ldr	x0, [x24, #:lo12:sd_scr]
 927 0ba8 00644092 		and	x0, x0, 67108863
 928 0bac 009C6792 		and	x0, x0, -33554431
 929 0bb0 1F0400F1 		cmp	x0, 1
 930 0bb4 81000054 		bne	.L218
 931 0bb8 01008052 		mov	w1, 0
 932 0bbc 6080A152 		mov	w0, 201523200
 933 0bc0 00000094 		bl	sd_cmd
 934              	.L218:
 935 0bc4 200340F9 		ldr	x0, [x25, #:lo12:sd_err]
 936 0bc8 1F0000F1 		cmp	x0, 0
 937 0bcc A002567A 		ccmp	w21, w22, 0, eq
 938 0bd0 E0050054 		beq	.L272
 939              	.L258:
 940 0bd4 FB7344A9 		ldp	x27, x28, [sp, 64]
 941              	.L193:
 942 0bd8 00008052 		mov	w0, 0
 943              	.L273:
 944 0bdc F55B41A9 		ldp	x21, x22, [sp, 16]
 945 0be0 F76342A9 		ldp	x23, x24, [sp, 32]
 946 0be4 F96B43A9 		ldp	x25, x26, [sp, 48]
 947 0be8 FE2B40F9 		ldr	x30, [sp, 80]
 948 0bec F353C7A8 		ldp	x19, x20, [sp], 112
 949 0bf0 C0035FD6 		ret
 950              	.L191:
 951 0bf4 820080D2 		mov	x2, 4
 952 0bf8 02E6A7F2 		movk	x2, 0x3f30, lsl 16
 953 0bfc C13E1053 		lsl	w1, w22, 16
 954 0c00 00028052 		mov	w0, 16
 955 0c04 4004A372 		movk	w0, 0x1822, lsl 16
 956 0c08 21001732 		orr	w1, w1, 512
 957 0c0c 19000090 		adrp	x25, sd_err
 958 0c10 410000B9 		str	w1, [x2]
 959 0c14 AEFFFF17 		b	.L219
 960              	.L265:
 961 0c18 600240B9 		ldr	w0, [x19]
 962              	.L201:
 963 0c1c 010680D2 		mov	x1, 48
 964 0c20 01E6A7F2 		movk	x1, 0x3f30, lsl 16
 965 0c24 13008092 		mov	x19, -1
 966 0c28 200000B9 		str	w0, [x1]
 967              	.L203:
 968 0c2c 00000090 		adrp	x0, .LC11
 969 0c30 00000091 		add	x0, x0, :lo12:.LC11
 970 0c34 00000094 		bl	kprintf_debug
 971 0c38 330300F9 		str	x19, [x25, #:lo12:sd_err]
 972 0c3c 00008052 		mov	w0, 0
 973 0c40 F55B41A9 		ldp	x21, x22, [sp, 16]
 974 0c44 F76342A9 		ldp	x23, x24, [sp, 32]
 975 0c48 F96B43A9 		ldp	x25, x26, [sp, 48]
 976 0c4c FB7344A9 		ldp	x27, x28, [sp, 64]
 977 0c50 FE2B40F9 		ldr	x30, [sp, 80]
 978 0c54 F353C7A8 		ldp	x19, x20, [sp], 112
 979 0c58 C0035FD6 		ret
 980              	.L267:
AARCH64 GAS  C:\Users\RAFAEL~1.ROM\AppData\Local\Temp\ccH9DRWF.s 			page 19


 981 0c5c 010680D2 		mov	x1, 48
 982 0c60 01E6A7F2 		movk	x1, 0x3f30, lsl 16
 983 0c64 33008092 		mov	x19, -2
 984 0c68 200000B9 		str	w0, [x1]
 985 0c6c F0FFFF17 		b	.L203
 986              	.L268:
 987 0c70 E103162A 		mov	w1, w22
 988 0c74 40E0A252 		mov	w0, 386007040
 989 0c78 00000094 		bl	sd_cmd
 990 0c7c 200340F9 		ldr	x0, [x25, #:lo12:sd_err]
 991 0c80 80F1FFB4 		cbz	x0, .L192
 992 0c84 00008052 		mov	w0, 0
 993 0c88 D5FFFF17 		b	.L273
 994              	.L272:
 995 0c8c C05A1753 		lsl	w0, w22, 9
 996 0c90 FB7344A9 		ldp	x27, x28, [sp, 64]
 997 0c94 9CFFFF17 		b	.L181
 998              	.L271:
 999 0c98 010680D2 		mov	x1, 48
 1000 0c9c 01E6A7F2 		movk	x1, 0x3f30, lsl 16
 1001 0ca0 33008092 		mov	x19, -2
 1002 0ca4 200000B9 		str	w0, [x1]
 1003              	.L215:
 1004 0ca8 00000090 		adrp	x0, .LC12
 1005 0cac 00000091 		add	x0, x0, :lo12:.LC12
 1006 0cb0 00000094 		bl	kprintf_debug
 1007 0cb4 330300F9 		str	x19, [x25, #:lo12:sd_err]
 1008 0cb8 00008052 		mov	w0, 0
 1009 0cbc FB7344A9 		ldp	x27, x28, [sp, 64]
 1010 0cc0 91FFFF17 		b	.L181
 1011              	.L208:
 1012 0cc4 800240B9 		ldr	w0, [x20]
 1013 0cc8 A9FFFF17 		b	.L212
 1014              	.L269:
 1015 0ccc 800240B9 		ldr	w0, [x20]
 1016              	.L213:
 1017 0cd0 010680D2 		mov	x1, 48
 1018 0cd4 01E6A7F2 		movk	x1, 0x3f30, lsl 16
 1019 0cd8 13008092 		mov	x19, -1
 1020 0cdc 200000B9 		str	w0, [x1]
 1021 0ce0 F2FFFF17 		b	.L215
 1022              		.size	sd_writeblock, .-sd_writeblock
 1023              		.section	.rodata.str1.8
 1024 0157 00       		.align	3
 1025              	.LC13:
 1026 0158 4552524F 		.string	"ERROR: timeout waiting for inhibit flag\n"
 1026      523A2074 
 1026      696D656F 
 1026      75742077 
 1026      61697469 
 1027 0181 00000000 		.align	3
 1027      000000
 1028              	.LC14:
 1029 0188 73645F63 		.string	"sd_clk divisor "
 1029      6C6B2064 
 1029      69766973 
 1029      6F722000 
AARCH64 GAS  C:\Users\RAFAEL~1.ROM\AppData\Local\Temp\ccH9DRWF.s 			page 20


 1030              		.align	3
 1031              	.LC15:
 1032 0198 2C207368 		.string	", shift "
 1032      69667420 
 1032      00
 1033 01a1 00000000 		.align	3
 1033      000000
 1034              	.LC16:
 1035 01a8 4552524F 		.string	"ERROR: failed to get stable clock\n"
 1035      523A2066 
 1035      61696C65 
 1035      6420746F 
 1035      20676574 
 1036              		.text
 1037              		.align	2
 1038 0ce4 1F2003D5 		.p2align 4,,15
 1038      1F2003D5 
 1038      1F2003D5 
 1039              		.global	sd_clk
 1040              		.type	sd_clk, %function
 1041              	sd_clk:
 1042 0cf0 F353BCA9 		stp	x19, x20, [sp, -64]!
 1043 0cf4 940480D2 		mov	x20, 36
 1044 0cf8 14E6A7F2 		movk	x20, 0x3f30, lsl 16
 1045 0cfc F55B01A9 		stp	x21, x22, [sp, 16]
 1046 0d00 550D9952 		mov	w21, 51306
 1047 0d04 754FA072 		movk	w21, 0x27b, lsl 16
 1048 0d08 810240B9 		ldr	w1, [x20]
 1049 0d0c B50AC01A 		udiv	w21, w21, w0
 1050 0d10 FE1B00F9 		str	x30, [sp, 48]
 1051 0d14 3F0440F2 		tst	x1, 3
 1052 0d18 A0010054 		beq	.L275
 1053 0d1c F3D39052 		mov	w19, 34463
 1054 0d20 3300A072 		movk	w19, 0x1, lsl 16
 1055 0d24 04000014 		b	.L277
 1056              		.p2align 2,,3
 1057              	.L304:
 1058 0d28 73060051 		sub	w19, w19, #1
 1059 0d2c 7F060031 		cmn	w19, #1
 1060 0d30 400E0054 		beq	.L278
 1061              	.L277:
 1062 0d34 20008052 		mov	w0, 1
 1063 0d38 00000094 		bl	delays_wait_microsecs
 1064 0d3c 810240B9 		ldr	w1, [x20]
 1065 0d40 3F0440F2 		tst	x1, 3
 1066 0d44 21FFFF54 		bne	.L304
 1067 0d48 930D0034 		cbz	w19, .L278
 1068              	.L275:
 1069 0d4c 820580D2 		mov	x2, 44
 1070 0d50 02E6A7F2 		movk	x2, 0x3f30, lsl 16
 1071 0d54 F76302A9 		stp	x23, x24, [sp, 32]
 1072 0d58 40018052 		mov	w0, 10
 1073 0d5c 410040B9 		ldr	w1, [x2]
 1074 0d60 21781D12 		and	w1, w1, -5
 1075 0d64 410000B9 		str	w1, [x2]
 1076 0d68 00000094 		bl	delays_wait_microsecs
 1077 0d6c B3060071 		subs	w19, w21, #1
AARCH64 GAS  C:\Users\RAFAEL~1.ROM\AppData\Local\Temp\ccH9DRWF.s 			page 21


 1078 0d70 E00A0054 		beq	.L292
 1079 0d74 7F3E1072 		tst	w19, -65536
 1080 0d78 210B0054 		bne	.L293
 1081 0d7c 733E1053 		lsl	w19, w19, 16
 1082 0d80 01018052 		mov	w1, 8
 1083 0d84 00028052 		mov	w0, 16
 1084              	.L281:
 1085 0d88 7F1E0872 		tst	w19, -16777216
 1086 0d8c 61000054 		bne	.L282
 1087 0d90 735E1853 		lsl	w19, w19, 8
 1088 0d94 E003012A 		mov	w0, w1
 1089              	.L282:
 1090 0d98 7F0E0472 		tst	w19, -268435456
 1091 0d9c 61000054 		bne	.L283
 1092 0da0 736E1C53 		lsl	w19, w19, 4
 1093 0da4 00100051 		sub	w0, w0, #4
 1094              	.L283:
 1095 0da8 7F060272 		tst	w19, -1073741824
 1096 0dac 61000054 		bne	.L284
 1097 0db0 73761E53 		lsl	w19, w19, 2
 1098 0db4 00080051 		sub	w0, w0, #2
 1099              	.L284:
 1100 0db8 137C530B 		add	w19, w0, w19, lsr 31
 1101 0dbc 17000090 		adrp	x23, sd_hv
 1102 0dc0 E10240F9 		ldr	x1, [x23, #:lo12:sd_hv]
 1103 0dc4 730A0051 		sub	w19, w19, #2
 1104 0dc8 7F1E0071 		cmp	w19, 7
 1105 0dcc E0008052 		mov	w0, 7
 1106 0dd0 7392801A 		csel	w19, w19, w0, ls
 1107 0dd4 3F0800F1 		cmp	x1, 2
 1108 0dd8 20008052 		mov	w0, 1
 1109 0ddc 0020D31A 		lsl	w0, w0, w19
 1110 0de0 1530951A 		csel	w21, w0, w21, cc
 1111 0de4 BF0A0071 		cmp	w21, 2
 1112 0de8 09080054 		bls	.L294
 1113 0dec B81E1853 		ubfiz	w24, w21, 8, 8
 1114              	.L280:
 1115 0df0 00000090 		adrp	x0, .LC14
 1116 0df4 00000091 		add	x0, x0, :lo12:.LC14
 1117 0df8 00000094 		bl	kprintf_debug
 1118 0dfc 14000090 		adrp	x20, .LC2
 1119 0e00 94020091 		add	x20, x20, :lo12:.LC2
 1120 0e04 E103152A 		mov	w1, w21
 1121 0e08 E00314AA 		mov	x0, x20
 1122 0e0c 00000094 		bl	kprintf_debug
 1123 0e10 00000090 		adrp	x0, .LC15
 1124 0e14 00000091 		add	x0, x0, :lo12:.LC15
 1125 0e18 00000094 		bl	kprintf_debug
 1126 0e1c 960580D2 		mov	x22, 44
 1127 0e20 16E6A7F2 		movk	x22, 0x3f30, lsl 16
 1128 0e24 E103132A 		mov	w1, w19
 1129 0e28 E00314AA 		mov	x0, x20
 1130 0e2c 00000094 		bl	kprintf_debug
 1131 0e30 00000090 		adrp	x0, .LC4
 1132 0e34 00000091 		add	x0, x0, :lo12:.LC4
 1133 0e38 00000094 		bl	kprintf_debug
 1134 0e3c F40316AA 		mov	x20, x22
AARCH64 GAS  C:\Users\RAFAEL~1.ROM\AppData\Local\Temp\ccH9DRWF.s 			page 22


 1135 0e40 E00240F9 		ldr	x0, [x23, #:lo12:sd_hv]
 1136 0e44 A17E0253 		lsr	w1, w21, 2
 1137 0e48 C20240B9 		ldr	w2, [x22]
 1138 0e4c 21041A12 		and	w1, w1, 192
 1139 0e50 1F0400F1 		cmp	x0, 1
 1140 0e54 40018052 		mov	w0, 10
 1141 0e58 42541012 		and	w2, w2, -65473
 1142 0e5c 21809F1A 		csel	w1, w1, wzr, hi
 1143 0e60 4200182A 		orr	w2, w2, w24
 1144 0e64 F3E18452 		mov	w19, 9999
 1145 0e68 4100012A 		orr	w1, w2, w1
 1146 0e6c C10200B9 		str	w1, [x22]
 1147 0e70 00000094 		bl	delays_wait_microsecs
 1148 0e74 C10240B9 		ldr	w1, [x22]
 1149 0e78 40018052 		mov	w0, 10
 1150 0e7c 21001E32 		orr	w1, w1, 4
 1151 0e80 C10200B9 		str	w1, [x22]
 1152 0e84 00000094 		bl	delays_wait_microsecs
 1153 0e88 C00240B9 		ldr	w0, [x22]
 1154 0e8c A0000836 		tbz	x0, 1, .L288
 1155 0e90 09000014 		b	.L291
 1156              		.p2align 2,,3
 1157              	.L305:
 1158 0e94 73060051 		sub	w19, w19, #1
 1159 0e98 7F060031 		cmn	w19, #1
 1160 0e9c 80030054 		beq	.L290
 1161              	.L288:
 1162 0ea0 40018052 		mov	w0, 10
 1163 0ea4 00000094 		bl	delays_wait_microsecs
 1164 0ea8 800240B9 		ldr	w0, [x20]
 1165 0eac 40FF0F36 		tbz	x0, 1, .L305
 1166 0eb0 F3020034 		cbz	w19, .L290
 1167              	.L291:
 1168 0eb4 F76342A9 		ldp	x23, x24, [sp, 32]
 1169 0eb8 00008052 		mov	w0, 0
 1170              	.L274:
 1171 0ebc F55B41A9 		ldp	x21, x22, [sp, 16]
 1172 0ec0 FE1B40F9 		ldr	x30, [sp, 48]
 1173 0ec4 F353C4A8 		ldp	x19, x20, [sp], 64
 1174 0ec8 C0035FD6 		ret
 1175              		.p2align 2,,3
 1176              	.L292:
 1177 0ecc 18408052 		mov	w24, 512
 1178 0ed0 55008052 		mov	w21, 2
 1179 0ed4 17000090 		adrp	x23, sd_hv
 1180 0ed8 C6FFFF17 		b	.L280
 1181              		.p2align 2,,3
 1182              	.L293:
 1183 0edc 01038052 		mov	w1, 24
 1184 0ee0 00048052 		mov	w0, 32
 1185 0ee4 A9FFFF17 		b	.L281
 1186              	.L294:
 1187 0ee8 18408052 		mov	w24, 512
 1188 0eec 13008052 		mov	w19, 0
 1189 0ef0 55008052 		mov	w21, 2
 1190 0ef4 BFFFFF17 		b	.L280
 1191              	.L278:
AARCH64 GAS  C:\Users\RAFAEL~1.ROM\AppData\Local\Temp\ccH9DRWF.s 			page 23


 1192 0ef8 00000090 		adrp	x0, .LC13
 1193 0efc 00000091 		add	x0, x0, :lo12:.LC13
 1194 0f00 00000094 		bl	kprintf_debug
 1195 0f04 20008012 		mov	w0, -2
 1196 0f08 EDFFFF17 		b	.L274
 1197              	.L290:
 1198 0f0c 00000090 		adrp	x0, .LC16
 1199 0f10 00000091 		add	x0, x0, :lo12:.LC16
 1200 0f14 00000094 		bl	kprintf_debug
 1201 0f18 20008012 		mov	w0, -2
 1202 0f1c F76342A9 		ldp	x23, x24, [sp, 32]
 1203 0f20 E7FFFF17 		b	.L274
 1204              		.size	sd_clk, .-sd_clk
 1205              		.section	.rodata.str1.8
 1206 01cb 00000000 		.align	3
 1206      00
 1207              	.LC17:
 1208 01d0 454D4D43 		.string	"EMMC: GPIO set up\n"
 1208      3A204750 
 1208      494F2073 
 1208      65742075 
 1208      700A00
 1209 01e3 00000000 		.align	3
 1209      00
 1210              	.LC18:
 1211 01e8 4552524F 		.string	"ERROR: failed to reset EMMC\n"
 1211      523A2066 
 1211      61696C65 
 1211      6420746F 
 1211      20726573 
 1212 0205 000000   		.align	3
 1213              	.LC19:
 1214 0208 454D4D43 		.string	"EMMC: reset OK\n"
 1214      3A207265 
 1214      73657420 
 1214      4F4B0A00 
 1215              		.align	3
 1216              	.LC20:
 1217 0218 454D4D43 		.string	"EMMC: CMD_SEND_OP_COND returned "
 1217      3A20434D 
 1217      445F5345 
 1217      4E445F4F 
 1217      505F434F 
 1218 0239 00000000 		.align	3
 1218      000000
 1219              	.LC21:
 1220 0240 434F4D50 		.string	"COMPLETE "
 1220      4C455445 
 1220      2000
 1221 024a 00000000 		.align	3
 1221      0000
 1222              	.LC22:
 1223 0250 564F4C54 		.string	"VOLTAGE "
 1223      41474520 
 1223      00
 1224 0259 00000000 		.align	3
 1224      000000
AARCH64 GAS  C:\Users\RAFAEL~1.ROM\AppData\Local\Temp\ccH9DRWF.s 			page 24


 1225              	.LC23:
 1226 0260 43435320 		.string	"CCS "
 1226      00
 1227 0265 000000   		.align	3
 1228              	.LC24:
 1229 0268 4552524F 		.string	"ERROR: EMMC ACMD41 returned error\n"
 1229      523A2045 
 1229      4D4D4320 
 1229      41434D44 
 1229      34312072 
 1230 028b 00000000 		.align	3
 1230      00
 1231              	.LC25:
 1232 0290 454D4D43 		.string	"EMMC: CMD_SEND_REL_ADDR returned "
 1232      3A20434D 
 1232      445F5345 
 1232      4E445F52 
 1232      454C5F41 
 1233 02b2 00000000 		.align	3
 1233      0000
 1234              	.LC26:
 1235 02b8 454D4D43 		.string	"EMMC: supports "
 1235      3A207375 
 1235      70706F72 
 1235      74732000 
 1236              		.align	3
 1237              	.LC27:
 1238 02c8 5345545F 		.string	"SET_BLKCNT "
 1238      424C4B43 
 1238      4E542000 
 1239              		.text
 1240              		.align	2
 1241 0f24 1F2003D5 		.p2align 4,,15
 1241      1F2003D5 
 1241      1F2003D5 
 1242              		.global	sd_init
 1243              		.type	sd_init, %function
 1244              	sd_init:
 1245 0f30 F353B9A9 		stp	x19, x20, [sp, -112]!
 1246 0f34 941380D2 		mov	x20, 156
 1247 0f38 14E4A7F2 		movk	x20, 0x3f20, lsl 16
 1248 0f3c F55B01A9 		stp	x21, x22, [sp, 16]
 1249 0f40 160280D2 		mov	x22, 16
 1250 0f44 16E4A7F2 		movk	x22, 0x3f20, lsl 16
 1251 0f48 951280D2 		mov	x21, 148
 1252 0f4c 15E4A7F2 		movk	x21, 0x3f20, lsl 16
 1253 0f50 C10240B9 		ldr	w1, [x22]
 1254 0f54 C0128052 		mov	w0, 150
 1255 0f58 F76302A9 		stp	x23, x24, [sp, 32]
 1256 0f5c 57008052 		mov	w23, 2
 1257 0f60 217C4092 		and	x1, x1, 4294967295
 1258 0f64 FE2B00F9 		str	x30, [sp, 80]
 1259 0f68 21F06892 		and	x1, x1, -14680065
 1260 0f6c C10200B9 		str	w1, [x22]
 1261 0f70 13E284D2 		mov	x19, 10000
 1262 0f74 B70200B9 		str	w23, [x21]
 1263 0f78 00000094 		bl	delays_wait_cycles
AARCH64 GAS  C:\Users\RAFAEL~1.ROM\AppData\Local\Temp\ccH9DRWF.s 			page 25


 1264 0f7c 00009052 		mov	w0, 32768
 1265 0f80 800200B9 		str	w0, [x20]
 1266 0f84 C0128052 		mov	w0, 150
 1267 0f88 00000094 		bl	delays_wait_cycles
 1268 0f8c BF0200B9 		str	wzr, [x21]
 1269 0f90 020D80D2 		mov	x2, 104
 1270 0f94 02E4A7F2 		movk	x2, 0x3f20, lsl 16
 1271 0f98 9F0200B9 		str	wzr, [x20]
 1272 0f9c C0128052 		mov	w0, 150
 1273 0fa0 410040B9 		ldr	w1, [x2]
 1274 0fa4 21001132 		orr	w1, w1, 32768
 1275 0fa8 410000B9 		str	w1, [x2]
 1276 0fac C10240B9 		ldr	w1, [x22]
 1277 0fb0 21140832 		orr	w1, w1, 1056964608
 1278 0fb4 C10200B9 		str	w1, [x22]
 1279 0fb8 B70200B9 		str	w23, [x21]
 1280 0fbc 00000094 		bl	delays_wait_cycles
 1281 0fc0 6000A052 		mov	w0, 196608
 1282 0fc4 800200B9 		str	w0, [x20]
 1283 0fc8 C0128052 		mov	w0, 150
 1284 0fcc 00000094 		bl	delays_wait_cycles
 1285 0fd0 BF0200B9 		str	wzr, [x21]
 1286 0fd4 820280D2 		mov	x2, 20
 1287 0fd8 02E4A7F2 		movk	x2, 0x3f20, lsl 16
 1288 0fdc 9F0200B9 		str	wzr, [x20]
 1289 0fe0 C0128052 		mov	w0, 150
 1290 0fe4 410040B9 		ldr	w1, [x2]
 1291 0fe8 212C0032 		orr	w1, w1, 4095
 1292 0fec 410000B9 		str	w1, [x2]
 1293 0ff0 B70200B9 		str	w23, [x21]
 1294 0ff4 00000094 		bl	delays_wait_cycles
 1295 0ff8 8007A052 		mov	w0, 3932160
 1296 0ffc 800200B9 		str	w0, [x20]
 1297 1000 C0128052 		mov	w0, 150
 1298 1004 00000094 		bl	delays_wait_cycles
 1299 1008 BF0200B9 		str	wzr, [x21]
 1300 100c 811F80D2 		mov	x1, 252
 1301 1010 01E6A7F2 		movk	x1, 0x3f30, lsl 16
 1302 1014 9F0200B9 		str	wzr, [x20]
 1303 1018 02000090 		adrp	x2, sd_hv
 1304 101c 00000090 		adrp	x0, .LC17
 1305 1020 00000091 		add	x0, x0, :lo12:.LC17
 1306 1024 210040B9 		ldr	w1, [x1]
 1307 1028 215C50D3 		ubfx	x1, x1, 16, 8
 1308 102c 410000F9 		str	x1, [x2, #:lo12:sd_hv]
 1309 1030 00000094 		bl	kprintf_debug
 1310 1034 010580D2 		mov	x1, 40
 1311 1038 01E6A7F2 		movk	x1, 0x3f30, lsl 16
 1312 103c 800580D2 		mov	x0, 44
 1313 1040 00E6A7F2 		movk	x0, 0x3f30, lsl 16
 1314 1044 3F0000B9 		str	wzr, [x1]
 1315 1048 F40300AA 		mov	x20, x0
 1316 104c 010040B9 		ldr	w1, [x0]
 1317 1050 21000832 		orr	w1, w1, 16777216
 1318 1054 010000B9 		str	w1, [x0]
 1319 1058 04000014 		b	.L308
 1320              		.p2align 2,,3
AARCH64 GAS  C:\Users\RAFAEL~1.ROM\AppData\Local\Temp\ccH9DRWF.s 			page 26


 1321              	.L395:
 1322 105c 730600D1 		sub	x19, x19, #1
 1323 1060 7F0600B1 		cmn	x19, #1
 1324 1064 80210054 		beq	.L309
 1325              	.L308:
 1326 1068 40018052 		mov	w0, 10
 1327 106c 00000094 		bl	delays_wait_microsecs
 1328 1070 800240B9 		ldr	w0, [x20]
 1329 1074 40FFC737 		tbnz	x0, 24, .L395
 1330 1078 F32000B4 		cbz	x19, .L309
 1331 107c 00000090 		adrp	x0, .LC19
 1332 1080 00000091 		add	x0, x0, :lo12:.LC19
 1333 1084 00000094 		bl	kprintf_debug
 1334 1088 810240B9 		ldr	w1, [x20]
 1335 108c 22008052 		mov	w2, 1
 1336 1090 C201A072 		movk	w2, 0xe, lsl 16
 1337 1094 40018052 		mov	w0, 10
 1338 1098 2100022A 		orr	w1, w1, w2
 1339 109c 810200B9 		str	w1, [x20]
 1340 10a0 00000094 		bl	delays_wait_microsecs
 1341 10a4 00508352 		mov	w0, 6784
 1342 10a8 C000A072 		movk	w0, 0x6, lsl 16
 1343 10ac 00000094 		bl	sd_clk
 1344 10b0 F503002A 		mov	w21, w0
 1345 10b4 E0000034 		cbz	w0, .L396
 1346              	.L306:
 1347 10b8 E003152A 		mov	w0, w21
 1348 10bc F55B41A9 		ldp	x21, x22, [sp, 16]
 1349 10c0 F76342A9 		ldp	x23, x24, [sp, 32]
 1350 10c4 FE2B40F9 		ldr	x30, [sp, 80]
 1351 10c8 F353C7A8 		ldp	x19, x20, [sp], 112
 1352 10cc C0035FD6 		ret
 1353              		.p2align 2,,3
 1354              	.L396:
 1355 10d0 030780D2 		mov	x3, 56
 1356 10d4 03E6A7F2 		movk	x3, 0x3f30, lsl 16
 1357 10d8 820680D2 		mov	x2, 52
 1358 10dc 02E6A7F2 		movk	x2, 0x3f30, lsl 16
 1359 10e0 F96B03A9 		stp	x25, x26, [sp, 48]
 1360 10e4 01008012 		mov	w1, -1
 1361 10e8 16000090 		adrp	x22, sd_scr
 1362 10ec D9020091 		add	x25, x22, :lo12:sd_scr
 1363 10f0 610000B9 		str	w1, [x3]
 1364 10f4 13000090 		adrp	x19, sd_err
 1365 10f8 17000090 		adrp	x23, sd_rca
 1366 10fc 410000B9 		str	w1, [x2]
 1367 1100 01008052 		mov	w1, 0
 1368 1104 DF0200F9 		str	xzr, [x22, #:lo12:sd_scr]
 1369 1108 7F0200F9 		str	xzr, [x19, #:lo12:sd_err]
 1370 110c FF0200F9 		str	xzr, [x23, #:lo12:sd_rca]
 1371 1110 3F0700F9 		str	xzr, [x25, 8]
 1372 1114 00000094 		bl	sd_cmd
 1373 1118 750240F9 		ldr	x21, [x19, #:lo12:sd_err]
 1374 111c B50A00B5 		cbnz	x21, .L390
 1375 1120 41358052 		mov	w1, 426
 1376 1124 4000A152 		mov	w0, 134348800
 1377 1128 00000094 		bl	sd_cmd
AARCH64 GAS  C:\Users\RAFAEL~1.ROM\AppData\Local\Temp\ccH9DRWF.s 			page 27


 1378 112c D50080D2 		mov	x21, 6
 1379 1130 600240F9 		ldr	x0, [x19, #:lo12:sd_err]
 1380 1134 C00B00B5 		cbnz	x0, .L383
 1381 1138 18000090 		adrp	x24, .LC20
 1382 113c 18030091 		add	x24, x24, :lo12:.LC20
 1383 1140 00000090 		adrp	x0, .LC21
 1384 1144 00000091 		add	x0, x0, :lo12:.LC21
 1385 1148 FB7304A9 		stp	x27, x28, [sp, 64]
 1386 114c 1B009052 		mov	w27, 32768
 1387 1150 FB3FAA72 		movk	w27, 0x51ff, lsl 16
 1388 1154 E03700F9 		str	x0, [sp, 104]
 1389              	.L313:
 1390 1158 B50600D1 		sub	x21, x21, #1
 1391 115c 00328052 		mov	w0, 400
 1392 1160 BF0600B1 		cmn	x21, #1
 1393 1164 000B0054 		beq	.L323
 1394 1168 00000094 		bl	delays_wait_cycles
 1395 116c E1031B2A 		mov	w1, w27
 1396 1170 4020B552 		mov	w0, -1459486720
 1397 1174 00000094 		bl	sd_cmd
 1398 1178 147C4093 		sxtw	x20, w0
 1399 117c 81020212 		and	w1, w20, 1073741824
 1400 1180 FA0314AA 		mov	x26, x20
 1401 1184 E00318AA 		mov	x0, x24
 1402 1188 E16700B9 		str	w1, [sp, 100]
 1403 118c 00000094 		bl	kprintf_debug
 1404 1190 5409F837 		tbnz	w20, #31, .L397
 1405              	.L314:
 1406 1194 40231172 		ands	w0, w26, 16744448
 1407 1198 E06300B9 		str	w0, [sp, 96]
 1408 119c 81070054 		bne	.L398
 1409 11a0 FA07F037 		tbnz	x26, 30, .L399
 1410              	.L316:
 1411 11a4 03000090 		adrp	x3, .LC2
 1412 11a8 7C000091 		add	x28, x3, :lo12:.LC2
 1413 11ac 81FE7F93 		asr	x1, x20, 63
 1414 11b0 E0031CAA 		mov	x0, x28
 1415 11b4 00000094 		bl	kprintf_debug
 1416 11b8 E10314AA 		mov	x1, x20
 1417 11bc E0031CAA 		mov	x0, x28
 1418 11c0 14000090 		adrp	x20, .LC4
 1419 11c4 94020091 		add	x20, x20, :lo12:.LC4
 1420 11c8 00000094 		bl	kprintf_debug
 1421 11cc E00314AA 		mov	x0, x20
 1422 11d0 00000094 		bl	kprintf_debug
 1423 11d4 600240F9 		ldr	x0, [x19, #:lo12:sd_err]
 1424 11d8 000400D1 		sub	x0, x0, #1
 1425 11dc 1F0C00B1 		cmn	x0, #3
 1426 11e0 89140054 		bls	.L400
 1427 11e4 BAFBFF36 		tbz	w26, #31, .L313
 1428 11e8 F50600B4 		cbz	x21, .L323
 1429 11ec E06340B9 		ldr	w0, [sp, 96]
 1430 11f0 C0190034 		cbz	w0, .L347
 1431 11f4 01008052 		mov	w1, 0
 1432 11f8 2040A052 		mov	w0, 33619968
 1433 11fc 00000094 		bl	sd_cmd
 1434 1200 01008052 		mov	w1, 0
AARCH64 GAS  C:\Users\RAFAEL~1.ROM\AppData\Local\Temp\ccH9DRWF.s 			page 28


 1435 1204 4060A052 		mov	w0, 50462720
 1436 1208 00000094 		bl	sd_cmd
 1437 120c 017C4093 		sxtw	x1, w0
 1438 1210 00000090 		adrp	x0, .LC25
 1439 1214 00000091 		add	x0, x0, :lo12:.LC25
 1440 1218 E10200F9 		str	x1, [x23, #:lo12:sd_rca]
 1441 121c 00000094 		bl	kprintf_debug
 1442 1220 E10240B9 		ldr	w1, [x23, #:lo12:sd_rca+4]
 1443 1224 E0031CAA 		mov	x0, x28
 1444 1228 00000094 		bl	kprintf_debug
 1445 122c E10240F9 		ldr	x1, [x23, #:lo12:sd_rca]
 1446 1230 E0031CAA 		mov	x0, x28
 1447 1234 00000094 		bl	kprintf_debug
 1448 1238 E00314AA 		mov	x0, x20
 1449 123c 00000094 		bl	kprintf_debug
 1450 1240 00000090 		adrp	x0, sd_err
 1451 1244 00000091 		add	x0, x0, :lo12:sd_err
 1452 1248 150040F9 		ldr	x21, [x0]
 1453 124c D50000B5 		cbnz	x21, .L392
 1454 1250 00088F52 		mov	w0, 30784
 1455 1254 A02FA072 		movk	w0, 0x17d, lsl 16
 1456 1258 00000094 		bl	sd_clk
 1457 125c F503002A 		mov	w21, w0
 1458 1260 40040034 		cbz	w0, .L401
 1459              	.L392:
 1460 1264 F96B43A9 		ldp	x25, x26, [sp, 48]
 1461 1268 FB7344A9 		ldp	x27, x28, [sp, 64]
 1462 126c 93FFFF17 		b	.L306
 1463              		.p2align 2,,3
 1464              	.L390:
 1465 1270 E003152A 		mov	w0, w21
 1466 1274 F55B41A9 		ldp	x21, x22, [sp, 16]
 1467 1278 F76342A9 		ldp	x23, x24, [sp, 32]
 1468 127c F96B43A9 		ldp	x25, x26, [sp, 48]
 1469 1280 FE2B40F9 		ldr	x30, [sp, 80]
 1470 1284 F353C7A8 		ldp	x19, x20, [sp], 112
 1471 1288 C0035FD6 		ret
 1472              		.p2align 2,,3
 1473              	.L398:
 1474 128c 00000090 		adrp	x0, .LC22
 1475 1290 00000091 		add	x0, x0, :lo12:.LC22
 1476 1294 00000094 		bl	kprintf_debug
 1477 1298 7AF8F736 		tbz	x26, 30, .L316
 1478              	.L399:
 1479 129c 00000090 		adrp	x0, .LC23
 1480 12a0 00000091 		add	x0, x0, :lo12:.LC23
 1481 12a4 00000094 		bl	kprintf_debug
 1482 12a8 BFFFFF17 		b	.L316
 1483              	.L383:
 1484 12ac F503002A 		mov	w21, w0
 1485 12b0 F96B43A9 		ldp	x25, x26, [sp, 48]
 1486 12b4 81FFFF17 		b	.L306
 1487              		.p2align 2,,3
 1488              	.L397:
 1489 12b8 E03740F9 		ldr	x0, [sp, 104]
 1490 12bc 00000094 		bl	kprintf_debug
 1491 12c0 B5FFFF17 		b	.L314
AARCH64 GAS  C:\Users\RAFAEL~1.ROM\AppData\Local\Temp\ccH9DRWF.s 			page 29


 1492              	.L323:
 1493 12c4 15008012 		mov	w21, -1
 1494 12c8 E003152A 		mov	w0, w21
 1495 12cc F55B41A9 		ldp	x21, x22, [sp, 16]
 1496 12d0 F76342A9 		ldp	x23, x24, [sp, 32]
 1497 12d4 F96B43A9 		ldp	x25, x26, [sp, 48]
 1498 12d8 FB7344A9 		ldp	x27, x28, [sp, 64]
 1499 12dc FE2B40F9 		ldr	x30, [sp, 80]
 1500 12e0 F353C7A8 		ldp	x19, x20, [sp], 112
 1501 12e4 C0035FD6 		ret
 1502              	.L401:
 1503 12e8 E10240B9 		ldr	w1, [x23, #:lo12:sd_rca]
 1504 12ec 60E0A052 		mov	w0, 117637120
 1505 12f0 00000094 		bl	sd_cmd
 1506 12f4 00000090 		adrp	x0, sd_err
 1507 12f8 00000091 		add	x0, x0, :lo12:sd_err
 1508 12fc 000040F9 		ldr	x0, [x0]
 1509 1300 000B00B5 		cbnz	x0, .L393
 1510 1304 980480D2 		mov	x24, 36
 1511 1308 18E6A7F2 		movk	x24, 0x3f30, lsl 16
 1512 130c 1C488852 		mov	w28, 16960
 1513 1310 FC01A072 		movk	w28, 0xf, lsl 16
 1514 1314 000340B9 		ldr	w0, [x24]
 1515 1318 20020836 		tbz	x0, 1, .L327
 1516 131c 1B0680D2 		mov	x27, 48
 1517 1320 1BE6A7F2 		movk	x27, 0x3f30, lsl 16
 1518 1324 1A009052 		mov	w26, 32768
 1519 1328 DA2FA072 		movk	w26, 0x17e, lsl 16
 1520 132c 07000014 		b	.L322
 1521              		.p2align 2,,3
 1522              	.L402:
 1523 1330 9C070051 		sub	w28, w28, #1
 1524 1334 9F070031 		cmn	w28, #1
 1525 1338 60FCFF54 		beq	.L323
 1526 133c 00000094 		bl	delays_wait_microsecs
 1527 1340 000340B9 		ldr	w0, [x24]
 1528 1344 A0000836 		tbz	x0, 1, .L325
 1529              	.L322:
 1530 1348 610340B9 		ldr	w1, [x27]
 1531 134c 20008052 		mov	w0, 1
 1532 1350 3F001A6A 		tst	w1, w26
 1533 1354 E0FEFF54 		beq	.L402
 1534              	.L325:
 1535 1358 7CFBFF34 		cbz	w28, .L323
 1536              	.L327:
 1537 135c 1C0680D2 		mov	x28, 48
 1538 1360 1CE6A7F2 		movk	x28, 0x3f30, lsl 16
 1539 1364 00009052 		mov	w0, 32768
 1540 1368 C02FA072 		movk	w0, 0x17e, lsl 16
 1541 136c 810340B9 		ldr	w1, [x28]
 1542 1370 3F00006A 		tst	w1, w0
 1543 1374 81FAFF54 		bne	.L323
 1544 1378 810080D2 		mov	x1, 4
 1545 137c 01E6A7F2 		movk	x1, 0x3f30, lsl 16
 1546 1380 02018052 		mov	w2, 8
 1547 1384 2200A072 		movk	w2, 0x1, lsl 16
 1548 1388 220000B9 		str	w2, [x1]
AARCH64 GAS  C:\Users\RAFAEL~1.ROM\AppData\Local\Temp\ccH9DRWF.s 			page 30


 1549 138c 00028052 		mov	w0, 16
 1550 1390 4064B672 		movk	w0, 0xb322, lsl 16
 1551 1394 01008052 		mov	w1, 0
 1552 1398 00000094 		bl	sd_cmd
 1553 139c 600240F9 		ldr	x0, [x19, #:lo12:sd_err]
 1554 13a0 000600B5 		cbnz	x0, .L393
 1555 13a4 800340B9 		ldr	w0, [x28]
 1556 13a8 1A049052 		mov	w26, 32800
 1557 13ac DA2FA072 		movk	w26, 0x17e, lsl 16
 1558 13b0 F8478852 		mov	w24, 16959
 1559 13b4 F801A072 		movk	w24, 0xf, lsl 16
 1560 13b8 FB031CAA 		mov	x27, x28
 1561 13bc 1F001A6A 		tst	w0, w26
 1562 13c0 A0000054 		beq	.L329
 1563 13c4 6D000014 		b	.L403
 1564              		.p2align 2,,3
 1565              	.L405:
 1566 13c8 18070051 		sub	w24, w24, #1
 1567 13cc 1F070031 		cmn	w24, #1
 1568 13d0 400C0054 		beq	.L404
 1569              	.L329:
 1570 13d4 20008052 		mov	w0, 1
 1571 13d8 00000094 		bl	delays_wait_microsecs
 1572 13dc 600340B9 		ldr	w0, [x27]
 1573 13e0 1F001A6A 		tst	w0, w26
 1574 13e4 20FFFF54 		beq	.L405
 1575 13e8 600340B9 		ldr	w0, [x27]
 1576 13ec 980B0034 		cbz	w24, .L394
 1577              	.L333:
 1578 13f0 2102A052 		mov	w1, 1114112
 1579 13f4 1F00016A 		tst	w0, w1
 1580 13f8 210B0054 		bne	.L394
 1581 13fc 01009052 		mov	w1, 32768
 1582 1400 C12FA072 		movk	w1, 0x17e, lsl 16
 1583 1404 1F00016A 		tst	w0, w1
 1584 1408 A10A0054 		bne	.L394
 1585 140c 000680D2 		mov	x0, 48
 1586 1410 00E6A7F2 		movk	x0, 0x3f30, lsl 16
 1587 1414 01048052 		mov	w1, 32
 1588 1418 9A0480D2 		mov	x26, 36
 1589 141c 1AE6A7F2 		movk	x26, 0x3f30, lsl 16
 1590 1420 1B0480D2 		mov	x27, 32
 1591 1424 1BE6A7F2 		movk	x27, 0x3f30, lsl 16
 1592 1428 180080D2 		mov	x24, 0
 1593 142c 010000B9 		str	w1, [x0]
 1594              	.L340:
 1595 1430 400340B9 		ldr	w0, [x26]
 1596 1434 00015836 		tbz	x0, 11, .L337
 1597              	.L407:
 1598 1438 600340B9 		ldr	w0, [x27]
 1599 143c E003002A 		uxtw	x0, w0
 1600 1440 207B38F8 		str	x0, [x25, x24, lsl 3]
 1601 1444 380300B5 		cbnz	x24, .L406
 1602 1448 400340B9 		ldr	w0, [x26]
 1603 144c 380080D2 		mov	x24, 1
 1604 1450 40FF5F37 		tbnz	x0, 11, .L407
 1605              	.L337:
AARCH64 GAS  C:\Users\RAFAEL~1.ROM\AppData\Local\Temp\ccH9DRWF.s 			page 31


 1606 1454 20008052 		mov	w0, 1
 1607 1458 00000094 		bl	delays_wait_microsecs
 1608 145c F5FFFF17 		b	.L340
 1609              	.L393:
 1610 1460 F503002A 		mov	w21, w0
 1611 1464 F96B43A9 		ldp	x25, x26, [sp, 48]
 1612 1468 FB7344A9 		ldp	x27, x28, [sp, 64]
 1613 146c 13FFFF17 		b	.L306
 1614              	.L400:
 1615 1470 00000090 		adrp	x0, .LC24
 1616 1474 00000091 		add	x0, x0, :lo12:.LC24
 1617 1478 00000094 		bl	kprintf_debug
 1618 147c 00000090 		adrp	x0, sd_err
 1619 1480 00000091 		add	x0, x0, :lo12:sd_err
 1620 1484 F96B43A9 		ldp	x25, x26, [sp, 48]
 1621 1488 150040B9 		ldr	w21, [x0]
 1622 148c FB7344A9 		ldp	x27, x28, [sp, 64]
 1623 1490 0AFFFF17 		b	.L306
 1624              	.L309:
 1625 1494 00000090 		adrp	x0, .LC18
 1626 1498 00000091 		add	x0, x0, :lo12:.LC18
 1627 149c 35008012 		mov	w21, -2
 1628 14a0 00000094 		bl	kprintf_debug
 1629 14a4 05FFFF17 		b	.L306
 1630              	.L406:
 1631 14a8 200340F9 		ldr	x0, [x25]
 1632 14ac 80015036 		tbz	x0, 10, .L341
 1633 14b0 E10240F9 		ldr	x1, [x23, #:lo12:sd_rca]
 1634 14b4 40C0B052 		mov	w0, -2046689280
 1635 14b8 21001F32 		orr	w1, w1, 2
 1636 14bc 00000094 		bl	sd_cmd
 1637 14c0 600240F9 		ldr	x0, [x19, #:lo12:sd_err]
 1638 14c4 E0FCFFB5 		cbnz	x0, .L393
 1639 14c8 010580D2 		mov	x1, 40
 1640 14cc 01E6A7F2 		movk	x1, 0x3f30, lsl 16
 1641 14d0 200040B9 		ldr	w0, [x1]
 1642 14d4 00001F32 		orr	w0, w0, 2
 1643 14d8 200000B9 		str	w0, [x1]
 1644              	.L341:
 1645 14dc 00000090 		adrp	x0, .LC26
 1646 14e0 00000091 		add	x0, x0, :lo12:.LC26
 1647 14e4 00000094 		bl	kprintf_debug
 1648 14e8 C00240F9 		ldr	x0, [x22, #:lo12:sd_scr]
 1649 14ec E002C837 		tbnz	x0, 25, .L408
 1650              	.L343:
 1651 14f0 E06740B9 		ldr	w0, [sp, 100]
 1652 14f4 20020035 		cbnz	w0, .L409
 1653              	.L344:
 1654 14f8 E00314AA 		mov	x0, x20
 1655 14fc 00000094 		bl	kprintf_debug
 1656 1500 C00240F9 		ldr	x0, [x22, #:lo12:sd_scr]
 1657 1504 E16740B9 		ldr	w1, [sp, 100]
 1658 1508 00F87F92 		and	x0, x0, -2
 1659 150c 3F000071 		cmp	w1, 0
 1660 1510 E1079F9A 		cset	x1, ne
 1661 1514 000001AA 		orr	x0, x0, x1
 1662 1518 C00200F9 		str	x0, [x22, #:lo12:sd_scr]
AARCH64 GAS  C:\Users\RAFAEL~1.ROM\AppData\Local\Temp\ccH9DRWF.s 			page 32


 1663 151c F96B43A9 		ldp	x25, x26, [sp, 48]
 1664 1520 FB7344A9 		ldp	x27, x28, [sp, 64]
 1665 1524 E5FEFF17 		b	.L306
 1666              	.L347:
 1667 1528 35008012 		mov	w21, -2
 1668 152c F96B43A9 		ldp	x25, x26, [sp, 48]
 1669 1530 FB7344A9 		ldp	x27, x28, [sp, 64]
 1670 1534 E1FEFF17 		b	.L306
 1671              	.L409:
 1672 1538 00000090 		adrp	x0, .LC23
 1673 153c 00000091 		add	x0, x0, :lo12:.LC23
 1674 1540 00000094 		bl	kprintf_debug
 1675 1544 EDFFFF17 		b	.L344
 1676              	.L408:
 1677 1548 00000090 		adrp	x0, .LC27
 1678 154c 00000091 		add	x0, x0, :lo12:.LC27
 1679 1550 00000094 		bl	kprintf_debug
 1680 1554 E7FFFF17 		b	.L343
 1681              	.L404:
 1682 1558 600340B9 		ldr	w0, [x27]
 1683              	.L394:
 1684 155c 010680D2 		mov	x1, 48
 1685 1560 01E6A7F2 		movk	x1, 0x3f30, lsl 16
 1686 1564 15008012 		mov	w21, -1
 1687 1568 F96B43A9 		ldp	x25, x26, [sp, 48]
 1688 156c FB7344A9 		ldp	x27, x28, [sp, 64]
 1689 1570 200000B9 		str	w0, [x1]
 1690 1574 D1FEFF17 		b	.L306
 1691              	.L403:
 1692 1578 800340B9 		ldr	w0, [x28]
 1693 157c 9DFFFF17 		b	.L333
 1694              		.size	sd_init, .-sd_init
 1695              		.comm	sd_hv,8,8
 1696              		.comm	sd_err,8,8
 1697              		.comm	sd_rca,8,8
 1698              		.comm	sd_ocr,8,8
 1699              		.comm	sd_scr,16,8
 1700              		.ident	"GCC: (GNU Toolchain for the A-profile Architecture 9.2-2020.02 (arm-9.10)) 9.2.1 20191025"
AARCH64 GAS  C:\Users\RAFAEL~1.ROM\AppData\Local\Temp\ccH9DRWF.s 			page 33


DEFINED SYMBOLS
                            *ABS*:0000000000000000 sd.c
C:\Users\RAFAEL~1.ROM\AppData\Local\Temp\ccH9DRWF.s:4      .text:0000000000000000 $x
C:\Users\RAFAEL~1.ROM\AppData\Local\Temp\ccH9DRWF.s:8      .text:0000000000000000 sd_status
C:\Users\RAFAEL~1.ROM\AppData\Local\Temp\ccH9DRWF.s:69     .text:00000000000000c0 sd_int
C:\Users\RAFAEL~1.ROM\AppData\Local\Temp\ccH9DRWF.s:134    .rodata.str1.8:0000000000000000 $d
C:\Users\RAFAEL~1.ROM\AppData\Local\Temp\ccH9DRWF.s:160    .text:00000000000001a0 sd_cmd
                            *COM*:0000000000000008 sd_err
                            *COM*:0000000000000008 sd_rca
C:\Users\RAFAEL~1.ROM\AppData\Local\Temp\ccH9DRWF.s:438    .text:0000000000000530 sd_readblock
                            *COM*:0000000000000010 sd_scr
C:\Users\RAFAEL~1.ROM\AppData\Local\Temp\ccH9DRWF.s:707    .text:00000000000008a0 sd_writeblock
C:\Users\RAFAEL~1.ROM\AppData\Local\Temp\ccH9DRWF.s:1041   .text:0000000000000cf0 sd_clk
                            *COM*:0000000000000008 sd_hv
C:\Users\RAFAEL~1.ROM\AppData\Local\Temp\ccH9DRWF.s:1244   .text:0000000000000f30 sd_init
                            *COM*:0000000000000008 sd_ocr

UNDEFINED SYMBOLS
delays_wait_microsecs
kprintf_debug
delays_wait_cycles
AARCH64 GAS  C:\Users\RAFAEL~1.ROM\AppData\Local\Temp\ccH9DRWF.s 			page 1


   1              		.arch armv8-a
   2              		.file	"uart.c"
   3              		.text
   4              		.align	2
   5              		.p2align 4,,15
   6              		.global	uart0_init
   7              		.type	uart0_init, %function
   8              	uart0_init:
   9 0000 F353BEA9 		stp	x19, x20, [sp, -32]!
  10 0004 130682D2 		mov	x19, 4144
  11 0008 13E4A7F2 		movk	x19, 0x3f20, lsl 16
  12 000c 00000090 		adrp	x0, mbox
  13 0010 01000091 		add	x1, x0, :lo12:mbox
  14 0014 F57B01A9 		stp	x21, x30, [sp, 16]
  15 0018 82048052 		mov	w2, 36
  16 001c 43009052 		mov	w3, 32770
  17 0020 6300A072 		movk	w3, 0x3, lsl 16
  18 0024 7F0200B9 		str	wzr, [x19]
  19 0028 020000B9 		str	w2, [x0, #:lo12:mbox]
  20 002c 82018052 		mov	w2, 12
  21 0030 3F0400B9 		str	wzr, [x1, 4]
  22 0034 00018052 		mov	w0, 8
  23 0038 230800B9 		str	w3, [x1, 8]
  24 003c 54008052 		mov	w20, 2
  25 0040 220C00B9 		str	w2, [x1, 12]
  26 0044 02208152 		mov	w2, 2304
  27 0048 A207A072 		movk	w2, 0x3d, lsl 16
  28 004c 201000B9 		str	w0, [x1, 16]
  29 0050 341400B9 		str	w20, [x1, 20]
  30 0054 151380D2 		mov	x21, 152
  31 0058 15E4A7F2 		movk	x21, 0x3f20, lsl 16
  32 005c 221800B9 		str	w2, [x1, 24]
  33 0060 3F1C00B9 		str	wzr, [x1, 28]
  34 0064 3F2000B9 		str	wzr, [x1, 32]
  35 0068 00000094 		bl	mbox_call
  36 006c 820080D2 		mov	x2, 4
  37 0070 02E4A7F2 		movk	x2, 0x3f20, lsl 16
  38 0074 831280D2 		mov	x3, 148
  39 0078 03E4A7F2 		movk	x3, 0x3f20, lsl 16
  40 007c 410040B9 		ldr	w1, [x2]
  41 0080 04008852 		mov	w4, 16384
  42 0084 4400A072 		movk	w4, 0x2, lsl 16
  43 0088 C0128052 		mov	w0, 150
  44 008c 21640E12 		and	w1, w1, -258049
  45 0090 2100042A 		orr	w1, w1, w4
  46 0094 410000B9 		str	w1, [x2]
  47 0098 7F0000B9 		str	wzr, [x3]
  48 009c 00000094 		bl	delays_wait_cycles
  49 00a0 00009852 		mov	w0, 49152
  50 00a4 A00200B9 		str	w0, [x21]
  51 00a8 C0128052 		mov	w0, 150
  52 00ac 00000094 		bl	delays_wait_cycles
  53 00b0 BF0200B9 		str	wzr, [x21]
  54 00b4 800882D2 		mov	x0, 4164
  55 00b8 00E4A7F2 		movk	x0, 0x3f20, lsl 16
  56 00bc 820482D2 		mov	x2, 4132
  57 00c0 02E4A7F2 		movk	x2, 0x3f20, lsl 16
AARCH64 GAS  C:\Users\RAFAEL~1.ROM\AppData\Local\Temp\ccH9DRWF.s 			page 2


  58 00c4 E3FF8052 		mov	w3, 2047
  59 00c8 010582D2 		mov	x1, 4136
  60 00cc 01E4A7F2 		movk	x1, 0x3f20, lsl 16
  61 00d0 F57B41A9 		ldp	x21, x30, [sp, 16]
  62 00d4 030000B9 		str	w3, [x0]
  63 00d8 800582D2 		mov	x0, 4140
  64 00dc 00E4A7F2 		movk	x0, 0x3f20, lsl 16
  65 00e0 540000B9 		str	w20, [x2]
  66 00e4 62018052 		mov	w2, 11
  67 00e8 220000B9 		str	w2, [x1]
  68 00ec 010C8052 		mov	w1, 96
  69 00f0 010000B9 		str	w1, [x0]
  70 00f4 20608052 		mov	w0, 769
  71 00f8 600200B9 		str	w0, [x19]
  72 00fc F353C2A8 		ldp	x19, x20, [sp], 32
  73 0100 C0035FD6 		ret
  74              		.size	uart0_init, .-uart0_init
  75              		.align	2
  76 0104 1F2003D5 		.p2align 4,,15
  76      1F2003D5 
  76      1F2003D5 
  77              		.global	uart0_puthex_64_bits
  78              		.type	uart0_puthex_64_bits, %function
  79              	uart0_puthex_64_bits:
  80 0110 020382D2 		mov	x2, 4120
  81 0114 02E4A7F2 		movk	x2, 0x3f20, lsl 16
  82 0118 050082D2 		mov	x5, 4096
  83 011c 05E4A7F2 		movk	x5, 0x3f20, lsl 16
  84 0120 83078052 		mov	w3, 60
  85 0124 E7068052 		mov	w7, 55
  86 0128 06068052 		mov	w6, 48
  87 012c 1F2003D5 		.p2align 3,,7
  88              	.L7:
  89 0130 0124C39A 		lsr	x1, x0, x3
  90 0134 210C0012 		and	w1, w1, 15
  91 0138 3F240071 		cmp	w1, 9
  92 013c E480861A 		csel	w4, w7, w6, hi
  93 0140 8400010B 		add	w4, w4, w1
  94 0144 1F2003D5 		.p2align 3,,7
  95              	.L6:
  96              		// Start of user assembly
  97              	// 136 "src/drivers/uart/uart.c" 1
  98 0148 1F2003D5 		nop
  99              	// 0 "" 2
 100              		// End of user assembly
 101 014c 410040B9 		ldr	w1, [x2]
 102 0150 C1FF2F37 		tbnz	x1, 5, .L6
 103 0154 A40000B9 		str	w4, [x5]
 104 0158 63100051 		sub	w3, w3, #4
 105 015c 7F100031 		cmn	w3, #4
 106 0160 81FEFF54 		bne	.L7
 107 0164 C0035FD6 		ret
 108              		.size	uart0_puthex_64_bits, .-uart0_puthex_64_bits
 109              		.align	2
 110 0168 1F2003D5 		.p2align 4,,15
 110      1F2003D5 
 111              		.global	uart0_puthex_32_bits
AARCH64 GAS  C:\Users\RAFAEL~1.ROM\AppData\Local\Temp\ccH9DRWF.s 			page 3


 112              		.type	uart0_puthex_32_bits, %function
 113              	uart0_puthex_32_bits:
 114 0170 020382D2 		mov	x2, 4120
 115 0174 02E4A7F2 		movk	x2, 0x3f20, lsl 16
 116 0178 050082D2 		mov	x5, 4096
 117 017c 05E4A7F2 		movk	x5, 0x3f20, lsl 16
 118 0180 83038052 		mov	w3, 28
 119 0184 E7068052 		mov	w7, 55
 120 0188 06068052 		mov	w6, 48
 121 018c 1F2003D5 		.p2align 3,,7
 122              	.L14:
 123 0190 0124C31A 		lsr	w1, w0, w3
 124 0194 210C0012 		and	w1, w1, 15
 125 0198 3F240071 		cmp	w1, 9
 126 019c E480861A 		csel	w4, w7, w6, hi
 127 01a0 8400010B 		add	w4, w4, w1
 128 01a4 1F2003D5 		.p2align 3,,7
 129              	.L13:
 130              		// Start of user assembly
 131              	// 136 "src/drivers/uart/uart.c" 1
 132 01a8 1F2003D5 		nop
 133              	// 0 "" 2
 134              		// End of user assembly
 135 01ac 410040B9 		ldr	w1, [x2]
 136 01b0 C1FF2F37 		tbnz	x1, 5, .L13
 137 01b4 A40000B9 		str	w4, [x5]
 138 01b8 63100051 		sub	w3, w3, #4
 139 01bc 7F100031 		cmn	w3, #4
 140 01c0 81FEFF54 		bne	.L14
 141 01c4 C0035FD6 		ret
 142              		.size	uart0_puthex_32_bits, .-uart0_puthex_32_bits
 143              		.align	2
 144 01c8 1F2003D5 		.p2align 4,,15
 144      1F2003D5 
 145              		.global	uart0_putc
 146              		.type	uart0_putc, %function
 147              	uart0_putc:
 148 01d0 001C0012 		and	w0, w0, 255
 149 01d4 020382D2 		mov	x2, 4120
 150 01d8 02E4A7F2 		movk	x2, 0x3f20, lsl 16
 151 01dc 1F2003D5 		.p2align 3,,7
 152              	.L19:
 153              		// Start of user assembly
 154              	// 136 "src/drivers/uart/uart.c" 1
 155 01e0 1F2003D5 		nop
 156              	// 0 "" 2
 157              		// End of user assembly
 158 01e4 410040B9 		ldr	w1, [x2]
 159 01e8 C1FF2F37 		tbnz	x1, 5, .L19
 160 01ec 010082D2 		mov	x1, 4096
 161 01f0 01E4A7F2 		movk	x1, 0x3f20, lsl 16
 162 01f4 200000B9 		str	w0, [x1]
 163 01f8 C0035FD6 		ret
 164              		.size	uart0_putc, .-uart0_putc
 165              		.align	2
 166 01fc 1F2003D5 		.p2align 4,,15
 167              		.global	uart0_nonblocking_getc
AARCH64 GAS  C:\Users\RAFAEL~1.ROM\AppData\Local\Temp\ccH9DRWF.s 			page 4


 168              		.type	uart0_nonblocking_getc, %function
 169              	uart0_nonblocking_getc:
 170 0200 020382D2 		mov	x2, 4120
 171 0204 02E4A7F2 		movk	x2, 0x3f20, lsl 16
 172 0208 E10300AA 		mov	x1, x0
 173 020c 400040B9 		ldr	w0, [x2]
 174 0210 C0012037 		tbnz	x0, 4, .L24
 175 0214 000082D2 		mov	x0, 4096
 176 0218 00E4A7F2 		movk	x0, 0x3f20, lsl 16
 177 021c 020040B9 		ldr	w2, [x0]
 178 0220 421C0012 		and	w2, w2, 255
 179 0224 5F340071 		cmp	w2, 13
 180 0228 80000054 		beq	.L23
 181 022c 20008052 		mov	w0, 1
 182 0230 22000039 		strb	w2, [x1]
 183              	.L21:
 184 0234 C0035FD6 		ret
 185              		.p2align 2,,3
 186              	.L23:
 187 0238 42018052 		mov	w2, 10
 188 023c 20008052 		mov	w0, 1
 189 0240 22000039 		strb	w2, [x1]
 190 0244 FCFFFF17 		b	.L21
 191              		.p2align 2,,3
 192              	.L24:
 193 0248 00008052 		mov	w0, 0
 194 024c C0035FD6 		ret
 195              		.size	uart0_nonblocking_getc, .-uart0_nonblocking_getc
 196              		.align	2
 197              		.p2align 4,,15
 198              		.global	uart0_getc
 199              		.type	uart0_getc, %function
 200              	uart0_getc:
 201 0250 010382D2 		mov	x1, 4120
 202 0254 01E4A7F2 		movk	x1, 0x3f20, lsl 16
 203              		.p2align 3,,7
 204              	.L27:
 205              		// Start of user assembly
 206              	// 163 "src/drivers/uart/uart.c" 1
 207 0258 1F2003D5 		nop
 208              	// 0 "" 2
 209              		// End of user assembly
 210 025c 200040B9 		ldr	w0, [x1]
 211 0260 C0FF2737 		tbnz	x0, 4, .L27
 212 0264 000082D2 		mov	x0, 4096
 213 0268 00E4A7F2 		movk	x0, 0x3f20, lsl 16
 214 026c 41018052 		mov	w1, 10
 215 0270 000040B9 		ldr	w0, [x0]
 216 0274 001C0012 		and	w0, w0, 255
 217 0278 1F340071 		cmp	w0, 13
 218 027c 0010811A 		csel	w0, w0, w1, ne
 219 0280 C0035FD6 		ret
 220              		.size	uart0_getc, .-uart0_getc
 221              		.align	2
 222 0284 1F2003D5 		.p2align 4,,15
 222      1F2003D5 
 222      1F2003D5 
AARCH64 GAS  C:\Users\RAFAEL~1.ROM\AppData\Local\Temp\ccH9DRWF.s 			page 5


 223              		.global	uart0_puts
 224              		.type	uart0_puts, %function
 225              	uart0_puts:
 226 0290 03004039 		ldrb	w3, [x0]
 227 0294 23020034 		cbz	w3, .L30
 228 0298 020382D2 		mov	x2, 4120
 229 029c 02E4A7F2 		movk	x2, 0x3f20, lsl 16
 230 02a0 040082D2 		mov	x4, 4096
 231 02a4 04E4A7F2 		movk	x4, 0x3f20, lsl 16
 232 02a8 A5018052 		mov	w5, 13
 233 02ac 1F2003D5 		.p2align 3,,7
 234              	.L31:
 235 02b0 7F280071 		cmp	w3, 10
 236 02b4 40010054 		beq	.L33
 237              	.L32:
 238 02b8 00040091 		add	x0, x0, 1
 239 02bc 1F2003D5 		.p2align 3,,7
 240              	.L34:
 241              		// Start of user assembly
 242              	// 136 "src/drivers/uart/uart.c" 1
 243 02c0 1F2003D5 		nop
 244              	// 0 "" 2
 245              		// End of user assembly
 246 02c4 410040B9 		ldr	w1, [x2]
 247 02c8 C1FF2F37 		tbnz	x1, 5, .L34
 248 02cc 830000B9 		str	w3, [x4]
 249 02d0 03004039 		ldrb	w3, [x0]
 250 02d4 E3FEFF35 		cbnz	w3, .L31
 251              	.L30:
 252 02d8 C0035FD6 		ret
 253              		.p2align 2,,3
 254              	.L33:
 255              		// Start of user assembly
 256              	// 136 "src/drivers/uart/uart.c" 1
 257 02dc 1F2003D5 		nop
 258              	// 0 "" 2
 259              		// End of user assembly
 260 02e0 410040B9 		ldr	w1, [x2]
 261 02e4 C1FF2F37 		tbnz	x1, 5, .L33
 262 02e8 850000B9 		str	w5, [x4]
 263 02ec 03004039 		ldrb	w3, [x0]
 264 02f0 F2FFFF17 		b	.L32
 265              		.size	uart0_puts, .-uart0_puts
 266              		.section	.rodata.str1.8,"aMS",@progbits,1
 267              		.align	3
 268              	.LC0:
 269 0000 3A2000   		.string	": "
 270              		.text
 271              		.align	2
 272 02f4 1F2003D5 		.p2align 4,,15
 272      1F2003D5 
 272      1F2003D5 
 273              		.global	uart0_dump
 274              		.type	uart0_dump, %function
 275              	uart0_dump:
 276 0300 01000891 		add	x1, x0, 512
 277 0304 E50300AA 		mov	x5, x0
AARCH64 GAS  C:\Users\RAFAEL~1.ROM\AppData\Local\Temp\ccH9DRWF.s 			page 6


 278 0308 1F0001EB 		cmp	x0, x1
 279 030c 820F0054 		bcs	.L40
 280 0310 0D400091 		add	x13, x0, 16
 281 0314 000480D2 		mov	x0, 32
 282 0318 3F000DEB 		cmp	x1, x13
 283 031c E803002A 		mov	w8, w0
 284 0320 00249F9A 		csinc	x0, x0, xzr, cs
 285 0324 10000090 		adrp	x16, .LC0
 286 0328 10020091 		add	x16, x16, :lo12:.LC0
 287 032c E9030DAA 		mov	x9, x13
 288 0330 AF10008B 		add	x15, x5, x0, lsl 4
 289 0334 030082D2 		mov	x3, 4096
 290 0338 03E4A7F2 		movk	x3, 0x3f20, lsl 16
 291 033c 000382D2 		mov	x0, 4120
 292 0340 00E4A7F2 		movk	x0, 0x3f20, lsl 16
 293 0344 EC068052 		mov	w12, 55
 294 0348 0B068052 		mov	w11, 48
 295 034c AE018052 		mov	w14, 13
 296 0350 E70680D2 		mov	x7, 55
 297 0354 060680D2 		mov	x6, 48
 298 0358 CA058052 		mov	w10, 46
 299 035c 51018052 		mov	w17, 10
 300              	.L63:
 301 0360 F203052A 		mov	w18, w5
 302 0364 84038052 		mov	w4, 28
 303              		.p2align 3,,7
 304              	.L44:
 305 0368 4126C41A 		lsr	w1, w18, w4
 306 036c 210C0012 		and	w1, w1, 15
 307 0370 3F240071 		cmp	w1, 9
 308 0374 82818B1A 		csel	w2, w12, w11, hi
 309 0378 2200020B 		add	w2, w1, w2
 310 037c 1F2003D5 		.p2align 3,,7
 311              	.L43:
 312              		// Start of user assembly
 313              	// 136 "src/drivers/uart/uart.c" 1
 314 0380 1F2003D5 		nop
 315              	// 0 "" 2
 316              		// End of user assembly
 317 0384 010040B9 		ldr	w1, [x0]
 318 0388 C1FF2F37 		tbnz	x1, 5, .L43
 319 038c 620000B9 		str	w2, [x3]
 320 0390 84100051 		sub	w4, w4, #4
 321 0394 9F100031 		cmn	w4, #4
 322 0398 81FEFF54 		bne	.L44
 323 039c E40310AA 		mov	x4, x16
 324 03a0 42078052 		mov	w2, 58
 325 03a4 1F2003D5 		.p2align 3,,7
 326              	.L45:
 327 03a8 84040091 		add	x4, x4, 1
 328 03ac 1F2003D5 		.p2align 3,,7
 329              	.L48:
 330              		// Start of user assembly
 331              	// 136 "src/drivers/uart/uart.c" 1
 332 03b0 1F2003D5 		nop
 333              	// 0 "" 2
 334              		// End of user assembly
AARCH64 GAS  C:\Users\RAFAEL~1.ROM\AppData\Local\Temp\ccH9DRWF.s 			page 7


 335 03b4 010040B9 		ldr	w1, [x0]
 336 03b8 C1FF2F37 		tbnz	x1, 5, .L48
 337 03bc 620000B9 		str	w2, [x3]
 338 03c0 81004039 		ldrb	w1, [x4]
 339 03c4 81010034 		cbz	w1, .L82
 340 03c8 3F280071 		cmp	w1, 10
 341 03cc 60000054 		beq	.L47
 342 03d0 E203012A 		mov	w2, w1
 343 03d4 F5FFFF17 		b	.L45
 344              		.p2align 2,,3
 345              	.L47:
 346              		// Start of user assembly
 347              	// 136 "src/drivers/uart/uart.c" 1
 348 03d8 1F2003D5 		nop
 349              	// 0 "" 2
 350              		// End of user assembly
 351 03dc 010040B9 		ldr	w1, [x0]
 352 03e0 C1FF2F37 		tbnz	x1, 5, .L47
 353 03e4 6E0000B9 		str	w14, [x3]
 354 03e8 81004039 		ldrb	w1, [x4]
 355 03ec E203012A 		mov	w2, w1
 356 03f0 EEFFFF17 		b	.L45
 357              	.L82:
 358 03f4 040080D2 		mov	x4, 0
 359              		.p2align 3,,7
 360              	.L57:
 361 03f8 A2686438 		ldrb	w2, [x5, x4]
 362 03fc 411C44D3 		ubfx	x1, x2, 4, 4
 363 0400 3F2400F1 		cmp	x1, 9
 364 0404 F280869A 		csel	x18, x7, x6, hi
 365 0408 5202018B 		add	x18, x18, x1
 366 040c 1F2003D5 		.p2align 3,,7
 367              	.L51:
 368              		// Start of user assembly
 369              	// 136 "src/drivers/uart/uart.c" 1
 370 0410 1F2003D5 		nop
 371              	// 0 "" 2
 372              		// End of user assembly
 373 0414 010040B9 		ldr	w1, [x0]
 374 0418 C1FF2F37 		tbnz	x1, 5, .L51
 375 041c 410C0012 		and	w1, w2, 15
 376 0420 420C4092 		and	x2, x2, 15
 377 0424 3F280071 		cmp	w1, 10
 378 0428 720000B9 		str	w18, [x3]
 379 042c C130879A 		csel	x1, x6, x7, cc
 380 0430 2200028B 		add	x2, x1, x2
 381 0434 1F2003D5 		.p2align 3,,7
 382              	.L53:
 383              		// Start of user assembly
 384              	// 136 "src/drivers/uart/uart.c" 1
 385 0438 1F2003D5 		nop
 386              	// 0 "" 2
 387              		// End of user assembly
 388 043c 010040B9 		ldr	w1, [x0]
 389 0440 C1FF2F37 		tbnz	x1, 5, .L53
 390 0444 620000B9 		str	w2, [x3]
 391              		.p2align 3,,7
AARCH64 GAS  C:\Users\RAFAEL~1.ROM\AppData\Local\Temp\ccH9DRWF.s 			page 8


 392              	.L54:
 393              		// Start of user assembly
 394              	// 136 "src/drivers/uart/uart.c" 1
 395 0448 1F2003D5 		nop
 396              	// 0 "" 2
 397              		// End of user assembly
 398 044c 010040B9 		ldr	w1, [x0]
 399 0450 C1FF2F37 		tbnz	x1, 5, .L54
 400 0454 680000B9 		str	w8, [x3]
 401 0458 81044092 		and	x1, x4, 3
 402 045c 3F0C00F1 		cmp	x1, 3
 403 0460 40040054 		beq	.L56
 404              	.L55:
 405 0464 84040091 		add	x4, x4, 1
 406 0468 9F4000F1 		cmp	x4, 16
 407 046c 61FCFF54 		bne	.L57
 408 0470 E40305AA 		mov	x4, x5
 409 0474 1F2003D5 		.p2align 3,,7
 410              	.L60:
 411 0478 82004039 		ldrb	w2, [x4]
 412 047c 41800051 		sub	w1, w2, #32
 413 0480 211C0012 		and	w1, w1, 255
 414 0484 3F7C0171 		cmp	w1, 95
 415 0488 42308A1A 		csel	w2, w2, w10, cc
 416 048c 1F2003D5 		.p2align 3,,7
 417              	.L59:
 418              		// Start of user assembly
 419              	// 136 "src/drivers/uart/uart.c" 1
 420 0490 1F2003D5 		nop
 421              	// 0 "" 2
 422              		// End of user assembly
 423 0494 010040B9 		ldr	w1, [x0]
 424 0498 C1FF2F37 		tbnz	x1, 5, .L59
 425 049c 620000B9 		str	w2, [x3]
 426 04a0 84040091 		add	x4, x4, 1
 427 04a4 3F0104EB 		cmp	x9, x4
 428 04a8 81FEFF54 		bne	.L60
 429 04ac 1F2003D5 		.p2align 3,,7
 430              	.L61:
 431              		// Start of user assembly
 432              	// 136 "src/drivers/uart/uart.c" 1
 433 04b0 1F2003D5 		nop
 434              	// 0 "" 2
 435              		// End of user assembly
 436 04b4 010040B9 		ldr	w1, [x0]
 437 04b8 C1FF2F37 		tbnz	x1, 5, .L61
 438 04bc 6E0000B9 		str	w14, [x3]
 439              		.p2align 3,,7
 440              	.L62:
 441              		// Start of user assembly
 442              	// 136 "src/drivers/uart/uart.c" 1
 443 04c0 1F2003D5 		nop
 444              	// 0 "" 2
 445              		// End of user assembly
 446 04c4 010040B9 		ldr	w1, [x0]
 447 04c8 C1FF2F37 		tbnz	x1, 5, .L62
 448 04cc 710000B9 		str	w17, [x3]
AARCH64 GAS  C:\Users\RAFAEL~1.ROM\AppData\Local\Temp\ccH9DRWF.s 			page 9


 449 04d0 29410091 		add	x9, x9, 16
 450 04d4 BF010FEB 		cmp	x13, x15
 451 04d8 E5030DAA 		mov	x5, x13
 452 04dc 00010054 		beq	.L40
 453 04e0 AD410091 		add	x13, x13, 16
 454 04e4 9FFFFF17 		b	.L63
 455              		.p2align 2,,3
 456              	.L56:
 457              		// Start of user assembly
 458              	// 136 "src/drivers/uart/uart.c" 1
 459 04e8 1F2003D5 		nop
 460              	// 0 "" 2
 461              		// End of user assembly
 462 04ec 010040B9 		ldr	w1, [x0]
 463 04f0 C1FF2F37 		tbnz	x1, 5, .L56
 464 04f4 680000B9 		str	w8, [x3]
 465 04f8 DBFFFF17 		b	.L55
 466              	.L40:
 467 04fc C0035FD6 		ret
 468              		.size	uart0_dump, .-uart0_dump
 469              		.ident	"GCC: (GNU Toolchain for the A-profile Architecture 9.2-2020.02 (arm-9.10)) 9.2.1 20191025"
AARCH64 GAS  C:\Users\RAFAEL~1.ROM\AppData\Local\Temp\ccH9DRWF.s 			page 10


DEFINED SYMBOLS
                            *ABS*:0000000000000000 uart.c
C:\Users\RAFAEL~1.ROM\AppData\Local\Temp\ccH9DRWF.s:4      .text:0000000000000000 $x
C:\Users\RAFAEL~1.ROM\AppData\Local\Temp\ccH9DRWF.s:8      .text:0000000000000000 uart0_init
C:\Users\RAFAEL~1.ROM\AppData\Local\Temp\ccH9DRWF.s:79     .text:0000000000000110 uart0_puthex_64_bits
C:\Users\RAFAEL~1.ROM\AppData\Local\Temp\ccH9DRWF.s:113    .text:0000000000000170 uart0_puthex_32_bits
C:\Users\RAFAEL~1.ROM\AppData\Local\Temp\ccH9DRWF.s:147    .text:00000000000001d0 uart0_putc
C:\Users\RAFAEL~1.ROM\AppData\Local\Temp\ccH9DRWF.s:169    .text:0000000000000200 uart0_nonblocking_getc
C:\Users\RAFAEL~1.ROM\AppData\Local\Temp\ccH9DRWF.s:200    .text:0000000000000250 uart0_getc
C:\Users\RAFAEL~1.ROM\AppData\Local\Temp\ccH9DRWF.s:225    .text:0000000000000290 uart0_puts
C:\Users\RAFAEL~1.ROM\AppData\Local\Temp\ccH9DRWF.s:267    .rodata.str1.8:0000000000000000 $d
C:\Users\RAFAEL~1.ROM\AppData\Local\Temp\ccH9DRWF.s:275    .text:0000000000000300 uart0_dump

UNDEFINED SYMBOLS
mbox
mbox_call
delays_wait_cycles
AARCH64 GAS  C:\Users\RAFAEL~1.ROM\AppData\Local\Temp\ccH9DRWF.s 			page 1


   1              		.arch armv8-a
   2              		.file	"fat.c"
   3              		.text
   4              		.align	2
   5              		.p2align 4,,15
   6              		.global	fat_init
   7              		.type	fat_init, %function
   8              	fat_init:
   9 0000 F353BDA9 		stp	x19, x20, [sp, -48]!
  10 0004 13000090 		adrp	x19, buffer
  11 0008 73020091 		add	x19, x19, :lo12:buffer
  12 000c 22008052 		mov	w2, 1
  13 0010 01008052 		mov	w1, 0
  14 0014 E00313AA 		mov	x0, x19
  15 0018 FE1300F9 		str	x30, [sp, 32]
  16 001c 00000094 		bl	hal_sd_card_read_block
  17 0020 74FE4739 		ldrb	w20, [x19, 511]
  18 0024 62FA4739 		ldrb	w2, [x19, 510]
  19 0028 A14A9552 		mov	w1, 43605
  20 002c 40008052 		mov	w0, 2
  21 0030 5420142A 		orr	w20, w2, w20, lsl 8
  22 0034 9F02016B 		cmp	w20, w1
  23 0038 41030054 		bne	.L1
  24 003c 610A4739 		ldrb	w1, [x19, 450]
  25 0040 60008052 		mov	w0, 3
  26 0044 3F300071 		cmp	w1, 12
  27 0048 C1020054 		bne	.L1
  28 004c 651A4739 		ldrb	w5, [x19, 454]
  29 0050 22008052 		mov	w2, 1
  30 0054 641E4739 		ldrb	w4, [x19, 455]
  31 0058 E00313AA 		mov	x0, x19
  32 005c 63224739 		ldrb	w3, [x19, 456]
  33 0060 61264739 		ldrb	w1, [x19, 457]
  34 0064 A42004AA 		orr	x4, x5, x4, lsl 8
  35 0068 F55B01A9 		stp	x21, x22, [sp, 16]
  36 006c 834003AA 		orr	x3, x4, x3, lsl 16
  37 0070 16000090 		adrp	x22, boot_sector
  38 0074 D5020091 		add	x21, x22, :lo12:boot_sector
  39 0078 616001AA 		orr	x1, x3, x1, lsl 24
  40 007c A12600B9 		str	w1, [x21, 36]
  41 0080 00000094 		bl	hal_sd_card_read_block
  42 0084 62FA4739 		ldrb	w2, [x19, 510]
  43 0088 80008052 		mov	w0, 4
  44 008c 61FE4739 		ldrb	w1, [x19, 511]
  45 0090 4120012A 		orr	w1, w2, w1, lsl 8
  46 0094 3F00146B 		cmp	w1, w20
  47 0098 A0000054 		beq	.L9
  48 009c F55B41A9 		ldp	x21, x22, [sp, 16]
  49              	.L1:
  50 00a0 FE1340F9 		ldr	x30, [sp, 32]
  51 00a4 F353C3A8 		ldp	x19, x20, [sp], 48
  52 00a8 C0035FD6 		ret
  53              		.p2align 2,,3
  54              	.L9:
  55 00ac 63464039 		ldrb	w3, [x19, 17]
  56 00b0 82578052 		mov	w2, 700
  57 00b4 654A4039 		ldrb	w5, [x19, 18]
AARCH64 GAS  C:\Users\RAFAEL~1.ROM\AppData\Local\Temp\ccH9DRWF.s 			page 2


  58 00b8 00000090 		adrp	x0, fat_table_buffer
  59 00bc 612E4039 		ldrb	w1, [x19, 11]
  60 00c0 00000091 		add	x0, x0, :lo12:fat_table_buffer
  61 00c4 67324039 		ldrb	w7, [x19, 12]
  62 00c8 693A4039 		ldrb	w9, [x19, 14]
  63 00cc 6520052A 		orr	w5, w3, w5, lsl 8
  64 00d0 663E4039 		ldrb	w6, [x19, 15]
  65 00d4 68924039 		ldrb	w8, [x19, 36]
  66 00d8 2720072A 		orr	w7, w1, w7, lsl 8
  67 00dc 64964039 		ldrb	w4, [x19, 37]
  68 00e0 A3681B53 		lsl	w3, w5, 5
  69 00e4 A12640B9 		ldr	w1, [x21, 36]
  70 00e8 2621062A 		orr	w6, w9, w6, lsl 8
  71 00ec 6C424039 		ldrb	w12, [x19, 16]
  72 00f0 0421042A 		orr	w4, w8, w4, lsl 8
  73 00f4 6D724139 		ldrb	w13, [x19, 92]
  74 00f8 C100010B 		add	w1, w6, w1
  75 00fc 6A764139 		ldrb	w10, [x19, 93]
  76 0100 6308C71A 		udiv	w3, w3, w7
  77 0104 697A4139 		ldrb	w9, [x19, 94]
  78 0108 687E4139 		ldrb	w8, [x19, 95]
  79 010c 8B05041B 		madd	w11, w12, w4, w1
  80 0110 AA210AAA 		orr	x10, x13, x10, lsl 8
  81 0114 6E364039 		ldrb	w14, [x19, 13]
  82 0118 494109AA 		orr	x9, x10, x9, lsl 16
  83 011c 6D564039 		ldrb	w13, [x19, 21]
  84 0120 63000B0B 		add	w3, w3, w11
  85 0124 6AC24139 		ldrb	w10, [x19, 112]
  86 0128 C70200B9 		str	w7, [x22, #:lo12:boot_sector]
  87 012c 276108AA 		orr	x7, x9, x8, lsl 24
  88 0130 AE9A0029 		stp	w14, w6, [x21, 4]
  89 0134 A5B60129 		stp	w5, w13, [x21, 12]
  90 0138 AC920229 		stp	w12, w4, [x21, 20]
  91 013c A7AA0329 		stp	w7, w10, [x21, 28]
  92 0140 A12E0529 		stp	w1, w11, [x21, 40]
  93 0144 A33200B9 		str	w3, [x21, 48]
  94 0148 00000094 		bl	hal_sd_card_read_block
  95 014c 00008052 		mov	w0, 0
  96 0150 F55B41A9 		ldp	x21, x22, [sp, 16]
  97 0154 FE1340F9 		ldr	x30, [sp, 32]
  98 0158 F353C3A8 		ldp	x19, x20, [sp], 48
  99 015c C0035FD6 		ret
 100              		.size	fat_init, .-fat_init
 101              		.align	2
 102              		.p2align 4,,15
 103              		.global	fat_file_read
 104              		.type	fat_file_read, %function
 105              	fat_file_read:
 106 0160 F353BDA9 		stp	x19, x20, [sp, -48]!
 107 0164 14000090 		adrp	x20, fat_table_buffer
 108 0168 94020091 		add	x20, x20, :lo12:fat_table_buffer
 109 016c F55B01A9 		stp	x21, x22, [sp, 16]
 110 0170 16000090 		adrp	x22, boot_sector
 111 0174 D6020091 		add	x22, x22, :lo12:boot_sector
 112 0178 131040B9 		ldr	w19, [x0, 16]
 113 017c 1500BE12 		mov	w21, 268435455
 114 0180 F77B02A9 		stp	x23, x30, [sp, 32]
AARCH64 GAS  C:\Users\RAFAEL~1.ROM\AppData\Local\Temp\ccH9DRWF.s 			page 3


 115 0184 F70301AA 		mov	x23, x1
 116 0188 C20640B9 		ldr	w2, [x22, 4]
 117 018c 1F2003D5 		.p2align 3,,7
 118              	.L11:
 119 0190 C13240B9 		ldr	w1, [x22, 48]
 120 0194 630A0051 		sub	w3, w19, #2
 121 0198 E00317AA 		mov	x0, x23
 122 019c 73761E53 		lsl	w19, w19, 2
 123 01a0 6104021B 		madd	w1, w3, w2, w1
 124 01a4 00000094 		bl	hal_sd_card_read_block
 125 01a8 640A0011 		add	w4, w19, 2
 126 01ac 620E0011 		add	w2, w19, 3
 127 01b0 63060011 		add	w3, w19, 1
 128 01b4 814A7338 		ldrb	w1, [x20, w19, uxtw]
 129 01b8 844A6438 		ldrb	w4, [x20, w4, uxtw]
 130 01bc 934A6338 		ldrb	w19, [x20, w3, uxtw]
 131 01c0 834A6238 		ldrb	w3, [x20, w2, uxtw]
 132 01c4 C00A4029 		ldp	w0, w2, [x22]
 133 01c8 843C1053 		lsl	w4, w4, 16
 134 01cc 9320132A 		orr	w19, w4, w19, lsl 8
 135 01d0 2360032A 		orr	w3, w1, w3, lsl 24
 136 01d4 7302032A 		orr	w19, w19, w3
 137 01d8 407C001B 		mul	w0, w2, w0
 138 01dc 7F020071 		cmp	w19, 0
 139 01e0 6412557A 		ccmp	w19, w21, 4, ne
 140 01e4 F702008B 		add	x23, x23, x0
 141 01e8 41FDFF54 		bne	.L11
 142 01ec F55B41A9 		ldp	x21, x22, [sp, 16]
 143 01f0 F77B42A9 		ldp	x23, x30, [sp, 32]
 144 01f4 F353C3A8 		ldp	x19, x20, [sp], 48
 145 01f8 C0035FD6 		ret
 146              		.size	fat_file_read, .-fat_file_read
 147              		.align	2
 148 01fc 1F2003D5 		.p2align 4,,15
 149              		.global	fat_read_files_in_dir
 150              		.type	fat_read_files_in_dir, %function
 151              	fat_read_files_in_dir:
 152 0200 F353BAA9 		stp	x19, x20, [sp, -96]!
 153 0204 F40300AA 		mov	x20, x0
 154 0208 F76302A9 		stp	x23, x24, [sp, 32]
 155 020c 18000090 		adrp	x24, fat_table_buffer
 156 0210 18030091 		add	x24, x24, :lo12:fat_table_buffer
 157 0214 F96B03A9 		stp	x25, x26, [sp, 48]
 158 0218 1A000090 		adrp	x26, boot_sector
 159 021c 5A030091 		add	x26, x26, :lo12:boot_sector
 160 0220 19000090 		adrp	x25, buffer
 161 0224 39030091 		add	x25, x25, :lo12:buffer
 162 0228 970380D2 		mov	x23, 28
 163 022c F55B01A9 		stp	x21, x22, [sp, 16]
 164 0230 55008052 		mov	w21, 2
 165 0234 96038052 		mov	w22, 28
 166 0238 FB7304A9 		stp	x27, x28, [sp, 64]
 167 023c 1C008052 		mov	w28, 0
 168 0240 FE2B00F9 		str	x30, [sp, 80]
 169 0244 1F2003D5 		.p2align 3,,7
 170              	.L18:
 171 0248 440740B9 		ldr	w4, [x26, 4]
AARCH64 GAS  C:\Users\RAFAEL~1.ROM\AppData\Local\Temp\ccH9DRWF.s 			page 4


 172 024c A30A0051 		sub	w3, w21, #2
 173 0250 413340B9 		ldr	w1, [x26, 48]
 174 0254 F30319AA 		mov	x19, x25
 175 0258 E00319AA 		mov	x0, x25
 176 025c 22008052 		mov	w2, 1
 177 0260 6104041B 		madd	w1, w3, w4, w1
 178 0264 00000094 		bl	hal_sd_card_read_block
 179              		.p2align 3,,7
 180              	.L17:
 181 0268 9B7FB69B 		umull	x27, w28, w22
 182 026c 63024039 		ldrb	w3, [x19]
 183 0270 E10313AA 		mov	x1, x19
 184 0274 020180D2 		mov	x2, 8
 185 0278 80021B8B 		add	x0, x20, x27
 186 027c 7F940371 		cmp	w3, 229
 187 0280 40050054 		beq	.L15
 188 0284 63050034 		cbz	w3, .L16
 189 0288 00000094 		bl	memcpy
 190 028c 60270091 		add	x0, x27, 9
 191 0290 61220091 		add	x1, x19, 8
 192 0294 620080D2 		mov	x2, 3
 193 0298 8002008B 		add	x0, x20, x0
 194 029c 00000094 		bl	memcpy
 195 02a0 E0031C2A 		uxtw	x0, w28
 196 02a4 637A4039 		ldrb	w3, [x19, 30]
 197 02a8 64724039 		ldrb	w4, [x19, 28]
 198 02ac 9C070011 		add	w28, w28, 1
 199 02b0 61764039 		ldrb	w1, [x19, 29]
 200 02b4 627E4039 		ldrb	w2, [x19, 31]
 201 02b8 0050179B 		madd	x0, x0, x23, x20
 202 02bc 633C1053 		lsl	w3, w3, 16
 203 02c0 6120012A 		orr	w1, w3, w1, lsl 8
 204 02c4 8260022A 		orr	w2, w4, w2, lsl 24
 205 02c8 2100022A 		orr	w1, w1, w2
 206 02cc 010C00B9 		str	w1, [x0, 12]
 207 02d0 63524039 		ldrb	w3, [x19, 20]
 208 02d4 62564039 		ldrb	w2, [x19, 21]
 209 02d8 616E4039 		ldrb	w1, [x19, 27]
 210 02dc 633C1053 		lsl	w3, w3, 16
 211 02e0 646A4039 		ldrb	w4, [x19, 26]
 212 02e4 6260020B 		add	w2, w3, w2, lsl 24
 213 02e8 4120010B 		add	w1, w2, w1, lsl 8
 214 02ec 2100040B 		add	w1, w1, w4
 215 02f0 011000B9 		str	w1, [x0, 16]
 216 02f4 612E4039 		ldrb	w1, [x19, 11]
 217 02f8 22000012 		and	w2, w1, 1
 218 02fc 025C0039 		strb	w2, [x0, 23]
 219 0300 240441D3 		ubfx	x4, x1, 1, 1
 220 0304 230842D3 		ubfx	x3, x1, 2, 1
 221 0308 250C43D3 		ubfx	x5, x1, 3, 1
 222 030c 221445D3 		ubfx	x2, x1, 5, 1
 223 0310 211044D3 		ubfx	x1, x1, 4, 1
 224 0314 05500039 		strb	w5, [x0, 20]
 225 0318 04540039 		strb	w4, [x0, 21]
 226 031c 03580039 		strb	w3, [x0, 22]
 227 0320 02600039 		strb	w2, [x0, 24]
 228 0324 01640039 		strb	w1, [x0, 25]
AARCH64 GAS  C:\Users\RAFAEL~1.ROM\AppData\Local\Temp\ccH9DRWF.s 			page 5


 229              	.L15:
 230 0328 73820091 		add	x19, x19, 32
 231 032c CFFFFF17 		b	.L17
 232              		.p2align 2,,3
 233              	.L16:
 234 0330 B5761E53 		lsl	w21, w21, 2
 235 0334 0200BE12 		mov	w2, 268435455
 236 0338 A10A0011 		add	w1, w21, 2
 237 033c A00E0011 		add	w0, w21, 3
 238 0340 A4060011 		add	w4, w21, 1
 239 0344 034B7538 		ldrb	w3, [x24, w21, uxtw]
 240 0348 014B6138 		ldrb	w1, [x24, w1, uxtw]
 241 034c 154B6438 		ldrb	w21, [x24, w4, uxtw]
 242 0350 004B6038 		ldrb	w0, [x24, w0, uxtw]
 243 0354 213C1053 		lsl	w1, w1, 16
 244 0358 3520152A 		orr	w21, w1, w21, lsl 8
 245 035c 6060002A 		orr	w0, w3, w0, lsl 24
 246 0360 B502002A 		orr	w21, w21, w0
 247 0364 BF020071 		cmp	w21, 0
 248 0368 A412427A 		ccmp	w21, w2, 4, ne
 249 036c E1F6FF54 		bne	.L18
 250 0370 F55B41A9 		ldp	x21, x22, [sp, 16]
 251 0374 F76342A9 		ldp	x23, x24, [sp, 32]
 252 0378 F96B43A9 		ldp	x25, x26, [sp, 48]
 253 037c FE2B40F9 		ldr	x30, [sp, 80]
 254 0380 9CB236B9 		str	w28, [x20, 14000]
 255 0384 FB7344A9 		ldp	x27, x28, [sp, 64]
 256 0388 F353C6A8 		ldp	x19, x20, [sp], 96
 257 038c C0035FD6 		ret
 258              		.size	fat_read_files_in_dir, .-fat_read_files_in_dir
 259              		.section	.rodata.str1.8,"aMS",@progbits,1
 260              		.align	3
 261              	.LC0:
 262 0000 2F00     		.string	"/"
 263              		.text
 264              		.align	2
 265              		.p2align 4,,15
 266              		.global	fat_file_open
 267              		.type	fat_file_open, %function
 268              	fat_file_open:
 269 0390 0CE686D2 		mov	x12, 14128
 270 0394 FF632CCB 		sub	sp, sp, x12
 271 0398 F35300A9 		stp	x19, x20, [sp]
 272 039c F40301AA 		mov	x20, x1
 273 03a0 01000090 		adrp	x1, .LC0
 274 03a4 21000091 		add	x1, x1, :lo12:.LC0
 275 03a8 F76302A9 		stp	x23, x24, [sp, 32]
 276 03ac F70302AA 		mov	x23, x2
 277 03b0 FB7304A9 		stp	x27, x28, [sp, 64]
 278 03b4 FB0300AA 		mov	x27, x0
 279 03b8 E0E30191 		add	x0, sp, 120
 280 03bc FE2B00F9 		str	x30, [sp, 80]
 281 03c0 00000094 		bl	fat_read_files_in_dir
 282 03c4 E02B77B9 		ldr	w0, [sp, 14120]
 283 03c8 800B0034 		cbz	w0, .L36
 284 03cc 61270091 		add	x1, x27, 9
 285 03d0 F3E30191 		add	x19, sp, 120
AARCH64 GAS  C:\Users\RAFAEL~1.ROM\AppData\Local\Temp\ccH9DRWF.s 			page 6


 286 03d4 F55B01A9 		stp	x21, x22, [sp, 16]
 287 03d8 16008052 		mov	w22, 0
 288 03dc F96B03A9 		stp	x25, x26, [sp, 48]
 289 03e0 FF6700B9 		str	wzr, [sp, 100]
 290 03e4 E13700F9 		str	x1, [sp, 104]
 291 03e8 05000014 		b	.L35
 292              		.p2align 2,,3
 293              	.L27:
 294 03ec D6060011 		add	w22, w22, 1
 295 03f0 73720091 		add	x19, x19, 28
 296 03f4 DF02006B 		cmp	w22, w0
 297 03f8 02050054 		bcs	.L41
 298              	.L35:
 299 03fc 78624039 		ldrb	w24, [x19, 24]
 300 0400 78FFFF34 		cbz	w24, .L27
 301 0404 190080D2 		mov	x25, 0
 302 0408 15008052 		mov	w21, 0
 303 040c 06000014 		b	.L26
 304              		.p2align 2,,3
 305              	.L29:
 306 0410 616A7938 		ldrb	w1, [x19, x25]
 307 0414 806A7938 		ldrb	w0, [x20, x25]
 308 0418 39070091 		add	x25, x25, 1
 309 041c 3F00006B 		cmp	w1, w0
 310 0420 B516951A 		cinc	w21, w21, eq
 311              	.L26:
 312 0424 E00314AA 		mov	x0, x20
 313 0428 00000094 		bl	strlen
 314 042c 1F0019EB 		cmp	x0, x25
 315 0430 08FFFF54 		bhi	.L29
 316 0434 E00317AA 		mov	x0, x23
 317 0438 1C0080D2 		mov	x28, 0
 318 043c 00000094 		bl	strlen
 319 0440 7A260091 		add	x26, x19, 9
 320 0444 1F001CEB 		cmp	x0, x28
 321 0448 19008052 		mov	w25, 0
 322 044c 49010054 		bls	.L42
 323              	.L32:
 324 0450 E06A7C38 		ldrb	w0, [x23, x28]
 325 0454 426B7C38 		ldrb	w2, [x26, x28]
 326 0458 9C070091 		add	x28, x28, 1
 327 045c 5F00006B 		cmp	w2, w0
 328 0460 E00317AA 		mov	x0, x23
 329 0464 3917991A 		cinc	w25, w25, eq
 330 0468 00000094 		bl	strlen
 331 046c 1F001CEB 		cmp	x0, x28
 332 0470 08FFFF54 		bhi	.L32
 333              	.L42:
 334 0474 E00314AA 		mov	x0, x20
 335 0478 00000094 		bl	strlen
 336 047c 1F4035EB 		cmp	x0, x21, uxtw
 337 0480 20020054 		beq	.L33
 338              	.L40:
 339 0484 E02B77B9 		ldr	w0, [sp, 14120]
 340 0488 D6060011 		add	w22, w22, 1
 341 048c 73720091 		add	x19, x19, 28
 342 0490 DF02006B 		cmp	w22, w0
AARCH64 GAS  C:\Users\RAFAEL~1.ROM\AppData\Local\Temp\ccH9DRWF.s 			page 7


 343 0494 43FBFF54 		bcc	.L35
 344              	.L41:
 345 0498 E06740B9 		ldr	w0, [sp, 100]
 346 049c 0CE686D2 		mov	x12, 14128
 347 04a0 F35340A9 		ldp	x19, x20, [sp]
 348 04a4 00000052 		eor	w0, w0, 1
 349 04a8 F55B41A9 		ldp	x21, x22, [sp, 16]
 350 04ac F76342A9 		ldp	x23, x24, [sp, 32]
 351 04b0 F96B43A9 		ldp	x25, x26, [sp, 48]
 352 04b4 FB7344A9 		ldp	x27, x28, [sp, 64]
 353 04b8 FE2B40F9 		ldr	x30, [sp, 80]
 354 04bc FF632C8B 		add	sp, sp, x12
 355 04c0 C0035FD6 		ret
 356              		.p2align 2,,3
 357              	.L33:
 358 04c4 E00317AA 		mov	x0, x23
 359 04c8 00000094 		bl	strlen
 360 04cc 1F4039EB 		cmp	x0, x25, uxtw
 361 04d0 A1FDFF54 		bne	.L40
 362 04d4 E10313AA 		mov	x1, x19
 363 04d8 020180D2 		mov	x2, 8
 364 04dc E0031BAA 		mov	x0, x27
 365 04e0 00000094 		bl	memcpy
 366 04e4 E03740F9 		ldr	x0, [sp, 104]
 367 04e8 61260091 		add	x1, x19, 9
 368 04ec 620080D2 		mov	x2, 3
 369 04f0 00000094 		bl	memcpy
 370 04f4 F86700B9 		str	w24, [sp, 100]
 371 04f8 66524039 		ldrb	w6, [x19, 20]
 372 04fc 65564039 		ldrb	w5, [x19, 21]
 373 0500 645A4039 		ldrb	w4, [x19, 22]
 374 0504 635E4039 		ldrb	w3, [x19, 23]
 375 0508 62624039 		ldrb	w2, [x19, 24]
 376 050c 61664039 		ldrb	w1, [x19, 25]
 377 0510 689E4129 		ldp	w8, w7, [x19, 12]
 378 0514 689F0129 		stp	w8, w7, [x27, 12]
 379 0518 E02B77B9 		ldr	w0, [sp, 14120]
 380 051c 66530039 		strb	w6, [x27, 20]
 381 0520 65570039 		strb	w5, [x27, 21]
 382 0524 645B0039 		strb	w4, [x27, 22]
 383 0528 635F0039 		strb	w3, [x27, 23]
 384 052c 62630039 		strb	w2, [x27, 24]
 385 0530 61670039 		strb	w1, [x27, 25]
 386 0534 AEFFFF17 		b	.L27
 387              	.L36:
 388 0538 20008052 		mov	w0, 1
 389 053c 0CE686D2 		mov	x12, 14128
 390 0540 F35340A9 		ldp	x19, x20, [sp]
 391 0544 F76342A9 		ldp	x23, x24, [sp, 32]
 392 0548 FB7344A9 		ldp	x27, x28, [sp, 64]
 393 054c FE2B40F9 		ldr	x30, [sp, 80]
 394 0550 FF632C8B 		add	sp, sp, x12
 395 0554 C0035FD6 		ret
 396              		.size	fat_file_open, .-fat_file_open
 397              		.align	2
 398 0558 1F2003D5 		.p2align 4,,15
 398      1F2003D5 
AARCH64 GAS  C:\Users\RAFAEL~1.ROM\AppData\Local\Temp\ccH9DRWF.s 			page 8


 399              		.global	cluster_to_sector
 400              		.type	cluster_to_sector, %function
 401              	cluster_to_sector:
 402 0560 01000090 		adrp	x1, boot_sector
 403 0564 21000091 		add	x1, x1, :lo12:boot_sector
 404 0568 02080051 		sub	w2, w0, #2
 405 056c 230440B9 		ldr	w3, [x1, 4]
 406 0570 203040B9 		ldr	w0, [x1, 48]
 407 0574 4000031B 		madd	w0, w2, w3, w0
 408 0578 C0035FD6 		ret
 409              		.size	cluster_to_sector, .-cluster_to_sector
 410              		.align	2
 411 057c 1F2003D5 		.p2align 4,,15
 412              		.global	num_of_clusters_to_sectors
 413              		.type	num_of_clusters_to_sectors, %function
 414              	num_of_clusters_to_sectors:
 415 0580 01000090 		adrp	x1, boot_sector+4
 416 0584 210040B9 		ldr	w1, [x1, #:lo12:boot_sector+4]
 417 0588 007C011B 		mul	w0, w0, w1
 418 058c C0035FD6 		ret
 419              		.size	num_of_clusters_to_sectors, .-num_of_clusters_to_sectors
 420              		.align	2
 421              		.p2align 4,,15
 422              		.global	cluster_to_fat_table_offset
 423              		.type	cluster_to_fat_table_offset, %function
 424              	cluster_to_fat_table_offset:
 425 0590 00741E53 		lsl	w0, w0, 2
 426 0594 C0035FD6 		ret
 427              		.size	cluster_to_fat_table_offset, .-cluster_to_fat_table_offset
 428              		.align	2
 429 0598 1F2003D5 		.p2align 4,,15
 429      1F2003D5 
 430              		.global	num_of_sectors_to_bytes
 431              		.type	num_of_sectors_to_bytes, %function
 432              	num_of_sectors_to_bytes:
 433 05a0 01000090 		adrp	x1, boot_sector
 434 05a4 210040B9 		ldr	w1, [x1, #:lo12:boot_sector]
 435 05a8 007C011B 		mul	w0, w0, w1
 436 05ac C0035FD6 		ret
 437              		.size	num_of_sectors_to_bytes, .-num_of_sectors_to_bytes
 438              		.align	2
 439              		.p2align 4,,15
 440              		.global	offset_read_n_bytes
 441              		.type	offset_read_n_bytes, %function
 442              	offset_read_n_bytes:
 443 05b0 E50300AA 		mov	x5, x0
 444 05b4 A2010034 		cbz	w2, .L50
 445 05b8 4400010B 		add	w4, w2, w1
 446 05bc 03008052 		mov	w3, 0
 447 05c0 00008052 		mov	w0, 0
 448 05c4 1F2003D5 		.p2align 3,,7
 449              	.L49:
 450 05c8 A2486138 		ldrb	w2, [x5, w1, uxtw]
 451 05cc 21040011 		add	w1, w1, 1
 452 05d0 9F00016B 		cmp	w4, w1
 453 05d4 4220C31A 		lsl	w2, w2, w3
 454 05d8 63200011 		add	w3, w3, 8
AARCH64 GAS  C:\Users\RAFAEL~1.ROM\AppData\Local\Temp\ccH9DRWF.s 			page 9


 455 05dc 0000022A 		orr	w0, w0, w2
 456 05e0 41FFFF54 		bne	.L49
 457 05e4 C0035FD6 		ret
 458              		.p2align 2,,3
 459              	.L50:
 460 05e8 00008052 		mov	w0, 0
 461 05ec C0035FD6 		ret
 462              		.size	offset_read_n_bytes, .-offset_read_n_bytes
 463              		.comm	boot_sector,52,8
 464              		.comm	buffer,512,8
 465              		.comm	fat_table_buffer,358400,8
 466              		.ident	"GCC: (GNU Toolchain for the A-profile Architecture 9.2-2020.02 (arm-9.10)) 9.2.1 20191025"
AARCH64 GAS  C:\Users\RAFAEL~1.ROM\AppData\Local\Temp\ccH9DRWF.s 			page 10


DEFINED SYMBOLS
                            *ABS*:0000000000000000 fat.c
C:\Users\RAFAEL~1.ROM\AppData\Local\Temp\ccH9DRWF.s:4      .text:0000000000000000 $x
C:\Users\RAFAEL~1.ROM\AppData\Local\Temp\ccH9DRWF.s:8      .text:0000000000000000 fat_init
                            *COM*:0000000000000200 buffer
                            *COM*:0000000000000034 boot_sector
                            *COM*:0000000000057800 fat_table_buffer
C:\Users\RAFAEL~1.ROM\AppData\Local\Temp\ccH9DRWF.s:105    .text:0000000000000160 fat_file_read
C:\Users\RAFAEL~1.ROM\AppData\Local\Temp\ccH9DRWF.s:151    .text:0000000000000200 fat_read_files_in_dir
C:\Users\RAFAEL~1.ROM\AppData\Local\Temp\ccH9DRWF.s:260    .rodata.str1.8:0000000000000000 $d
C:\Users\RAFAEL~1.ROM\AppData\Local\Temp\ccH9DRWF.s:268    .text:0000000000000390 fat_file_open
C:\Users\RAFAEL~1.ROM\AppData\Local\Temp\ccH9DRWF.s:401    .text:0000000000000560 cluster_to_sector
C:\Users\RAFAEL~1.ROM\AppData\Local\Temp\ccH9DRWF.s:414    .text:0000000000000580 num_of_clusters_to_sectors
C:\Users\RAFAEL~1.ROM\AppData\Local\Temp\ccH9DRWF.s:424    .text:0000000000000590 cluster_to_fat_table_offset
C:\Users\RAFAEL~1.ROM\AppData\Local\Temp\ccH9DRWF.s:432    .text:00000000000005a0 num_of_sectors_to_bytes
C:\Users\RAFAEL~1.ROM\AppData\Local\Temp\ccH9DRWF.s:442    .text:00000000000005b0 offset_read_n_bytes

UNDEFINED SYMBOLS
hal_sd_card_read_block
memcpy
strlen
AARCH64 GAS  C:\Users\RAFAEL~1.ROM\AppData\Local\Temp\ccH9DRWF.s 			page 1


   1              		.arch armv8-a
   2              		.file	"fonts.c"
   3              		.text
   4              		.align	2
   5              		.p2align 4,,15
   6              		.global	fonts_char_to_font
   7              		.type	fonts_char_to_font, %function
   8              	fonts_char_to_font:
   9 0000 1F001972 		tst	w0, 128
  10 0004 001C0012 		and	w0, w0, 255
  11 0008 61010054 		bne	.L4
  12 000c 03840151 		sub	w3, w0, #97
  13 0010 01800051 		sub	w1, w0, #32
  14 0014 631C0012 		and	w3, w3, 255
  15 0018 02000090 		adrp	x2, char_font_map
  16 001c 42000091 		add	x2, x2, :lo12:char_font_map
  17 0020 7F680071 		cmp	w3, 26
  18 0024 2030801A 		csel	w0, w1, w0, cc
  19 0028 810C8052 		mov	w1, 100
  20 002c 0008219B 		smaddl	x0, w0, w1, x2
  21 0030 C0035FD6 		ret
  22              		.p2align 2,,3
  23              	.L4:
  24 0034 00000090 		adrp	x0, char_font_map+3200
  25 0038 00000091 		add	x0, x0, :lo12:char_font_map+3200
  26 003c C0035FD6 		ret
  27              		.size	fonts_char_to_font, .-fonts_char_to_font
  28              		.align	2
  29              		.p2align 4,,15
  30              		.global	fonts_init
  31              		.type	fonts_init, %function
  32              	fonts_init:
  33 0040 F353BAA9 		stp	x19, x20, [sp, -96]!
  34 0044 00000090 		adrp	x0, .LANCHOR0
  35 0048 893386D2 		mov	x9, 12700
  36 004c F76302A9 		stp	x23, x24, [sp, 32]
  37 0050 17000090 		adrp	x23, char_font_map
  38 0054 F7020091 		add	x23, x23, :lo12:char_font_map
  39 0058 F30317AA 		mov	x19, x23
  40 005c F402098B 		add	x20, x23, x9
  41 0060 FB7304A9 		stp	x27, x28, [sp, 64]
  42 0064 1B000091 		add	x27, x0, :lo12:.LANCHOR0
  43 0068 1F0000B9 		str	wzr, [x0, #:lo12:.LANCHOR0]
  44 006c F55B01A9 		stp	x21, x22, [sp, 16]
  45 0070 F96B03A9 		stp	x25, x26, [sp, 48]
  46 0074 FE2B00F9 		str	x30, [sp, 80]
  47              		.p2align 3,,7
  48              	.L7:
  49 0078 E00313AA 		mov	x0, x19
  50 007c 820C80D2 		mov	x2, 100
  51 0080 E1031BAA 		mov	x1, x27
  52 0084 7302028B 		add	x19, x19, x2
  53 0088 00000094 		bl	memcpy
  54 008c 7F0214EB 		cmp	x19, x20
  55 0090 41FFFF54 		bne	.L7
  56 0094 F5023291 		add	x21, x23, 3200
  57 0098 E1031BAA 		mov	x1, x27
AARCH64 GAS  C:\Users\RAFAEL~1.ROM\AppData\Local\Temp\ccH9DRWF.s 			page 2


  58 009c E00315AA 		mov	x0, x21
  59 00a0 820C80D2 		mov	x2, 100
  60 00a4 00000094 		bl	memcpy
  61 00a8 94008052 		mov	w20, 4
  62 00ac A3008012 		mov	w3, 4294967290
  63 00b0 2900C0D2 		mov	x9, 4294967296
  64 00b4 4300C0F2 		movk	x3, 0x2, lsl 32
  65 00b8 630B00F9 		str	x3, [x27, 16]
  66 00bc A3008012 		mov	w3, 4294967290
  67 00c0 4500C0D2 		mov	x5, 8589934592
  68 00c4 24008012 		mov	w4, -2
  69 00c8 E6837FB2 		mov	x6, 17179869182
  70 00cc 670080D2 		mov	x7, 3
  71 00d0 8300C0F2 		movk	x3, 0x4, lsl 32
  72 00d4 E1031BAA 		mov	x1, x27
  73 00d8 A0923391 		add	x0, x21, 3300
  74 00dc 820C80D2 		mov	x2, 100
  75 00e0 671700A9 		stp	x7, x5, [x27]
  76 00e4 B3008012 		mov	w19, -6
  77 00e8 630F00F9 		str	x3, [x27, 24]
  78 00ec B9008012 		mov	w25, 4294967290
  79 00f0 691B02A9 		stp	x9, x6, [x27, 32]
  80 00f4 56008012 		mov	w22, -3
  81 00f8 9C00C0D2 		mov	x28, 17179869184
  82 00fc 643300B9 		str	w4, [x27, 48]
  83 0100 00000094 		bl	memcpy
  84 0104 A3008052 		mov	w3, 5
  85 0108 630300B9 		str	w3, [x27]
  86 010c E3777EB2 		mov	x3, 4294967292
  87 0110 E77B7FB2 		mov	x7, 4294967294
  88 0114 8300C0F2 		movk	x3, 0x4, lsl 32
  89 0118 631300F9 		str	x3, [x27, 32]
  90 011c E3777EB2 		mov	x3, 4294967292
  91 0120 631700F9 		str	x3, [x27, 40]
  92 0124 43008012 		mov	w3, 4294967293
  93 0128 631B00F9 		str	x3, [x27, 48]
  94 012c 43008012 		mov	w3, 4294967293
  95 0130 8700C0F2 		movk	x7, 0x4, lsl 32
  96 0134 E67B7FB2 		mov	x6, 4294967294
  97 0138 8300C0F2 		movk	x3, 0x4, lsl 32
  98 013c E1031BAA 		mov	x1, x27
  99 0140 A0223591 		add	x0, x21, 3400
 100 0144 820C80D2 		mov	x2, 100
 101 0148 7F0F00B9 		str	wzr, [x27, 12]
 102 014c 7F1700B9 		str	wzr, [x27, 20]
 103 0150 BA023E91 		add	x26, x21, 3968
 104 0154 631F00F9 		str	x3, [x27, 56]
 105 0158 58008052 		mov	w24, 2
 106 015c 671B04A9 		stp	x7, x6, [x27, 64]
 107 0160 7F5300B9 		str	wzr, [x27, 80]
 108 0164 00000094 		bl	memcpy
 109 0168 63008052 		mov	w3, 3
 110 016c E1031BAA 		mov	x1, x27
 111 0170 A0B23691 		add	x0, x21, 3500
 112 0174 820C80D2 		mov	x2, 100
 113 0178 630300B9 		str	w3, [x27]
 114 017c 74FF0129 		stp	w20, wzr, [x27, 12]
AARCH64 GAS  C:\Users\RAFAEL~1.ROM\AppData\Local\Temp\ccH9DRWF.s 			page 3


 115 0180 791300F9 		str	x25, [x27, 32]
 116 0184 732B00B9 		str	w19, [x27, 40]
 117 0188 7F3300B9 		str	wzr, [x27, 48]
 118 018c 00000094 		bl	memcpy
 119 0190 43008012 		mov	w3, 4294967293
 120 0194 E1031BAA 		mov	x1, x27
 121 0198 8300C0F2 		movk	x3, 0x4, lsl 32
 122 019c A0423891 		add	x0, x21, 3600
 123 01a0 820C80D2 		mov	x2, 100
 124 01a4 7FCF0129 		stp	wzr, w19, [x27, 12]
 125 01a8 631300F9 		str	x3, [x27, 32]
 126 01ac 762B00B9 		str	w22, [x27, 40]
 127 01b0 00000094 		bl	memcpy
 128 01b4 E1031BAA 		mov	x1, x27
 129 01b8 A0D23991 		add	x0, x21, 3700
 130 01bc 820C80D2 		mov	x2, 100
 131 01c0 740300B9 		str	w20, [x27]
 132 01c4 74FF0129 		stp	w20, wzr, [x27, 12]
 133 01c8 791300F9 		str	x25, [x27, 32]
 134 01cc 74DB0529 		stp	w20, w22, [x27, 44]
 135 01d0 791F00F9 		str	x25, [x27, 56]
 136 01d4 7F4300B9 		str	wzr, [x27, 64]
 137 01d8 00000094 		bl	memcpy
 138 01dc 63008052 		mov	w3, 3
 139 01e0 E1031BAA 		mov	x1, x27
 140 01e4 A0623B91 		add	x0, x21, 3800
 141 01e8 820C80D2 		mov	x2, 100
 142 01ec 630300B9 		str	w3, [x27]
 143 01f0 730B00B9 		str	w19, [x27, 8]
 144 01f4 731300B9 		str	w19, [x27, 16]
 145 01f8 761B00B9 		str	w22, [x27, 24]
 146 01fc 762300B9 		str	w22, [x27, 32]
 147 0200 791700F9 		str	x25, [x27, 40]
 148 0204 7F3300B9 		str	wzr, [x27, 48]
 149 0208 00000094 		bl	memcpy
 150 020c A3008052 		mov	w3, 5
 151 0210 630300B9 		str	w3, [x27]
 152 0214 43008012 		mov	w3, 4294967293
 153 0218 E1031BAA 		mov	x1, x27
 154 021c 8300C0F2 		movk	x3, 0x4, lsl 32
 155 0220 A0F23C91 		add	x0, x21, 3900
 156 0224 820C80D2 		mov	x2, 100
 157 0228 7F0B00B9 		str	wzr, [x27, 8]
 158 022c 7F1300B9 		str	wzr, [x27, 16]
 159 0230 731B00B9 		str	w19, [x27, 24]
 160 0234 732300B9 		str	w19, [x27, 32]
 161 0238 631700F9 		str	x3, [x27, 40]
 162 023c 763300B9 		str	w22, [x27, 48]
 163 0240 7C2700F9 		str	x28, [x27, 72]
 164 0244 765300B9 		str	w22, [x27, 80]
 165 0248 00000094 		bl	memcpy
 166 024c 63008052 		mov	w3, 3
 167 0250 630300B9 		str	w3, [x27]
 168 0254 A3008012 		mov	w3, 4294967290
 169 0258 E1031BAA 		mov	x1, x27
 170 025c 8300C0F2 		movk	x3, 0x4, lsl 32
 171 0260 A0823E91 		add	x0, x21, 4000
AARCH64 GAS  C:\Users\RAFAEL~1.ROM\AppData\Local\Temp\ccH9DRWF.s 			page 4


 172 0264 820C80D2 		mov	x2, 100
 173 0268 7F0F00B9 		str	wzr, [x27, 12]
 174 026c 630B00F9 		str	x3, [x27, 16]
 175 0270 7F2300B9 		str	wzr, [x27, 32]
 176 0274 00000094 		bl	memcpy
 177 0278 A3008012 		mov	w3, 4294967290
 178 027c E1031BAA 		mov	x1, x27
 179 0280 4300C0F2 		movk	x3, 0x2, lsl 32
 180 0284 40130291 		add	x0, x26, 132
 181 0288 820C80D2 		mov	x2, 100
 182 028c 740F00B9 		str	w20, [x27, 12]
 183 0290 7F0B00F9 		str	xzr, [x27, 16]
 184 0294 630F02A9 		stp	x3, x3, [x27, 32]
 185 0298 7F3300B9 		str	wzr, [x27, 48]
 186 029c 00000094 		bl	memcpy
 187 02a0 43008012 		mov	w3, 4294967293
 188 02a4 E1031BAA 		mov	x1, x27
 189 02a8 8300C0F2 		movk	x3, 0x4, lsl 32
 190 02ac 40330591 		add	x0, x26, 332
 191 02b0 820C80D2 		mov	x2, 100
 192 02b4 7FCF0129 		stp	wzr, w19, [x27, 12]
 193 02b8 761B00B9 		str	w22, [x27, 24]
 194 02bc 7F2700B9 		str	wzr, [x27, 36]
 195 02c0 631700F9 		str	x3, [x27, 40]
 196 02c4 00000094 		bl	memcpy
 197 02c8 E1031BAA 		mov	x1, x27
 198 02cc 40C30691 		add	x0, x26, 432
 199 02d0 820C80D2 		mov	x2, 100
 200 02d4 780300B9 		str	w24, [x27]
 201 02d8 74FF0129 		stp	w20, wzr, [x27, 12]
 202 02dc FA0A4091 		add	x26, x23, 8192
 203 02e0 790F00F9 		str	x25, [x27, 24]
 204 02e4 7F2300B9 		str	wzr, [x27, 32]
 205 02e8 00000094 		bl	memcpy
 206 02ec E37F40B2 		mov	x3, 4294967295
 207 02f0 E1031BAA 		mov	x1, x27
 208 02f4 4300C0F2 		movk	x3, 0x2, lsl 32
 209 02f8 631300F9 		str	x3, [x27, 32]
 210 02fc 03008012 		mov	w3, -1
 211 0300 632B00B9 		str	w3, [x27, 40]
 212 0304 A3008012 		mov	w3, 4294967290
 213 0308 820C80D2 		mov	x2, 100
 214 030c 8300C0F2 		movk	x3, 0x4, lsl 32
 215 0310 80C283D2 		mov	x0, 7700
 216 0314 E002008B 		add	x0, x23, x0
 217 0318 740300B9 		str	w20, [x27]
 218 031c 790700F9 		str	x25, [x27, 8]
 219 0320 781F00B9 		str	w24, [x27, 28]
 220 0324 631B00F9 		str	x3, [x27, 48]
 221 0328 743F00B9 		str	w20, [x27, 60]
 222 032c 00000094 		bl	memcpy
 223 0330 03CF83D2 		mov	x3, 7800
 224 0334 E002038B 		add	x0, x23, x3
 225 0338 63008052 		mov	w3, 3
 226 033c E1031BAA 		mov	x1, x27
 227 0340 820C80D2 		mov	x2, 100
 228 0344 630300B9 		str	w3, [x27]
AARCH64 GAS  C:\Users\RAFAEL~1.ROM\AppData\Local\Temp\ccH9DRWF.s 			page 5


 229 0348 741F00B9 		str	w20, [x27, 28]
 230 034c 7C1300F9 		str	x28, [x27, 32]
 231 0350 7F2B00B9 		str	wzr, [x27, 40]
 232 0354 00000094 		bl	memcpy
 233 0358 84DB83D2 		mov	x4, 7900
 234 035c E1031BAA 		mov	x1, x27
 235 0360 E002048B 		add	x0, x23, x4
 236 0364 820C80D2 		mov	x2, 100
 237 0368 740300B9 		str	w20, [x27]
 238 036c 7C0700F9 		str	x28, [x27, 8]
 239 0370 7F1F00B9 		str	wzr, [x27, 28]
 240 0374 7FCF0429 		stp	wzr, w19, [x27, 36]
 241 0378 00000094 		bl	memcpy
 242 037c E3777EB2 		mov	x3, 4294967292
 243 0380 05E883D2 		mov	x5, 8000
 244 0384 8300C0F2 		movk	x3, 0x4, lsl 32
 245 0388 24008012 		mov	w4, -2
 246 038c 631300F9 		str	x3, [x27, 32]
 247 0390 E3777EB2 		mov	x3, 4294967292
 248 0394 60008052 		mov	w0, 3
 249 0398 E1031BAA 		mov	x1, x27
 250 039c 820C80D2 		mov	x2, 100
 251 03a0 600300B9 		str	w0, [x27]
 252 03a4 E002058B 		add	x0, x23, x5
 253 03a8 790700F9 		str	x25, [x27, 8]
 254 03ac 741F00B9 		str	w20, [x27, 28]
 255 03b0 631700F9 		str	x3, [x27, 40]
 256 03b4 643300B9 		str	w4, [x27, 48]
 257 03b8 00000094 		bl	memcpy
 258 03bc 24008012 		mov	w4, -2
 259 03c0 E1031BAA 		mov	x1, x27
 260 03c4 40230091 		add	x0, x26, 8
 261 03c8 820C80D2 		mov	x2, 100
 262 03cc 740300B9 		str	w20, [x27]
 263 03d0 7F930629 		stp	wzr, w4, [x27, 52]
 264 03d4 00000094 		bl	memcpy
 265 03d8 A3008052 		mov	w3, 5
 266 03dc 630300B9 		str	w3, [x27]
 267 03e0 43008012 		mov	w3, 4294967293
 268 03e4 E1031BAA 		mov	x1, x27
 269 03e8 8300C0F2 		movk	x3, 0x4, lsl 32
 270 03ec 40B30191 		add	x0, x26, 108
 271 03f0 820C80D2 		mov	x2, 100
 272 03f4 7C0700F9 		str	x28, [x27, 8]
 273 03f8 791300F9 		str	x25, [x27, 32]
 274 03fc 631700F9 		str	x3, [x27, 40]
 275 0400 763300B9 		str	w22, [x27, 48]
 276 0404 791F00F9 		str	x25, [x27, 56]
 277 0408 764300B9 		str	w22, [x27, 64]
 278 040c 00000094 		bl	memcpy
 279 0410 A3008012 		mov	w3, 4294967290
 280 0414 E1031BAA 		mov	x1, x27
 281 0418 4300C0F2 		movk	x3, 0x2, lsl 32
 282 041c 40430391 		add	x0, x26, 208
 283 0420 820C80D2 		mov	x2, 100
 284 0424 780300B9 		str	w24, [x27]
 285 0428 730B00B9 		str	w19, [x27, 8]
AARCH64 GAS  C:\Users\RAFAEL~1.ROM\AppData\Local\Temp\ccH9DRWF.s 			page 6


 286 042c 630B00F9 		str	x3, [x27, 16]
 287 0430 78FF0329 		stp	w24, wzr, [x27, 28]
 288 0434 00000094 		bl	memcpy
 289 0438 61008052 		mov	w1, 3
 290 043c 40D30491 		add	x0, x26, 308
 291 0440 820C80D2 		mov	x2, 100
 292 0444 610300B9 		str	w1, [x27]
 293 0448 E1031BAA 		mov	x1, x27
 294 044c 7F0700F9 		str	xzr, [x27, 8]
 295 0450 741700B9 		str	w20, [x27, 20]
 296 0454 7C0F00F9 		str	x28, [x27, 24]
 297 0458 FC064091 		add	x28, x23, 4096
 298 045c 732300B9 		str	w19, [x27, 32]
 299 0460 7F2B00B9 		str	wzr, [x27, 40]
 300 0464 7F3300B9 		str	wzr, [x27, 48]
 301 0468 00000094 		bl	memcpy
 302 046c E3031FB2 		mov	x3, 8589934594
 303 0470 E1031BAA 		mov	x1, x27
 304 0474 40630691 		add	x0, x26, 408
 305 0478 820C80D2 		mov	x2, 100
 306 047c 630300F9 		str	x3, [x27]
 307 0480 781700B9 		str	w24, [x27, 20]
 308 0484 00000094 		bl	memcpy
 309 0488 43008012 		mov	w3, 4294967293
 310 048c 2900C0D2 		mov	x9, 4294967296
 311 0490 880080D2 		mov	x8, 4
 312 0494 4300C0F2 		movk	x3, 0x2, lsl 32
 313 0498 A2008012 		mov	w2, 4294967290
 314 049c E1031BAA 		mov	x1, x27
 315 04a0 2200C0F2 		movk	x2, 0x1, lsl 32
 316 04a4 40F30791 		add	x0, x26, 508
 317 04a8 680B00A9 		stp	x8, x2, [x27]
 318 04ac 820C80D2 		mov	x2, 100
 319 04b0 690B00F9 		str	x9, [x27, 16]
 320 04b4 781F00B9 		str	w24, [x27, 28]
 321 04b8 631300F9 		str	x3, [x27, 32]
 322 04bc 762B00B9 		str	w22, [x27, 40]
 323 04c0 683700B9 		str	w8, [x27, 52]
 324 04c4 74FF0729 		stp	w20, wzr, [x27, 60]
 325 04c8 00000094 		bl	memcpy
 326 04cc 064C84D2 		mov	x6, 8800
 327 04d0 E1031BAA 		mov	x1, x27
 328 04d4 E002068B 		add	x0, x23, x6
 329 04d8 820C80D2 		mov	x2, 100
 330 04dc 780300B9 		str	w24, [x27]
 331 04e0 740F00B9 		str	w20, [x27, 12]
 332 04e4 7F1700B9 		str	wzr, [x27, 20]
 333 04e8 74CF0329 		stp	w20, w19, [x27, 28]
 334 04ec 00000094 		bl	memcpy
 335 04f0 43008012 		mov	w3, 4294967293
 336 04f4 680080D2 		mov	x8, 3
 337 04f8 4300C0F2 		movk	x3, 0x2, lsl 32
 338 04fc 875884D2 		mov	x7, 8900
 339 0500 4500C0D2 		mov	x5, 8589934592
 340 0504 4800C0F2 		movk	x8, 0x2, lsl 32
 341 0508 630B00F9 		str	x3, [x27, 16]
 342 050c 43008012 		mov	w3, 4294967293
AARCH64 GAS  C:\Users\RAFAEL~1.ROM\AppData\Local\Temp\ccH9DRWF.s 			page 7


 343 0510 E002078B 		add	x0, x23, x7
 344 0514 E1031BAA 		mov	x1, x27
 345 0518 820C80D2 		mov	x2, 100
 346 051c 681700A9 		stp	x8, x5, [x27]
 347 0520 630F00F9 		str	x3, [x27, 24]
 348 0524 733300B9 		str	w19, [x27, 48]
 349 0528 00000094 		bl	memcpy
 350 052c A3008012 		mov	w3, 4294967290
 351 0530 086584D2 		mov	x8, 9000
 352 0534 8300C0F2 		movk	x3, 0x4, lsl 32
 353 0538 E1031BAA 		mov	x1, x27
 354 053c E002088B 		add	x0, x23, x8
 355 0540 820C80D2 		mov	x2, 100
 356 0544 7F0700B9 		str	wzr, [x27, 4]
 357 0548 638F00A9 		stp	x3, x3, [x27, 8]
 358 054c 731B00B9 		str	w19, [x27, 24]
 359 0550 7F1300F9 		str	xzr, [x27, 32]
 360 0554 7F2B00B9 		str	wzr, [x27, 40]
 361 0558 7F3300B9 		str	wzr, [x27, 48]
 362 055c 00000094 		bl	memcpy
 363 0560 280080D2 		mov	x8, 1
 364 0564 4500C0D2 		mov	x5, 8589934592
 365 0568 4800C0F2 		movk	x8, 0x2, lsl 32
 366 056c E1031BAA 		mov	x1, x27
 367 0570 A0921A91 		add	x0, x21, 1700
 368 0574 820C80D2 		mov	x2, 100
 369 0578 681700A9 		stp	x8, x5, [x27]
 370 057c 00000094 		bl	memcpy
 371 0580 630080D2 		mov	x3, 3
 372 0584 630300F9 		str	x3, [x27]
 373 0588 A3008012 		mov	w3, 4294967290
 374 058c 84008012 		mov	w4, -5
 375 0590 8300C0F2 		movk	x3, 0x4, lsl 32
 376 0594 E1031BAA 		mov	x1, x27
 377 0598 A0221C91 		add	x0, x21, 1800
 378 059c 820C80D2 		mov	x2, 100
 379 05a0 630700F9 		str	x3, [x27, 8]
 380 05a4 641300B9 		str	w4, [x27, 16]
 381 05a8 641B00B9 		str	w4, [x27, 24]
 382 05ac 00000094 		bl	memcpy
 383 05b0 A3008012 		mov	w3, 4294967290
 384 05b4 E1031BAA 		mov	x1, x27
 385 05b8 8300C0F2 		movk	x3, 0x4, lsl 32
 386 05bc A0B21D91 		add	x0, x21, 1900
 387 05c0 820C80D2 		mov	x2, 100
 388 05c4 740300B9 		str	w20, [x27]
 389 05c8 7F0B00B9 		str	wzr, [x27, 8]
 390 05cc 7F0F01A9 		stp	xzr, x3, [x27, 16]
 391 05d0 732300B9 		str	w19, [x27, 32]
 392 05d4 762B00B9 		str	w22, [x27, 40]
 393 05d8 763300B9 		str	w22, [x27, 48]
 394 05dc 00000094 		bl	memcpy
 395 05e0 650080D2 		mov	x5, 3
 396 05e4 A3008012 		mov	w3, 4294967290
 397 05e8 8500C0F2 		movk	x5, 0x4, lsl 32
 398 05ec 8300C0F2 		movk	x3, 0x4, lsl 32
 399 05f0 E1031BAA 		mov	x1, x27
AARCH64 GAS  C:\Users\RAFAEL~1.ROM\AppData\Local\Temp\ccH9DRWF.s 			page 8


 400 05f4 A0421F91 		add	x0, x21, 2000
 401 05f8 820C80D2 		mov	x2, 100
 402 05fc 650300F9 		str	x5, [x27]
 403 0600 630B00F9 		str	x3, [x27, 16]
 404 0604 7FDB0329 		stp	wzr, w22, [x27, 28]
 405 0608 00000094 		bl	memcpy
 406 060c A30080D2 		mov	x3, 5
 407 0610 E1031BAA 		mov	x1, x27
 408 0614 A0D22091 		add	x0, x21, 2100
 409 0618 820C80D2 		mov	x2, 100
 410 061c 630300F9 		str	x3, [x27]
 411 0620 7F0B00F9 		str	xzr, [x27, 16]
 412 0624 74CF0329 		stp	w20, w19, [x27, 28]
 413 0628 7F3700B9 		str	wzr, [x27, 52]
 414 062c 7FDB0729 		stp	wzr, w22, [x27, 60]
 415 0630 00000094 		bl	memcpy
 416 0634 E1031BAA 		mov	x1, x27
 417 0638 A0622291 		add	x0, x21, 2200
 418 063c 820C80D2 		mov	x2, 100
 419 0640 7F4300B9 		str	wzr, [x27, 64]
 420 0644 00000094 		bl	memcpy
 421 0648 780300B9 		str	w24, [x27]
 422 064c A3008012 		mov	w3, 4294967290
 423 0650 E1031BAA 		mov	x1, x27
 424 0654 8300C0F2 		movk	x3, 0x4, lsl 32
 425 0658 A0F22391 		add	x0, x21, 2300
 426 065c 820C80D2 		mov	x2, 100
 427 0660 730B00B9 		str	w19, [x27, 8]
 428 0664 630B00F9 		str	x3, [x27, 16]
 429 0668 7FFF0329 		stp	wzr, wzr, [x27, 28]
 430 066c 00000094 		bl	memcpy
 431 0670 A3008052 		mov	w3, 5
 432 0674 E1031BAA 		mov	x1, x27
 433 0678 A0822591 		add	x0, x21, 2400
 434 067c 820C80D2 		mov	x2, 100
 435 0680 630300B9 		str	w3, [x27]
 436 0684 7F0B00B9 		str	wzr, [x27, 8]
 437 0688 7F0B00F9 		str	xzr, [x27, 16]
 438 068c 74CF0329 		stp	w20, w19, [x27, 28]
 439 0690 735300B9 		str	w19, [x27, 80]
 440 0694 00000094 		bl	memcpy
 441 0698 E1031BAA 		mov	x1, x27
 442 069c A0122791 		add	x0, x21, 2500
 443 06a0 820C80D2 		mov	x2, 100
 444 06a4 764300B9 		str	w22, [x27, 64]
 445 06a8 00000094 		bl	memcpy
 446 06ac 7F2B00B9 		str	wzr, [x27, 40]
 447 06b0 E1031BAA 		mov	x1, x27
 448 06b4 A0021991 		add	x0, x21, 1600
 449 06b8 820C80D2 		mov	x2, 100
 450 06bc 733300B9 		str	w19, [x27, 48]
 451 06c0 7F4300B9 		str	wzr, [x27, 64]
 452 06c4 00000094 		bl	memcpy
 453 06c8 E77B7FB2 		mov	x7, 4294967294
 454 06cc E67B7FB2 		mov	x6, 4294967294
 455 06d0 8700C0F2 		movk	x7, 0x4, lsl 32
 456 06d4 63008012 		mov	w3, -4
AARCH64 GAS  C:\Users\RAFAEL~1.ROM\AppData\Local\Temp\ccH9DRWF.s 			page 9


 457 06d8 E1031BAA 		mov	x1, x27
 458 06dc E0423891 		add	x0, x23, 3600
 459 06e0 820C80D2 		mov	x2, 100
 460 06e4 740300B9 		str	w20, [x27]
 461 06e8 671B01A9 		stp	x7, x6, [x27, 16]
 462 06ec 632300B9 		str	w3, [x27, 32]
 463 06f0 632B00B9 		str	w3, [x27, 40]
 464 06f4 783700B9 		str	w24, [x27, 52]
 465 06f8 783F00B9 		str	w24, [x27, 60]
 466 06fc 00000094 		bl	memcpy
 467 0700 E3031FB2 		mov	x3, 8589934594
 468 0704 630300F9 		str	x3, [x27]
 469 0708 E37F40B2 		mov	x3, 4294967295
 470 070c E1031BAA 		mov	x1, x27
 471 0710 4300C0F2 		movk	x3, 0x2, lsl 32
 472 0714 630B00F9 		str	x3, [x27, 16]
 473 0718 43008012 		mov	w3, 4294967293
 474 071c E0923391 		add	x0, x23, 3300
 475 0720 4300C0F2 		movk	x3, 0x2, lsl 32
 476 0724 820C80D2 		mov	x2, 100
 477 0728 780F00B9 		str	w24, [x27, 12]
 478 072c 630F00F9 		str	x3, [x27, 24]
 479 0730 732300B9 		str	w19, [x27, 32]
 480 0734 00000094 		bl	memcpy
 481 0738 43008012 		mov	w3, 4294967293
 482 073c C5008052 		mov	w5, 6
 483 0740 4300C0F2 		movk	x3, 0x2, lsl 32
 484 0744 631300F9 		str	x3, [x27, 32]
 485 0748 43008012 		mov	w3, 4294967293
 486 074c 84008012 		mov	w4, -5
 487 0750 8300C0F2 		movk	x3, 0x4, lsl 32
 488 0754 E1031BAA 		mov	x1, x27
 489 0758 A0723091 		add	x0, x21, 3100
 490 075c 820C80D2 		mov	x2, 100
 491 0760 650300B9 		str	w5, [x27]
 492 0764 762B00B9 		str	w22, [x27, 40]
 493 0768 630F03A9 		stp	x3, x3, [x27, 48]
 494 076c 734300B9 		str	w19, [x27, 64]
 495 0770 792700F9 		str	x25, [x27, 72]
 496 0774 7F5700B9 		str	wzr, [x27, 84]
 497 0778 792F00F9 		str	x25, [x27, 88]
 498 077c 646300B9 		str	w4, [x27, 96]
 499 0780 00000094 		bl	memcpy
 500 0784 63008012 		mov	w3, -4
 501 0788 631300B9 		str	w3, [x27, 16]
 502 078c 03008012 		mov	w3, -1
 503 0790 E1031BAA 		mov	x1, x27
 504 0794 A0A22891 		add	x0, x21, 2600
 505 0798 820C80D2 		mov	x2, 100
 506 079c 780300B9 		str	w24, [x27]
 507 07a0 760B00B9 		str	w22, [x27, 8]
 508 07a4 631B00B9 		str	w3, [x27, 24]
 509 07a8 7F2300B9 		str	wzr, [x27, 32]
 510 07ac 00000094 		bl	memcpy
 511 07b0 43008012 		mov	w3, 4294967293
 512 07b4 E1031BAA 		mov	x1, x27
 513 07b8 E0823E91 		add	x0, x23, 4000
AARCH64 GAS  C:\Users\RAFAEL~1.ROM\AppData\Local\Temp\ccH9DRWF.s 			page 10


 514 07bc 820C80D2 		mov	x2, 100
 515 07c0 798F00A9 		stp	x25, x3, [x27, 8]
 516 07c4 761B00B9 		str	w22, [x27, 24]
 517 07c8 00000094 		bl	memcpy
 518 07cc E1031BAA 		mov	x1, x27
 519 07d0 80130091 		add	x0, x28, 4
 520 07d4 820C80D2 		mov	x2, 100
 521 07d8 740F00B9 		str	w20, [x27, 12]
 522 07dc 741700B9 		str	w20, [x27, 20]
 523 07e0 00000094 		bl	memcpy
 524 07e4 E1031BAA 		mov	x1, x27
 525 07e8 80330391 		add	x0, x28, 204
 526 07ec 820C80D2 		mov	x2, 100
 527 07f0 7FDB0029 		stp	wzr, w22, [x27, 4]
 528 07f4 78CF0229 		stp	w24, w19, [x27, 20]
 529 07f8 00000094 		bl	memcpy
 530 07fc 23008052 		mov	w3, 1
 531 0800 E1031BAA 		mov	x1, x27
 532 0804 80530691 		add	x0, x28, 404
 533 0808 820C80D2 		mov	x2, 100
 534 080c 630300B9 		str	w3, [x27]
 535 0810 00000094 		bl	memcpy
 536 0814 F55B41A9 		ldp	x21, x22, [sp, 16]
 537 0818 F76342A9 		ldp	x23, x24, [sp, 32]
 538 081c F96B43A9 		ldp	x25, x26, [sp, 48]
 539 0820 FB7344A9 		ldp	x27, x28, [sp, 64]
 540 0824 FE2B40F9 		ldr	x30, [sp, 80]
 541 0828 F353C6A8 		ldp	x19, x20, [sp], 96
 542 082c C0035FD6 		ret
 543              		.size	fonts_init, .-fonts_init
 544              		.bss
 545              		.align	3
 546              		.set	.LANCHOR0,. + 0
 547              		.type	font, %object
 548              		.size	font, 100
 549              	font:
 550 0000 00000000 		.zero	100
 550      00000000 
 550      00000000 
 550      00000000 
 550      00000000 
 551 0064 00000000 		.zero	4
 552              		.type	char_font_map, %object
 553              		.size	char_font_map, 12700
 554              	char_font_map:
 555 0068 00000000 		.zero	12700
 555      00000000 
 555      00000000 
 555      00000000 
 555      00000000 
 556              		.ident	"GCC: (GNU Toolchain for the A-profile Architecture 9.2-2020.02 (arm-9.10)) 9.2.1 20191025"
AARCH64 GAS  C:\Users\RAFAEL~1.ROM\AppData\Local\Temp\ccH9DRWF.s 			page 11


DEFINED SYMBOLS
                            *ABS*:0000000000000000 fonts.c
C:\Users\RAFAEL~1.ROM\AppData\Local\Temp\ccH9DRWF.s:4      .text:0000000000000000 $x
C:\Users\RAFAEL~1.ROM\AppData\Local\Temp\ccH9DRWF.s:8      .text:0000000000000000 fonts_char_to_font
C:\Users\RAFAEL~1.ROM\AppData\Local\Temp\ccH9DRWF.s:554    .bss:0000000000000068 char_font_map
C:\Users\RAFAEL~1.ROM\AppData\Local\Temp\ccH9DRWF.s:32     .text:0000000000000040 fonts_init
C:\Users\RAFAEL~1.ROM\AppData\Local\Temp\ccH9DRWF.s:545    .bss:0000000000000000 $d
C:\Users\RAFAEL~1.ROM\AppData\Local\Temp\ccH9DRWF.s:549    .bss:0000000000000000 font

UNDEFINED SYMBOLS
memcpy
AARCH64 GAS  C:\Users\RAFAEL~1.ROM\AppData\Local\Temp\ccH9DRWF.s 			page 1


   1              		.arch armv8-a
   2              		.file	"hal_cpu.c"
   3              		.text
   4              		.align	2
   5              		.p2align 4,,15
   6              		.global	hal_cpu_init
   7              		.type	hal_cpu_init, %function
   8              	hal_cpu_init:
   9 0000 F37BBFA9 		stp	x19, x30, [sp, -16]!
  10 0004 F30300AA 		mov	x19, x0
  11 0008 1F0800B9 		str	wzr, [x0, 8]
  12 000c 00000094 		bl	RPi_CpuIdString
  13 0010 01000090 		adrp	x1, RPi_CoresReady
  14 0014 210040B9 		ldr	w1, [x1, #:lo12:RPi_CoresReady]
  15 0018 600200F9 		str	x0, [x19]
  16 001c 610E00B9 		str	w1, [x19, 12]
  17 0020 F37BC1A8 		ldp	x19, x30, [sp], 16
  18 0024 C0035FD6 		ret
  19              		.size	hal_cpu_init, .-hal_cpu_init
  20              		.align	2
  21 0028 1F2003D5 		.p2align 4,,15
  21      1F2003D5 
  22              		.global	hal_cpu_ints_enable
  23              		.type	hal_cpu_ints_enable, %function
  24              	hal_cpu_ints_enable:
  25 0030 00000014 		b	EnableInterrupts
  26              		.size	hal_cpu_ints_enable, .-hal_cpu_ints_enable
  27              		.align	2
  28 0034 1F2003D5 		.p2align 4,,15
  28      1F2003D5 
  28      1F2003D5 
  29              		.global	hal_cpu_ints_disable
  30              		.type	hal_cpu_ints_disable, %function
  31              	hal_cpu_ints_disable:
  32 0040 00000014 		b	DisableInterrupts
  33              		.size	hal_cpu_ints_disable, .-hal_cpu_ints_disable
  34              		.align	2
  35 0044 1F2003D5 		.p2align 4,,15
  35      1F2003D5 
  35      1F2003D5 
  36              		.global	hal_cpu_thread_start
  37              		.type	hal_cpu_thread_start, %function
  38              	hal_cpu_thread_start:
  39 0050 00000014 		b	CoreExecute
  40              		.size	hal_cpu_thread_start, .-hal_cpu_thread_start
  41              		.align	2
  42 0054 1F2003D5 		.p2align 4,,15
  42      1F2003D5 
  42      1F2003D5 
  43              		.global	hal_cpu_svc_start
  44              		.type	hal_cpu_svc_start, %function
  45              	hal_cpu_svc_start:
  46 0060 01000090 		adrp	x1, svc_callback
  47 0064 200000F9 		str	x0, [x1, #:lo12:svc_callback]
  48 0068 C0035FD6 		ret
  49              		.size	hal_cpu_svc_start, .-hal_cpu_svc_start
  50              		.align	2
AARCH64 GAS  C:\Users\RAFAEL~1.ROM\AppData\Local\Temp\ccH9DRWF.s 			page 2


  51 006c 1F2003D5 		.p2align 4,,15
  52              		.global	hal_cpu_delay
  53              		.type	hal_cpu_delay, %function
  54              	hal_cpu_delay:
  55 0070 017D8052 		mov	w1, 1000
  56 0074 007C011B 		mul	w0, w0, w1
  57 0078 00000014 		b	delays_wait_microsecs
  58              		.size	hal_cpu_delay, .-hal_cpu_delay
  59              		.comm	svc_callback,8,8
  60              		.ident	"GCC: (GNU Toolchain for the A-profile Architecture 9.2-2020.02 (arm-9.10)) 9.2.1 20191025"
AARCH64 GAS  C:\Users\RAFAEL~1.ROM\AppData\Local\Temp\ccH9DRWF.s 			page 3


DEFINED SYMBOLS
                            *ABS*:0000000000000000 hal_cpu.c
C:\Users\RAFAEL~1.ROM\AppData\Local\Temp\ccH9DRWF.s:4      .text:0000000000000000 $x
C:\Users\RAFAEL~1.ROM\AppData\Local\Temp\ccH9DRWF.s:8      .text:0000000000000000 hal_cpu_init
C:\Users\RAFAEL~1.ROM\AppData\Local\Temp\ccH9DRWF.s:24     .text:0000000000000030 hal_cpu_ints_enable
C:\Users\RAFAEL~1.ROM\AppData\Local\Temp\ccH9DRWF.s:31     .text:0000000000000040 hal_cpu_ints_disable
C:\Users\RAFAEL~1.ROM\AppData\Local\Temp\ccH9DRWF.s:38     .text:0000000000000050 hal_cpu_thread_start
C:\Users\RAFAEL~1.ROM\AppData\Local\Temp\ccH9DRWF.s:45     .text:0000000000000060 hal_cpu_svc_start
                            *COM*:0000000000000008 svc_callback
C:\Users\RAFAEL~1.ROM\AppData\Local\Temp\ccH9DRWF.s:54     .text:0000000000000070 hal_cpu_delay

UNDEFINED SYMBOLS
RPi_CpuIdString
RPi_CoresReady
EnableInterrupts
DisableInterrupts
CoreExecute
delays_wait_microsecs
AARCH64 GAS  C:\Users\RAFAEL~1.ROM\AppData\Local\Temp\ccH9DRWF.s 			page 1


   1              	# 1 "src/hal/hal_cpu.S"
   1              	
   0              	
   0              	
   2              	.section .text
   3              	.align 2
   4              	
   5              	//SVC Handler
   6              	.global hal_synchronous_handler
   7              	hal_synchronous_handler:
   8 0000 FD7BBFA9 		stp	x29, x30, [sp, #-16]!
   9 0004 FB73BFA9 		stp	x27, x28, [sp, #-16]!
  10 0008 F96BBFA9 		stp	x25, x26, [sp, #-16]!
  11 000c F763BFA9 		stp	x23, x24, [sp, #-16]!
  12 0010 F55BBFA9 		stp	x21, x22, [sp, #-16]!
  13 0014 F353BFA9 		stp	x19, x20, [sp, #-16]!
  14 0018 F14BBFA9 		stp	x17, x18, [sp, #-16]!
  15 001c EF43BFA9 		stp	x15, x16, [sp, #-16]!
  16 0020 ED3BBFA9 		stp	x13, x14, [sp, #-16]!
  17 0024 EB33BFA9 		stp	x11, x12, [sp, #-16]!
  18 0028 E92BBFA9 		stp	x9, x10, [sp, #-16]!
  19 002c E723BFA9 		stp	x7, x8, [sp, #-16]!
  20 0030 E51BBFA9 		stp	x5, x6, [sp, #-16]!
  21 0034 E313BFA9 		stp	x3, x4, [sp, #-16]!
  22 0038 E10BBFA9 		stp	x1, x2, [sp, #-16]!
  23 003c E00F1FF8 		str	x0, [sp, #-16]!
  24              	
  25 0040 85020058 		ldr x5, =svc_callback
  26 0044 A50040F9 		ldr x5, [x5]
  27 0048 A0003FD6 		blr x5
  28              	
  29 004c E00741F8 		ldr	x0, [sp], #16
  30 0050 E10BC1A8 		ldp	x1, x2, [sp], #16
  31 0054 E313C1A8 		ldp	x3, x4, [sp], #16
  32 0058 E51BC1A8 		ldp	x5, x6, [sp], #16
  33 005c E723C1A8 		ldp	x7, x8, [sp], #16
  34 0060 E92BC1A8 		ldp	x9, x10, [sp], #16
  35 0064 EB33C1A8 		ldp	x11, x12, [sp], #16
  36 0068 ED3BC1A8 		ldp	x13, x14, [sp], #16
  37 006c EF43C1A8 		ldp	x15, x16, [sp], #16
  38 0070 F14BC1A8 		ldp	x17, x18, [sp], #16
  39 0074 F353C1A8 		ldp	x19, x20, [sp], #16
  40 0078 F55BC1A8 		ldp	x21, x22, [sp], #16
  41 007c F763C1A8 		ldp	x23, x24, [sp], #16
  42 0080 F96BC1A8 		ldp	x25, x26, [sp], #16
  43 0084 FB73C1A8 		ldp	x27, x28, [sp], #16
  44 0088 FD7BC1A8 		ldp	x29, x30, [sp], #16
  45              	
  46 008c E0039FD6 		eret
  46      00000000 
  46      00000000 
AARCH64 GAS  C:\Users\RAFAEL~1.ROM\AppData\Local\Temp\ccH9DRWF.s 			page 2


DEFINED SYMBOLS
   src/hal/hal_cpu.S:3      .text:0000000000000000 $x
   src/hal/hal_cpu.S:7      .text:0000000000000000 hal_synchronous_handler
   src/hal/hal_cpu.S:46     .text:0000000000000090 $d

UNDEFINED SYMBOLS
svc_callback
AARCH64 GAS  C:\Users\RAFAEL~1.ROM\AppData\Local\Temp\ccH9DRWF.s 			page 1


   1              		.arch armv8-a
   2              		.file	"hal_io.c"
   3              		.text
   4              		.align	2
   5              		.p2align 4,,15
   6              		.global	hal_io_serial_init
   7              		.type	hal_io_serial_init, %function
   8              	hal_io_serial_init:
   9 0000 FE0F1FF8 		str	x30, [sp, -16]!
  10 0004 00000094 		bl	uart0_init
  11 0008 00008052 		mov	w0, 0
  12 000c FE0741F8 		ldr	x30, [sp], 16
  13 0010 C0035FD6 		ret
  14              		.size	hal_io_serial_init, .-hal_io_serial_init
  15              		.align	2
  16 0014 1F2003D5 		.p2align 4,,15
  16      1F2003D5 
  16      1F2003D5 
  17              		.global	hal_io_serial_hex_dump_512_bytes
  18              		.type	hal_io_serial_hex_dump_512_bytes, %function
  19              	hal_io_serial_hex_dump_512_bytes:
  20 0020 E00301AA 		mov	x0, x1
  21 0024 00000014 		b	uart0_dump
  22              		.size	hal_io_serial_hex_dump_512_bytes, .-hal_io_serial_hex_dump_512_bytes
  23              		.align	2
  24 0028 1F2003D5 		.p2align 4,,15
  24      1F2003D5 
  25              		.global	hal_io_serial_puthex_64_bits
  26              		.type	hal_io_serial_puthex_64_bits, %function
  27              	hal_io_serial_puthex_64_bits:
  28 0030 E00301AA 		mov	x0, x1
  29 0034 00000014 		b	uart0_puthex_64_bits
  30              		.size	hal_io_serial_puthex_64_bits, .-hal_io_serial_puthex_64_bits
  31              		.align	2
  32 0038 1F2003D5 		.p2align 4,,15
  32      1F2003D5 
  33              		.global	hal_io_serial_puts
  34              		.type	hal_io_serial_puts, %function
  35              	hal_io_serial_puts:
  36 0040 F353BEA9 		stp	x19, x20, [sp, -32]!
  37 0044 33004039 		ldrb	w19, [x1]
  38 0048 FE0B00F9 		str	x30, [sp, 16]
  39 004c 13010034 		cbz	w19, .L6
  40 0050 F40301AA 		mov	x20, x1
  41 0054 A0010034 		cbz	w0, .L8
  42              		.p2align 3,,7
  43              	.L11:
  44 0058 94060091 		add	x20, x20, 1
  45 005c 7F2A0071 		cmp	w19, 10
  46 0060 80020054 		beq	.L25
  47 0064 93024039 		ldrb	w19, [x20]
  48 0068 93FFFF35 		cbnz	w19, .L11
  49              	.L6:
  50 006c FE0B40F9 		ldr	x30, [sp, 16]
  51 0070 F353C2A8 		ldp	x19, x20, [sp], 32
  52 0074 C0035FD6 		ret
  53              		.p2align 2,,3
AARCH64 GAS  C:\Users\RAFAEL~1.ROM\AppData\Local\Temp\ccH9DRWF.s 			page 2


  54              	.L26:
  55 0078 A0018052 		mov	w0, 13
  56 007c 00000094 		bl	uart0_putc
  57 0080 93024039 		ldrb	w19, [x20]
  58 0084 53FFFF34 		cbz	w19, .L6
  59              		.p2align 3,,7
  60              	.L8:
  61 0088 E003132A 		mov	w0, w19
  62 008c 00000094 		bl	uart0_putc
  63 0090 94060091 		add	x20, x20, 1
  64 0094 7F2A0071 		cmp	w19, 10
  65 0098 00FFFF54 		beq	.L26
  66 009c 93024039 		ldrb	w19, [x20]
  67 00a0 53FFFF35 		cbnz	w19, .L8
  68 00a4 FE0B40F9 		ldr	x30, [sp, 16]
  69 00a8 F353C2A8 		ldp	x19, x20, [sp], 32
  70 00ac C0035FD6 		ret
  71              		.p2align 2,,3
  72              	.L25:
  73 00b0 A0018052 		mov	w0, 13
  74 00b4 00000094 		bl	uart0_putc
  75 00b8 93024039 		ldrb	w19, [x20]
  76 00bc F3FCFF35 		cbnz	w19, .L11
  77 00c0 FE0B40F9 		ldr	x30, [sp, 16]
  78 00c4 F353C2A8 		ldp	x19, x20, [sp], 32
  79 00c8 C0035FD6 		ret
  80              		.size	hal_io_serial_puts, .-hal_io_serial_puts
  81              		.align	2
  82 00cc 1F2003D5 		.p2align 4,,15
  83              		.global	hal_io_serial_putc
  84              		.type	hal_io_serial_putc, %function
  85              	hal_io_serial_putc:
  86 00d0 F37BBFA9 		stp	x19, x30, [sp, -16]!
  87 00d4 331C0012 		and	w19, w1, 255
  88 00d8 A0000034 		cbz	w0, .L31
  89 00dc 7F2A0071 		cmp	w19, 10
  90 00e0 E0000054 		beq	.L32
  91              	.L27:
  92 00e4 F37BC1A8 		ldp	x19, x30, [sp], 16
  93 00e8 C0035FD6 		ret
  94              		.p2align 2,,3
  95              	.L31:
  96 00ec E003132A 		mov	w0, w19
  97 00f0 00000094 		bl	uart0_putc
  98 00f4 7F2A0071 		cmp	w19, 10
  99 00f8 61FFFF54 		bne	.L27
 100              	.L32:
 101 00fc F37BC1A8 		ldp	x19, x30, [sp], 16
 102 0100 A0018052 		mov	w0, 13
 103 0104 00000014 		b	uart0_putc
 104              		.size	hal_io_serial_putc, .-hal_io_serial_putc
 105              		.align	2
 106 0108 1F2003D5 		.p2align 4,,15
 106      1F2003D5 
 107              		.global	hal_io_serial_getc
 108              		.type	hal_io_serial_getc, %function
 109              	hal_io_serial_getc:
AARCH64 GAS  C:\Users\RAFAEL~1.ROM\AppData\Local\Temp\ccH9DRWF.s 			page 3


 110 0110 60000034 		cbz	w0, .L34
 111 0114 00008052 		mov	w0, 0
 112 0118 C0035FD6 		ret
 113              		.p2align 2,,3
 114              	.L34:
 115 011c 00000014 		b	uart0_getc
 116              		.size	hal_io_serial_getc, .-hal_io_serial_getc
 117              		.align	2
 118              		.p2align 4,,15
 119              		.global	hal_io_serial_nonblocking_getc
 120              		.type	hal_io_serial_nonblocking_getc, %function
 121              	hal_io_serial_nonblocking_getc:
 122 0120 60000034 		cbz	w0, .L40
 123 0124 00008052 		mov	w0, 0
 124 0128 C0035FD6 		ret
 125              		.p2align 2,,3
 126              	.L40:
 127 012c E00301AA 		mov	x0, x1
 128 0130 00000014 		b	uart0_nonblocking_getc
 129              		.size	hal_io_serial_nonblocking_getc, .-hal_io_serial_nonblocking_getc
 130              		.ident	"GCC: (GNU Toolchain for the A-profile Architecture 9.2-2020.02 (arm-9.10)) 9.2.1 20191025"
AARCH64 GAS  C:\Users\RAFAEL~1.ROM\AppData\Local\Temp\ccH9DRWF.s 			page 4


DEFINED SYMBOLS
                            *ABS*:0000000000000000 hal_io.c
C:\Users\RAFAEL~1.ROM\AppData\Local\Temp\ccH9DRWF.s:4      .text:0000000000000000 $x
C:\Users\RAFAEL~1.ROM\AppData\Local\Temp\ccH9DRWF.s:8      .text:0000000000000000 hal_io_serial_init
C:\Users\RAFAEL~1.ROM\AppData\Local\Temp\ccH9DRWF.s:19     .text:0000000000000020 hal_io_serial_hex_dump_512_bytes
C:\Users\RAFAEL~1.ROM\AppData\Local\Temp\ccH9DRWF.s:27     .text:0000000000000030 hal_io_serial_puthex_64_bits
C:\Users\RAFAEL~1.ROM\AppData\Local\Temp\ccH9DRWF.s:35     .text:0000000000000040 hal_io_serial_puts
C:\Users\RAFAEL~1.ROM\AppData\Local\Temp\ccH9DRWF.s:85     .text:00000000000000d0 hal_io_serial_putc
C:\Users\RAFAEL~1.ROM\AppData\Local\Temp\ccH9DRWF.s:109    .text:0000000000000110 hal_io_serial_getc
C:\Users\RAFAEL~1.ROM\AppData\Local\Temp\ccH9DRWF.s:121    .text:0000000000000120 hal_io_serial_nonblocking_getc

UNDEFINED SYMBOLS
uart0_init
uart0_dump
uart0_puthex_64_bits
uart0_putc
uart0_getc
uart0_nonblocking_getc
AARCH64 GAS  C:\Users\RAFAEL~1.ROM\AppData\Local\Temp\ccH9DRWF.s 			page 1


   1              		.arch armv8-a
   2              		.file	"hal_sd_card.c"
   3              		.text
   4              		.align	2
   5              		.p2align 4,,15
   6              		.global	hal_sd_card_init
   7              		.type	hal_sd_card_init, %function
   8              	hal_sd_card_init:
   9 0000 FE0F1FF8 		str	x30, [sp, -16]!
  10 0004 00000094 		bl	sd_init
  11 0008 1F000071 		cmp	w0, 0
  12 000c E0079F1A 		cset	w0, ne
  13 0010 FE0741F8 		ldr	x30, [sp], 16
  14 0014 C0035FD6 		ret
  15              		.size	hal_sd_card_init, .-hal_sd_card_init
  16              		.align	2
  17 0018 1F2003D5 		.p2align 4,,15
  17      1F2003D5 
  18              		.global	hal_sd_card_read_block
  19              		.type	hal_sd_card_read_block, %function
  20              	hal_sd_card_read_block:
  21 0020 E30300AA 		mov	x3, x0
  22 0024 E003012A 		mov	w0, w1
  23 0028 E10303AA 		mov	x1, x3
  24 002c 00000014 		b	sd_readblock
  25              		.size	hal_sd_card_read_block, .-hal_sd_card_read_block
  26              		.ident	"GCC: (GNU Toolchain for the A-profile Architecture 9.2-2020.02 (arm-9.10)) 9.2.1 20191025"
AARCH64 GAS  C:\Users\RAFAEL~1.ROM\AppData\Local\Temp\ccH9DRWF.s 			page 2


DEFINED SYMBOLS
                            *ABS*:0000000000000000 hal_sd_card.c
C:\Users\RAFAEL~1.ROM\AppData\Local\Temp\ccH9DRWF.s:4      .text:0000000000000000 $x
C:\Users\RAFAEL~1.ROM\AppData\Local\Temp\ccH9DRWF.s:8      .text:0000000000000000 hal_sd_card_init
C:\Users\RAFAEL~1.ROM\AppData\Local\Temp\ccH9DRWF.s:20     .text:0000000000000020 hal_sd_card_read_block

UNDEFINED SYMBOLS
sd_init
sd_readblock
AARCH64 GAS  C:\Users\RAFAEL~1.ROM\AppData\Local\Temp\ccH9DRWF.s 			page 1


   1              		.arch armv8-a
   2              		.file	"hal_video.c"
   3              		.text
   4              		.align	2
   5              		.p2align 4,,15
   6              		.type	draw_character_raw, %function
   7              	draw_character_raw:
   8 0000 450040B9 		ldr	w5, [x2]
   9 0004 E5080034 		cbz	w5, .L24
  10 0008 05000090 		adrp	x5, fb
  11 000c B00040F9 		ldr	x16, [x5, #:lo12:fb]
  12 0010 4D100091 		add	x13, x2, 4
  13 0014 F37BBFA9 		stp	x19, x30, [sp, -16]!
  14 0018 11008052 		mov	w17, 0
  15 001c 0E008012 		mov	w14, -1
  16 0020 0FA08052 		mov	w15, 1280
  17 0024 1F2003D5 		.p2align 3,,7
  18              	.L14:
  19 0028 A5194029 		ldp	w5, w6, [x13]
  20 002c A8254129 		ldp	w8, w9, [x13, 8]
  21 0030 0C01054B 		sub	w12, w8, w5
  22 0034 AB00084B 		sub	w11, w5, w8
  23 0038 2701064B 		sub	w7, w9, w6
  24 003c CA00094B 		sub	w10, w6, w9
  25 0040 A500031B 		madd	w5, w5, w3, w0
  26 0044 8C7D031B 		mul	w12, w12, w3
  27 0048 6B7D031B 		mul	w11, w11, w3
  28 004c 0801031B 		madd	w8, w8, w3, w0
  29 0050 9F010071 		cmp	w12, 0
  30 0054 C604031B 		madd	w6, w6, w3, w1
  31 0058 6CB18C1A 		csel	w12, w11, w12, lt
  32 005c E77C031B 		mul	w7, w7, w3
  33 0060 BF00086B 		cmp	w5, w8
  34 0064 4A7D031B 		mul	w10, w10, w3
  35 0068 D2A58E5A 		csneg	w18, w14, w14, ge
  36 006c FF000071 		cmp	w7, 0
  37 0070 2905031B 		madd	w9, w9, w3, w1
  38 0074 47B1871A 		csel	w7, w10, w7, lt
  39 0078 D3140F1B 		madd	w19, w6, w15, w5
  40 007c EB03074B 		neg	w11, w7
  41 0080 DF00096B 		cmp	w6, w9
  42 0084 8A7D0113 		asr	w10, w12, 1
  43 0088 DEA58E5A 		csneg	w30, w14, w14, ge
  44 008c 6B7D4B0B 		add	w11, w11, w11, lsr 31
  45 0090 9F01076B 		cmp	w12, w7
  46 0094 047A33B8 		str	w4, [x16, x19, lsl 2]
  47 0098 6B7D0113 		asr	w11, w11, 1
  48 009c 4AC18B1A 		csel	w10, w10, w11, gt
  49 00a0 DF00096B 		cmp	w6, w9
  50 00a4 A000487A 		ccmp	w5, w8, 0, eq
  51 00a8 E0020054 		beq	.L8
  52 00ac F3030C4B 		neg	w19, w12
  53              		.p2align 3,,7
  54              	.L9:
  55 00b0 5F01136B 		cmp	w10, w19
  56 00b4 EB030A2A 		mov	w11, w10
  57 00b8 6D000054 		ble	.L11
AARCH64 GAS  C:\Users\RAFAEL~1.ROM\AppData\Local\Temp\ccH9DRWF.s 			page 2


  58 00bc A500120B 		add	w5, w5, w18
  59 00c0 4B01074B 		sub	w11, w10, w7
  60              	.L11:
  61 00c4 FF000A6B 		cmp	w7, w10
  62 00c8 4D010054 		ble	.L12
  63 00cc C6001E0B 		add	w6, w6, w30
  64 00d0 6B010C0B 		add	w11, w11, w12
  65 00d4 3F01066B 		cmp	w9, w6
  66 00d8 0001457A 		ccmp	w8, w5, 0, eq
  67 00dc CA140F1B 		madd	w10, w6, w15, w5
  68 00e0 047A2AB8 		str	w4, [x16, x10, lsl 2]
  69 00e4 00010054 		beq	.L8
  70              	.L13:
  71 00e8 EA030B2A 		mov	w10, w11
  72 00ec F1FFFF17 		b	.L9
  73              		.p2align 2,,3
  74              	.L12:
  75 00f0 CA140F1B 		madd	w10, w6, w15, w5
  76 00f4 1F01056B 		cmp	w8, w5
  77 00f8 2001467A 		ccmp	w9, w6, 0, eq
  78 00fc 047A2AB8 		str	w4, [x16, x10, lsl 2]
  79 0100 41FFFF54 		bne	.L13
  80              	.L8:
  81 0104 450040B9 		ldr	w5, [x2]
  82 0108 31060011 		add	w17, w17, 1
  83 010c AD410091 		add	x13, x13, 16
  84 0110 BF00116B 		cmp	w5, w17
  85 0114 A8F8FF54 		bhi	.L14
  86 0118 F37BC1A8 		ldp	x19, x30, [sp], 16
  87 011c C0035FD6 		ret
  88              		.p2align 2,,3
  89              	.L24:
  90 0120 C0035FD6 		ret
  91              		.size	draw_character_raw, .-draw_character_raw
  92              		.align	2
  93 0124 1F2003D5 		.p2align 4,,15
  93      1F2003D5 
  93      1F2003D5 
  94              		.global	hal_video_init
  95              		.type	hal_video_init, %function
  96              	hal_video_init:
  97 0130 FE0F1FF8 		str	x30, [sp, -16]!
  98 0134 00000094 		bl	fb_init
  99 0138 E10300AA 		mov	x1, x0
 100 013c 02000090 		adrp	x2, fb
 101 0140 400000F9 		str	x0, [x2, #:lo12:fb]
 102 0144 20008052 		mov	w0, 1
 103 0148 610000B4 		cbz	x1, .L28
 104 014c 00000094 		bl	fonts_init
 105 0150 00008052 		mov	w0, 0
 106              	.L28:
 107 0154 FE0741F8 		ldr	x30, [sp], 16
 108 0158 C0035FD6 		ret
 109              		.size	hal_video_init, .-hal_video_init
 110              		.align	2
 111 015c 1F2003D5 		.p2align 4,,15
 112              		.global	hal_io_video_draw_image
AARCH64 GAS  C:\Users\RAFAEL~1.ROM\AppData\Local\Temp\ccH9DRWF.s 			page 3


 113              		.type	hal_io_video_draw_image, %function
 114              	hal_io_video_draw_image:
 115 0160 0F000090 		adrp	x15, .LANCHOR0
 116 0164 E9010091 		add	x9, x15, :lo12:.LANCHOR0
 117 0168 4A7C011B 		mul	w10, w2, w1
 118 016c FF0100B9 		str	wzr, [x15, #:lo12:.LANCHOR0]
 119 0170 230540B9 		ldr	w3, [x9, 4]
 120 0174 4A050A0B 		add	w10, w10, w10, lsl 1
 121 0178 63280011 		add	w3, w3, 10
 122 017c 4AD90011 		add	w10, w10, 54
 123 0180 6600020B 		add	w6, w3, w2
 124 0184 260500B9 		str	w6, [x9, 4]
 125 0188 5FD90071 		cmp	w10, 54
 126 018c 69040054 		bls	.L35
 127 0190 03000090 		adrp	x3, fb
 128 0194 6E0040F9 		ldr	x14, [x3, #:lo12:fb]
 129 0198 C40680D2 		mov	x4, 54
 130 019c 05008052 		mov	w5, 0
 131 01a0 0DE0BF52 		mov	w13, -16777216
 132 01a4 0CA08052 		mov	w12, 1280
 133 01a8 07000014 		b	.L39
 134              		.p2align 2,,3
 135              	.L41:
 136 01ac C6040051 		sub	w6, w6, #1
 137 01b0 3F190029 		stp	wzr, w6, [x9]
 138 01b4 840C0091 		add	x4, x4, 3
 139 01b8 05008052 		mov	w5, 0
 140 01bc 5F01046B 		cmp	w10, w4
 141 01c0 C9020054 		bls	.L35
 142              	.L39:
 143 01c4 83040011 		add	w3, w4, 1
 144 01c8 87080011 		add	w7, w4, 2
 145 01cc 08686438 		ldrb	w8, [x0, x4]
 146 01d0 CB140C1B 		madd	w11, w6, w12, w5
 147 01d4 03486338 		ldrb	w3, [x0, w3, uxtw]
 148 01d8 07486738 		ldrb	w7, [x0, w7, uxtw]
 149 01dc 083D1053 		lsl	w8, w8, 16
 150 01e0 0321032A 		orr	w3, w8, w3, lsl 8
 151 01e4 E71C0832 		orr	w7, w7, -16777216
 152 01e8 6300072A 		orr	w3, w3, w7
 153 01ec 7F000D6B 		cmp	w3, w13
 154 01f0 60000054 		beq	.L36
 155 01f4 C3792BB8 		str	w3, [x14, x11, lsl 2]
 156 01f8 25194029 		ldp	w5, w6, [x9]
 157              	.L36:
 158 01fc 3F00056B 		cmp	w1, w5
 159 0200 A5040011 		add	w5, w5, 1
 160 0204 49FDFF54 		bls	.L41
 161 0208 250100B9 		str	w5, [x9]
 162 020c 840C0091 		add	x4, x4, 3
 163 0210 5F01046B 		cmp	w10, w4
 164 0214 88FDFF54 		bhi	.L39
 165              	.L35:
 166 0218 4200060B 		add	w2, w2, w6
 167 021c 80008052 		mov	w0, 4
 168 0220 E00100B9 		str	w0, [x15, #:lo12:.LANCHOR0]
 169 0224 220500B9 		str	w2, [x9, 4]
AARCH64 GAS  C:\Users\RAFAEL~1.ROM\AppData\Local\Temp\ccH9DRWF.s 			page 4


 170 0228 C0035FD6 		ret
 171              		.size	hal_io_video_draw_image, .-hal_io_video_draw_image
 172              		.align	2
 173 022c 1F2003D5 		.p2align 4,,15
 174              		.global	hal_video_putc
 175              		.type	hal_video_putc, %function
 176              	hal_video_putc:
 177 0230 F353BCA9 		stp	x19, x20, [sp, -64]!
 178 0234 F303012A 		mov	w19, w1
 179 0238 F77B02A9 		stp	x23, x30, [sp, 32]
 180 023c 171C0012 		and	w23, w0, 255
 181 0240 FF2A0071 		cmp	w23, 10
 182 0244 00040054 		beq	.L58
 183 0248 FF360071 		cmp	w23, 13
 184 024c 20070054 		beq	.L59
 185 0250 00288052 		mov	w0, 320
 186 0254 0000014B 		sub	w0, w0, w1
 187 0258 F55B01A9 		stp	x21, x22, [sp, 16]
 188 025c 14000090 		adrp	x20, .LANCHOR0
 189 0260 960240B9 		ldr	w22, [x20, #:lo12:.LANCHOR0]
 190 0264 00741E53 		lsl	w0, w0, 2
 191 0268 F503022A 		mov	w21, w2
 192 026c 000C0051 		sub	w0, w0, #3
 193 0270 1F00166B 		cmp	w0, w22
 194 0274 E9040054 		bls	.L60
 195              	.L52:
 196 0278 81020091 		add	x1, x20, :lo12:.LANCHOR0
 197 027c E003172A 		mov	w0, w23
 198 0280 370440B9 		ldr	w23, [x1, 4]
 199 0284 00000094 		bl	fonts_char_to_font
 200 0288 E403152A 		mov	w4, w21
 201 028c E303132A 		mov	w3, w19
 202 0290 E20300AA 		mov	x2, x0
 203 0294 E103172A 		mov	w1, w23
 204 0298 E01F00F9 		str	x0, [sp, 56]
 205 029c E003162A 		mov	w0, w22
 206 02a0 58FFFF97 		bl	draw_character_raw
 207 02a4 800240B9 		ldr	w0, [x20, #:lo12:.LANCHOR0]
 208 02a8 F55B41A9 		ldp	x21, x22, [sp, 16]
 209 02ac 000C0011 		add	w0, w0, 3
 210 02b0 1308130B 		add	w19, w0, w19, lsl 2
 211 02b4 930200B9 		str	w19, [x20, #:lo12:.LANCHOR0]
 212 02b8 F77B42A9 		ldp	x23, x30, [sp, 32]
 213 02bc F353C4A8 		ldp	x19, x20, [sp], 64
 214 02c0 C0035FD6 		ret
 215              	.L58:
 216 02c4 F55B01A9 		stp	x21, x22, [sp, 16]
 217 02c8 14000090 		adrp	x20, .LANCHOR0
 218 02cc 95020091 		add	x21, x20, :lo12:.LANCHOR0
 219 02d0 005C8052 		mov	w0, 736
 220 02d4 61018052 		mov	w1, 11
 221 02d8 6182011B 		msub	w1, w19, w1, w0
 222 02dc A00640B9 		ldr	w0, [x21, 4]
 223 02e0 3F00006B 		cmp	w1, w0
 224 02e4 29030054 		bls	.L61
 225 02e8 00140011 		add	w0, w0, 5
 226 02ec C1008052 		mov	w1, 6
AARCH64 GAS  C:\Users\RAFAEL~1.ROM\AppData\Local\Temp\ccH9DRWF.s 			page 5


 227 02f0 82008052 		mov	w2, 4
 228 02f4 820200B9 		str	w2, [x20, #:lo12:.LANCHOR0]
 229 02f8 F77B42A9 		ldp	x23, x30, [sp, 32]
 230 02fc 7302011B 		madd	w19, w19, w1, w0
 231 0300 B30600B9 		str	w19, [x21, 4]
 232 0304 F55B41A9 		ldp	x21, x22, [sp, 16]
 233 0308 F353C4A8 		ldp	x19, x20, [sp], 64
 234 030c C0035FD6 		ret
 235              	.L60:
 236 0310 A0018052 		mov	w0, 13
 237 0314 00000094 		bl	hal_video_putc
 238 0318 E203152A 		mov	w2, w21
 239 031c E103132A 		mov	w1, w19
 240 0320 40018052 		mov	w0, 10
 241 0324 00000094 		bl	hal_video_putc
 242 0328 960240B9 		ldr	w22, [x20, #:lo12:.LANCHOR0]
 243 032c D3FFFF17 		b	.L52
 244              	.L59:
 245 0330 00000090 		adrp	x0, .LANCHOR0
 246 0334 81008052 		mov	w1, 4
 247 0338 F77B42A9 		ldp	x23, x30, [sp, 32]
 248 033c 010000B9 		str	w1, [x0, #:lo12:.LANCHOR0]
 249 0340 F353C4A8 		ldp	x19, x20, [sp], 64
 250 0344 C0035FD6 		ret
 251              	.L61:
 252 0348 B30640F9 		ldr	x19, [x21, 8]
 253 034c 96758052 		mov	w22, 940
 254 0350 60024039 		ldrb	w0, [x19]
 255 0354 60010034 		cbz	w0, .L47
 256              	.L45:
 257 0358 00000094 		bl	fonts_char_to_font
 258 035c E20300AA 		mov	x2, x0
 259 0360 E41F8052 		mov	w4, 255
 260 0364 E003162A 		mov	w0, w22
 261 0368 43008052 		mov	w3, 2
 262 036c 415D8052 		mov	w1, 746
 263 0370 24FFFF97 		bl	draw_character_raw
 264 0374 D62E0011 		add	w22, w22, 11
 265 0378 601E4038 		ldrb	w0, [x19, 1]!
 266 037c E0FEFF35 		cbnz	w0, .L45
 267              	.L47:
 268 0380 00008052 		mov	w0, 0
 269 0384 00000094 		bl	hal_io_serial_getc
 270 0388 00000090 		adrp	x0, fb
 271 038c 030040F9 		ldr	x3, [x0, #:lo12:fb]
 272 0390 018082D2 		mov	x1, 5120
 273 0394 E40301AA 		mov	x4, x1
 274 0398 82848452 		mov	w2, 9252
 275 039c 6204A072 		movk	w2, 0x23, lsl 16
 276 03a0 6100018B 		add	x1, x3, x1
 277 03a4 63044F91 		add	x3, x3, 3936256
 278 03a8 E57F8292 		mov	x5, -5120
 279 03ac 63001091 		add	x3, x3, 1024
 280              	.L46:
 281 03b0 2000058B 		add	x0, x1, x5
 282 03b4 1F2003D5 		.p2align 3,,7
 283              	.L48:
AARCH64 GAS  C:\Users\RAFAEL~1.ROM\AppData\Local\Temp\ccH9DRWF.s 			page 6


 284 03b8 024400B8 		str	w2, [x0], 4
 285 03bc 1F0001EB 		cmp	x0, x1
 286 03c0 C1FFFF54 		bne	.L48
 287 03c4 0100048B 		add	x1, x0, x4
 288 03c8 3F0003EB 		cmp	x1, x3
 289 03cc 21FFFF54 		bne	.L46
 290 03d0 81008052 		mov	w1, 4
 291 03d4 40028052 		mov	w0, 18
 292 03d8 810200B9 		str	w1, [x20, #:lo12:.LANCHOR0]
 293 03dc A00600B9 		str	w0, [x21, 4]
 294 03e0 F55B41A9 		ldp	x21, x22, [sp, 16]
 295 03e4 F77B42A9 		ldp	x23, x30, [sp, 32]
 296 03e8 F353C4A8 		ldp	x19, x20, [sp], 64
 297 03ec C0035FD6 		ret
 298              		.size	hal_video_putc, .-hal_video_putc
 299              		.align	2
 300              		.p2align 4,,15
 301              		.global	hal_video_puts
 302              		.type	hal_video_puts, %function
 303              	hal_video_puts:
 304 03f0 F353BEA9 		stp	x19, x20, [sp, -32]!
 305 03f4 F30300AA 		mov	x19, x0
 306 03f8 FE0F00F9 		str	x30, [sp, 24]
 307 03fc 00004039 		ldrb	w0, [x0]
 308 0400 40010034 		cbz	w0, .L62
 309 0404 F403022A 		mov	w20, w2
 310 0408 F50B00F9 		str	x21, [sp, 16]
 311 040c F503012A 		mov	w21, w1
 312              		.p2align 3,,7
 313              	.L64:
 314 0410 E203142A 		mov	w2, w20
 315 0414 E103152A 		mov	w1, w21
 316 0418 00000094 		bl	hal_video_putc
 317 041c 601E4038 		ldrb	w0, [x19, 1]!
 318 0420 80FFFF35 		cbnz	w0, .L64
 319 0424 F50B40F9 		ldr	x21, [sp, 16]
 320              	.L62:
 321 0428 FE0F40F9 		ldr	x30, [sp, 24]
 322 042c F353C2A8 		ldp	x19, x20, [sp], 32
 323 0430 C0035FD6 		ret
 324              		.size	hal_video_puts, .-hal_video_puts
 325              		.align	2
 326 0434 1F2003D5 		.p2align 4,,15
 326      1F2003D5 
 326      1F2003D5 
 327              		.global	hal_video_putc_x_y
 328              		.type	hal_video_putc_x_y, %function
 329              	hal_video_putc_x_y:
 330 0440 F353BDA9 		stp	x19, x20, [sp, -48]!
 331 0444 F303032A 		mov	w19, w3
 332 0448 F403042A 		mov	w20, w4
 333 044c F55B01A9 		stp	x21, x22, [sp, 16]
 334 0450 F603012A 		mov	w22, w1
 335 0454 F503002A 		mov	w21, w0
 336 0458 E003022A 		mov	w0, w2
 337 045c FE1300F9 		str	x30, [sp, 32]
 338 0460 00000094 		bl	fonts_char_to_font
AARCH64 GAS  C:\Users\RAFAEL~1.ROM\AppData\Local\Temp\ccH9DRWF.s 			page 7


 339 0464 010040B9 		ldr	w1, [x0]
 340 0468 81080034 		cbz	w1, .L70
 341 046c 01000090 		adrp	x1, fb
 342 0470 2E0040F9 		ldr	x14, [x1, #:lo12:fb]
 343 0474 0B100091 		add	x11, x0, 4
 344 0478 0D008052 		mov	w13, 0
 345 047c 04008012 		mov	w4, -1
 346 0480 0CA08052 		mov	w12, 1280
 347 0484 1F2003D5 		.p2align 3,,7
 348              	.L83:
 349 0488 62154029 		ldp	w2, w5, [x11]
 350 048c 67214129 		ldp	w7, w8, [x11, 8]
 351 0490 E300024B 		sub	w3, w7, w2
 352 0494 4900074B 		sub	w9, w2, w7
 353 0498 0601054B 		sub	w6, w8, w5
 354 049c A100084B 		sub	w1, w5, w8
 355 04a0 6256021B 		madd	w2, w19, w2, w21
 356 04a4 637C131B 		mul	w3, w3, w19
 357 04a8 297D131B 		mul	w9, w9, w19
 358 04ac 6756071B 		madd	w7, w19, w7, w21
 359 04b0 7F000071 		cmp	w3, 0
 360 04b4 655A051B 		madd	w5, w19, w5, w22
 361 04b8 23B1831A 		csel	w3, w9, w3, lt
 362 04bc C67C131B 		mul	w6, w6, w19
 363 04c0 5F00076B 		cmp	w2, w7
 364 04c4 217C131B 		mul	w1, w1, w19
 365 04c8 8FA4845A 		csneg	w15, w4, w4, ge
 366 04cc DF000071 		cmp	w6, 0
 367 04d0 685A081B 		madd	w8, w19, w8, w22
 368 04d4 26B0861A 		csel	w6, w1, w6, lt
 369 04d8 A1080C1B 		madd	w1, w5, w12, w2
 370 04dc EA03064B 		neg	w10, w6
 371 04e0 BF00086B 		cmp	w5, w8
 372 04e4 697C0113 		asr	w9, w3, 1
 373 04e8 90A4845A 		csneg	w16, w4, w4, ge
 374 04ec 4A7D4A0B 		add	w10, w10, w10, lsr 31
 375 04f0 7F00066B 		cmp	w3, w6
 376 04f4 D47921B8 		str	w20, [x14, x1, lsl 2]
 377 04f8 4A7D0113 		asr	w10, w10, 1
 378 04fc 29C18A1A 		csel	w9, w9, w10, gt
 379 0500 BF00086B 		cmp	w5, w8
 380 0504 4000477A 		ccmp	w2, w7, 0, eq
 381 0508 E0020054 		beq	.L77
 382 050c EA03034B 		neg	w10, w3
 383              		.p2align 3,,7
 384              	.L78:
 385 0510 3F010A6B 		cmp	w9, w10
 386 0514 E103092A 		mov	w1, w9
 387 0518 6D000054 		ble	.L80
 388 051c 42000F0B 		add	w2, w2, w15
 389 0520 2101064B 		sub	w1, w9, w6
 390              	.L80:
 391 0524 DF00096B 		cmp	w6, w9
 392 0528 4D010054 		ble	.L81
 393 052c A500100B 		add	w5, w5, w16
 394 0530 2100030B 		add	w1, w1, w3
 395 0534 1F01056B 		cmp	w8, w5
AARCH64 GAS  C:\Users\RAFAEL~1.ROM\AppData\Local\Temp\ccH9DRWF.s 			page 8


 396 0538 E000427A 		ccmp	w7, w2, 0, eq
 397 053c A9080C1B 		madd	w9, w5, w12, w2
 398 0540 D47929B8 		str	w20, [x14, x9, lsl 2]
 399 0544 00010054 		beq	.L77
 400              	.L82:
 401 0548 E903012A 		mov	w9, w1
 402 054c F1FFFF17 		b	.L78
 403              		.p2align 2,,3
 404              	.L81:
 405 0550 A9080C1B 		madd	w9, w5, w12, w2
 406 0554 FF00026B 		cmp	w7, w2
 407 0558 0001457A 		ccmp	w8, w5, 0, eq
 408 055c D47929B8 		str	w20, [x14, x9, lsl 2]
 409 0560 41FFFF54 		bne	.L82
 410              	.L77:
 411 0564 010040B9 		ldr	w1, [x0]
 412 0568 AD050011 		add	w13, w13, 1
 413 056c 6B410091 		add	x11, x11, 16
 414 0570 3F000D6B 		cmp	w1, w13
 415 0574 A8F8FF54 		bhi	.L83
 416              	.L70:
 417 0578 F55B41A9 		ldp	x21, x22, [sp, 16]
 418 057c FE1340F9 		ldr	x30, [sp, 32]
 419 0580 F353C3A8 		ldp	x19, x20, [sp], 48
 420 0584 C0035FD6 		ret
 421              		.size	hal_video_putc_x_y, .-hal_video_putc_x_y
 422              		.align	2
 423 0588 1F2003D5 		.p2align 4,,15
 423      1F2003D5 
 424              		.global	hal_video_line
 425              		.type	hal_video_line, %function
 426              	hal_video_line:
 427 0590 03000090 		adrp	x3, fb
 428 0594 690040F9 		ldr	x9, [x3, #:lo12:fb]
 429 0598 0A008012 		mov	w10, -1
 430 059c 03104029 		ldp	w3, w4, [x0]
 431 05a0 08A08052 		mov	w8, 1280
 432 05a4 261C4029 		ldp	w6, w7, [x1]
 433 05a8 8C0C081B 		madd	w12, w4, w8, w3
 434 05ac 6000064B 		sub	w0, w3, w6
 435 05b0 CB00036B 		subs	w11, w6, w3
 436 05b4 0B408B1A 		csel	w11, w0, w11, mi
 437 05b8 7F00066B 		cmp	w3, w6
 438 05bc 4DA58A5A 		csneg	w13, w10, w10, ge
 439 05c0 8000074B 		sub	w0, w4, w7
 440 05c4 E500046B 		subs	w5, w7, w4
 441 05c8 22792CB8 		str	w2, [x9, x12, lsl 2]
 442 05cc 0540851A 		csel	w5, w0, w5, mi
 443 05d0 9F00076B 		cmp	w4, w7
 444 05d4 E103054B 		neg	w1, w5
 445 05d8 4AA58A5A 		csneg	w10, w10, w10, ge
 446 05dc 607D0113 		asr	w0, w11, 1
 447 05e0 7F01056B 		cmp	w11, w5
 448 05e4 217C410B 		add	w1, w1, w1, lsr 31
 449 05e8 217C0113 		asr	w1, w1, 1
 450 05ec 00C0811A 		csel	w0, w0, w1, gt
 451 05f0 7F00066B 		cmp	w3, w6
AARCH64 GAS  C:\Users\RAFAEL~1.ROM\AppData\Local\Temp\ccH9DRWF.s 			page 9


 452 05f4 8000477A 		ccmp	w4, w7, 0, eq
 453 05f8 20020054 		beq	.L93
 454 05fc EC030B4B 		neg	w12, w11
 455              		.p2align 3,,7
 456              	.L100:
 457 0600 9F01006B 		cmp	w12, w0
 458 0604 E103002A 		mov	w1, w0
 459 0608 6A000054 		bge	.L102
 460 060c 63000D0B 		add	w3, w3, w13
 461 0610 0100054B 		sub	w1, w0, w5
 462              	.L102:
 463 0614 BF00006B 		cmp	w5, w0
 464 0618 E003012A 		mov	w0, w1
 465 061c 2D010054 		ble	.L103
 466 0620 84000A0B 		add	w4, w4, w10
 467 0624 20000B0B 		add	w0, w1, w11
 468 0628 FF00046B 		cmp	w7, w4
 469 062c 6000467A 		ccmp	w3, w6, 0, eq
 470 0630 810C081B 		madd	w1, w4, w8, w3
 471 0634 227921B8 		str	w2, [x9, x1, lsl 2]
 472 0638 41FEFF54 		bne	.L100
 473              	.L93:
 474 063c C0035FD6 		ret
 475              		.p2align 2,,3
 476              	.L103:
 477 0640 810C081B 		madd	w1, w4, w8, w3
 478 0644 7F00066B 		cmp	w3, w6
 479 0648 E000447A 		ccmp	w7, w4, 0, eq
 480 064c 227921B8 		str	w2, [x9, x1, lsl 2]
 481 0650 81FDFF54 		bne	.L100
 482 0654 C0035FD6 		ret
 483              		.size	hal_video_line, .-hal_video_line
 484              		.align	2
 485 0658 1F2003D5 		.p2align 4,,15
 485      1F2003D5 
 486              		.global	hal_video_put_pixel_area
 487              		.type	hal_video_put_pixel_area, %function
 488              	hal_video_put_pixel_area:
 489 0660 060440B9 		ldr	w6, [x0, 4]
 490 0664 040C40B9 		ldr	w4, [x0, 12]
 491 0668 DF00046B 		cmp	w6, w4
 492 066c 62020054 		bcs	.L112
 493 0670 02000090 		adrp	x2, fb
 494 0674 450040F9 		ldr	x5, [x2, #:lo12:fb]
 495 0678 07A08052 		mov	w7, 1280
 496 067c 030840B9 		ldr	w3, [x0, 8]
 497              		.p2align 3,,7
 498              	.L116:
 499 0680 020040B9 		ldr	w2, [x0]
 500 0684 5F00036B 		cmp	w2, w3
 501 0688 22010054 		bcs	.L114
 502 068c C47C071B 		mul	w4, w6, w7
 503              		.p2align 3,,7
 504              	.L115:
 505 0690 4300040B 		add	w3, w2, w4
 506 0694 42040011 		add	w2, w2, 1
 507 0698 A17823B8 		str	w1, [x5, x3, lsl 2]
AARCH64 GAS  C:\Users\RAFAEL~1.ROM\AppData\Local\Temp\ccH9DRWF.s 			page 10


 508 069c 030840B9 		ldr	w3, [x0, 8]
 509 06a0 7F00026B 		cmp	w3, w2
 510 06a4 68FFFF54 		bhi	.L115
 511 06a8 040C40B9 		ldr	w4, [x0, 12]
 512              	.L114:
 513 06ac C6040011 		add	w6, w6, 1
 514 06b0 9F00066B 		cmp	w4, w6
 515 06b4 68FEFF54 		bhi	.L116
 516              	.L112:
 517 06b8 C0035FD6 		ret
 518              		.size	hal_video_put_pixel_area, .-hal_video_put_pixel_area
 519              		.align	2
 520 06bc 1F2003D5 		.p2align 4,,15
 521              		.global	hal_video_put_pixel
 522              		.type	hal_video_put_pixel, %function
 523              	hal_video_put_pixel:
 524 06c0 03004029 		ldp	w3, w0, [x0]
 525 06c4 04A08052 		mov	w4, 1280
 526 06c8 02000090 		adrp	x2, fb
 527 06cc 420040F9 		ldr	x2, [x2, #:lo12:fb]
 528 06d0 000C041B 		madd	w0, w0, w4, w3
 529 06d4 417820B8 		str	w1, [x2, x0, lsl 2]
 530 06d8 C0035FD6 		ret
 531              		.size	hal_video_put_pixel, .-hal_video_put_pixel
 532              		.align	2
 533 06dc 1F2003D5 		.p2align 4,,15
 534              		.global	hal_video_put_double_pixel
 535              		.type	hal_video_put_double_pixel, %function
 536              	hal_video_put_double_pixel:
 537 06e0 02000090 		adrp	x2, fb
 538 06e4 430040F9 		ldr	x3, [x2, #:lo12:fb]
 539 06e8 04A08052 		mov	w4, 1280
 540 06ec 05084029 		ldp	w5, w2, [x0]
 541 06f0 4214041B 		madd	w2, w2, w4, w5
 542 06f4 617822B8 		str	w1, [x3, x2, lsl 2]
 543 06f8 02004029 		ldp	w2, w0, [x0]
 544 06fc 42040011 		add	w2, w2, 1
 545 0700 0008041B 		madd	w0, w0, w4, w2
 546 0704 617820B8 		str	w1, [x3, x0, lsl 2]
 547 0708 C0035FD6 		ret
 548              		.size	hal_video_put_double_pixel, .-hal_video_put_double_pixel
 549              		.align	2
 550 070c 1F2003D5 		.p2align 4,,15
 551              		.global	hal_video_clear
 552              		.type	hal_video_clear, %function
 553              	hal_video_clear:
 554 0710 01000090 		adrp	x1, fb
 555 0714 210040F9 		ldr	x1, [x1, #:lo12:fb]
 556 0718 038082D2 		mov	x3, 5120
 557 071c E203002A 		mov	w2, w0
 558 0720 E47F8292 		mov	x4, -5120
 559 0724 25044F91 		add	x5, x1, 3936256
 560 0728 2100038B 		add	x1, x1, x3
 561 072c A5001091 		add	x5, x5, 1024
 562              	.L123:
 563 0730 2000048B 		add	x0, x1, x4
 564 0734 1F2003D5 		.p2align 3,,7
AARCH64 GAS  C:\Users\RAFAEL~1.ROM\AppData\Local\Temp\ccH9DRWF.s 			page 11


 565              	.L124:
 566 0738 024400B8 		str	w2, [x0], 4
 567 073c 1F0001EB 		cmp	x0, x1
 568 0740 C1FFFF54 		bne	.L124
 569 0744 0100038B 		add	x1, x0, x3
 570 0748 3F0005EB 		cmp	x1, x5
 571 074c 21FFFF54 		bne	.L123
 572 0750 00000090 		adrp	x0, .LANCHOR0
 573 0754 01000091 		add	x1, x0, :lo12:.LANCHOR0
 574 0758 83008052 		mov	w3, 4
 575 075c 42028052 		mov	w2, 18
 576 0760 030000B9 		str	w3, [x0, #:lo12:.LANCHOR0]
 577 0764 220400B9 		str	w2, [x1, 4]
 578 0768 C0035FD6 		ret
 579              		.size	hal_video_clear, .-hal_video_clear
 580              		.global	continue_msg
 581              		.section	.rodata.str1.8,"aMS",@progbits,1
 582              		.align	3
 583              	.LC0:
 584 0000 28205072 		.string	"( Press any key to continue )"
 584      65737320 
 584      616E7920 
 584      6B657920 
 584      746F2063 
 585              		.comm	fb,8,8
 586              		.global	curr_y
 587              		.global	curr_x
 588              		.data
 589              		.align	3
 590              		.set	.LANCHOR0,. + 0
 591              		.type	curr_x, %object
 592              		.size	curr_x, 4
 593              	curr_x:
 594 0000 04000000 		.word	4
 595              		.type	curr_y, %object
 596              		.size	curr_y, 4
 597              	curr_y:
 598 0004 12000000 		.word	18
 599              		.type	continue_msg, %object
 600              		.size	continue_msg, 8
 601              	continue_msg:
 602 0008 00000000 		.xword	.LC0
 602      00000000 
 603              		.ident	"GCC: (GNU Toolchain for the A-profile Architecture 9.2-2020.02 (arm-9.10)) 9.2.1 20191025"
AARCH64 GAS  C:\Users\RAFAEL~1.ROM\AppData\Local\Temp\ccH9DRWF.s 			page 12


DEFINED SYMBOLS
                            *ABS*:0000000000000000 hal_video.c
C:\Users\RAFAEL~1.ROM\AppData\Local\Temp\ccH9DRWF.s:4      .text:0000000000000000 $x
C:\Users\RAFAEL~1.ROM\AppData\Local\Temp\ccH9DRWF.s:7      .text:0000000000000000 draw_character_raw
                            *COM*:0000000000000008 fb
C:\Users\RAFAEL~1.ROM\AppData\Local\Temp\ccH9DRWF.s:96     .text:0000000000000130 hal_video_init
C:\Users\RAFAEL~1.ROM\AppData\Local\Temp\ccH9DRWF.s:114    .text:0000000000000160 hal_io_video_draw_image
C:\Users\RAFAEL~1.ROM\AppData\Local\Temp\ccH9DRWF.s:176    .text:0000000000000230 hal_video_putc
C:\Users\RAFAEL~1.ROM\AppData\Local\Temp\ccH9DRWF.s:303    .text:00000000000003f0 hal_video_puts
C:\Users\RAFAEL~1.ROM\AppData\Local\Temp\ccH9DRWF.s:329    .text:0000000000000440 hal_video_putc_x_y
C:\Users\RAFAEL~1.ROM\AppData\Local\Temp\ccH9DRWF.s:426    .text:0000000000000590 hal_video_line
C:\Users\RAFAEL~1.ROM\AppData\Local\Temp\ccH9DRWF.s:488    .text:0000000000000660 hal_video_put_pixel_area
C:\Users\RAFAEL~1.ROM\AppData\Local\Temp\ccH9DRWF.s:523    .text:00000000000006c0 hal_video_put_pixel
C:\Users\RAFAEL~1.ROM\AppData\Local\Temp\ccH9DRWF.s:536    .text:00000000000006e0 hal_video_put_double_pixel
C:\Users\RAFAEL~1.ROM\AppData\Local\Temp\ccH9DRWF.s:553    .text:0000000000000710 hal_video_clear
C:\Users\RAFAEL~1.ROM\AppData\Local\Temp\ccH9DRWF.s:601    .data:0000000000000008 continue_msg
C:\Users\RAFAEL~1.ROM\AppData\Local\Temp\ccH9DRWF.s:582    .rodata.str1.8:0000000000000000 $d
C:\Users\RAFAEL~1.ROM\AppData\Local\Temp\ccH9DRWF.s:597    .data:0000000000000004 curr_y
C:\Users\RAFAEL~1.ROM\AppData\Local\Temp\ccH9DRWF.s:593    .data:0000000000000000 curr_x
C:\Users\RAFAEL~1.ROM\AppData\Local\Temp\ccH9DRWF.s:589    .data:0000000000000000 $d

UNDEFINED SYMBOLS
fb_init
fonts_init
fonts_char_to_font
hal_io_serial_getc
AARCH64 GAS  C:\Users\RAFAEL~1.ROM\AppData\Local\Temp\ccH9DRWF.s 			page 1


   1              		.arch armv8-a
   2              		.file	"hal_timer.c"
   3              		.text
   4              		.align	2
   5              		.p2align 4,,15
   6              		.global	hal_timer_init
   7              		.type	hal_timer_init, %function
   8              	hal_timer_init:
   9 0000 00000014 		b	hal_cpu_ints_enable
  10              		.size	hal_timer_init, .-hal_timer_init
  11              		.align	2
  12 0004 1F2003D5 		.p2align 4,,15
  12      1F2003D5 
  12      1F2003D5 
  13              		.global	hal_timer_delay_microsecs
  14              		.type	hal_timer_delay_microsecs, %function
  15              	hal_timer_delay_microsecs:
  16 0010 F37BBEA9 		stp	x19, x30, [sp, -32]!
  17 0014 F30300AA 		mov	x19, x0
  18 0018 00000094 		bl	timer_getTickCount
  19 001c E01B00B9 		str	w0, [sp, 24]
  20              		.p2align 3,,7
  21              	.L4:
  22 0020 00000094 		bl	timer_getTickCount
  23 0024 E01F00B9 		str	w0, [sp, 28]
  24 0028 E11F40B9 		ldr	w1, [sp, 28]
  25 002c E21B40B9 		ldr	w2, [sp, 24]
  26 0030 2100024B 		sub	w1, w1, w2
  27 0034 3F0013EB 		cmp	x1, x19
  28 0038 43FFFF54 		bcc	.L4
  29 003c F37BC2A8 		ldp	x19, x30, [sp], 32
  30 0040 C0035FD6 		ret
  31              		.size	hal_timer_delay_microsecs, .-hal_timer_delay_microsecs
  32              		.align	2
  33 0044 1F2003D5 		.p2align 4,,15
  33      1F2003D5 
  33      1F2003D5 
  34              		.global	hal_timer_start_int
  35              		.type	hal_timer_start_int, %function
  36              	hal_timer_start_int:
  37 0050 1F040071 		cmp	w0, 1
  38 0054 40000054 		beq	.L13
  39 0058 00000014 		b	hal_cpu_ints_enable
  40              		.p2align 2,,3
  41              	.L13:
  42 005c FE0F1FF8 		str	x30, [sp, -16]!
  43 0060 E003012A 		mov	w0, w1
  44 0064 E10302AA 		mov	x1, x2
  45 0068 00000094 		bl	TimerIrqSetup
  46 006c FE0741F8 		ldr	x30, [sp], 16
  47 0070 00000014 		b	hal_cpu_ints_enable
  48              		.size	hal_timer_start_int, .-hal_timer_start_int
  49              		.align	2
  50 0074 1F2003D5 		.p2align 4,,15
  50      1F2003D5 
  50      1F2003D5 
  51              		.global	hal_timer_start_poll
AARCH64 GAS  C:\Users\RAFAEL~1.ROM\AppData\Local\Temp\ccH9DRWF.s 			page 2


  52              		.type	hal_timer_start_poll, %function
  53              	hal_timer_start_poll:
  54 0080 C0035FD6 		ret
  55              		.size	hal_timer_start_poll, .-hal_timer_start_poll
  56              		.align	2
  57 0084 1F2003D5 		.p2align 4,,15
  57      1F2003D5 
  57      1F2003D5 
  58              		.global	hal_timer_read_count
  59              		.type	hal_timer_read_count, %function
  60              	hal_timer_read_count:
  61 0090 60000034 		cbz	w0, .L16
  62 0094 000080D2 		mov	x0, 0
  63 0098 C0035FD6 		ret
  64              		.p2align 2,,3
  65              	.L16:
  66 009c 00000014 		b	timer_getTickCount
  67              		.size	hal_timer_read_count, .-hal_timer_read_count
  68              		.ident	"GCC: (GNU Toolchain for the A-profile Architecture 9.2-2020.02 (arm-9.10)) 9.2.1 20191025"
AARCH64 GAS  C:\Users\RAFAEL~1.ROM\AppData\Local\Temp\ccH9DRWF.s 			page 3


DEFINED SYMBOLS
                            *ABS*:0000000000000000 hal_timer.c
C:\Users\RAFAEL~1.ROM\AppData\Local\Temp\ccH9DRWF.s:4      .text:0000000000000000 $x
C:\Users\RAFAEL~1.ROM\AppData\Local\Temp\ccH9DRWF.s:8      .text:0000000000000000 hal_timer_init
C:\Users\RAFAEL~1.ROM\AppData\Local\Temp\ccH9DRWF.s:15     .text:0000000000000010 hal_timer_delay_microsecs
C:\Users\RAFAEL~1.ROM\AppData\Local\Temp\ccH9DRWF.s:36     .text:0000000000000050 hal_timer_start_int
C:\Users\RAFAEL~1.ROM\AppData\Local\Temp\ccH9DRWF.s:53     .text:0000000000000080 hal_timer_start_poll
C:\Users\RAFAEL~1.ROM\AppData\Local\Temp\ccH9DRWF.s:60     .text:0000000000000090 hal_timer_read_count

UNDEFINED SYMBOLS
hal_cpu_ints_enable
timer_getTickCount
TimerIrqSetup
AARCH64 GAS  C:\Users\RAFAEL~1.ROM\AppData\Local\Temp\ccH9DRWF.s 			page 1


   1              		.arch armv8-a
   2              		.file	"kprintf.c"
   3              		.text
   4              		.align	2
   5              		.p2align 4,,15
   6              		.type	buffer_add, %function
   7              	buffer_add:
   8 0000 220C40A9 		ldp	x2, x3, [x1]
   9 0004 001C0012 		and	w0, w0, 255
  10 0008 A30000B4 		cbz	x3, .L2
  11 000c 40000039 		strb	w0, [x2]
  12 0010 220040A9 		ldp	x2, x0, [x1]
  13 0014 000400D1 		sub	x0, x0, #1
  14 0018 200400F9 		str	x0, [x1, 8]
  15              	.L2:
  16 001c 42040091 		add	x2, x2, 1
  17 0020 220000F9 		str	x2, [x1]
  18 0024 C0035FD6 		ret
  19              		.size	buffer_add, .-buffer_add
  20              		.align	2
  21 0028 1F2003D5 		.p2align 4,,15
  21      1F2003D5 
  22              		.global	local_putc
  23              		.type	local_putc, %function
  24              	local_putc:
  25 0030 02008012 		mov	w2, -1
  26 0034 21008052 		mov	w1, 1
  27 0038 00000014 		b	hal_video_putc
  28              		.size	local_putc, .-local_putc
  29              		.align	2
  30 003c 1F2003D5 		.p2align 4,,15
  31              		.global	debug_putc
  32              		.type	debug_putc, %function
  33              	debug_putc:
  34 0040 E103002A 		mov	w1, w0
  35 0044 00008052 		mov	w0, 0
  36 0048 00000014 		b	hal_io_serial_putc
  37              		.size	debug_putc, .-debug_putc
  38              		.align	2
  39 004c 1F2003D5 		.p2align 4,,15
  40              		.type	cprint_int.constprop.1, %function
  41              	cprint_int.constprop.1:
  42 0050 F353B6A9 		stp	x19, x20, [sp, -160]!
  43 0054 931C0012 		and	w19, w4, 255
  44 0058 05000090 		adrp	x5, .LC0
  45 005c A5000091 		add	x5, x5, :lo12:.LC0
  46 0060 F76302A9 		stp	x23, x24, [sp, 32]
  47 0064 F703132A 		mov	w23, w19
  48 0068 E4630191 		add	x4, sp, 88
  49 006c E8C30191 		add	x8, sp, 112
  50 0070 FF027AF2 		tst	x23, 64
  51 0074 27781E12 		and	w7, w1, -3
  52 0078 0811849A 		csel	x8, x8, x4, ne
  53 007c 092686D2 		mov	x9, 12592
  54 0080 4966A6F2 		movk	x9, 0x3332, lsl 16
  55 0084 FF200071 		cmp	w7, 8
  56 0088 A61040A9 		ldp	x6, x4, [x5]
AARCH64 GAS  C:\Users\RAFAEL~1.ROM\AppData\Local\Temp\ccH9DRWF.s 			page 2


  57 008c 072787D2 		mov	x7, 14648
  58 0090 274CACF2 		movk	x7, 0x6261, lsl 16
  59 0094 A5404039 		ldrb	w5, [x5, 16]
  60 0098 89A6C6F2 		movk	x9, 0x3534, lsl 32
  61 009c C9E6E6F2 		movk	x9, 0x3736, lsl 48
  62 00a0 678CCCF2 		movk	x7, 0x6463, lsl 32
  63 00a4 A7CCECF2 		movk	x7, 0x6665, lsl 48
  64 00a8 FE2700F9 		str	x30, [sp, 72]
  65 00ac E99F05A9 		stp	x9, x7, [sp, 88]
  66 00b0 FFA30139 		strb	wzr, [sp, 104]
  67 00b4 E61307A9 		stp	x6, x4, [sp, 112]
  68 00b8 E4079F1A 		cset	w4, ne
  69 00bc 3F400071 		cmp	w1, 16
  70 00c0 E5030239 		strb	w5, [sp, 128]
  71 00c4 84109F1A 		csel	w4, w4, wzr, ne
  72 00c8 C4090035 		cbnz	w4, .L9
  73 00cc F55B01A9 		stp	x21, x22, [sp, 16]
  74 00d0 F403022A 		mov	w20, w2
  75 00d4 F96B03A9 		stp	x25, x26, [sp, 48]
  76 00d8 53002836 		tbz	x19, 5, .L12
  77 00dc 6010F8B7 		tbnz	x0, #63, .L64
  78              	.L12:
  79 00e0 800900B5 		cbnz	x0, .L34
  80 00e4 7F000071 		cmp	w3, 0
  81 00e8 36008052 		mov	w22, 1
  82 00ec 79C0961A 		csel	w25, w3, w22, gt
  83 00f0 00068052 		mov	w0, 48
  84 00f4 15068052 		mov	w21, 48
  85 00f8 E0230239 		strb	w0, [sp, 136]
  86              	.L14:
  87 00fc 60020012 		and	w0, w19, 1
  88 0100 130F0037 		tbnz	x19, 0, .L65
  89 0104 78021E12 		and	w24, w19, 4
  90 0108 D30D1036 		tbz	x19, 2, .L19
  91 010c 940A0051 		sub	w20, w20, #2
  92 0110 04008052 		mov	w4, 0
  93 0114 1F2003D5 		.p2align 3,,7
  94              	.L18:
  95 0118 60020012 		and	w0, w19, 1
  96 011c 240D0034 		cbz	w4, .L19
  97 0120 A1058052 		mov	w1, 45
  98 0124 00008052 		mov	w0, 0
  99 0128 00000094 		bl	hal_io_serial_putc
 100              	.L20:
 101 012c F8000034 		cbz	w24, .L22
 102 0130 01068052 		mov	w1, 48
 103 0134 00008052 		mov	w0, 0
 104 0138 00000094 		bl	hal_io_serial_putc
 105 013c 010F8052 		mov	w1, 120
 106 0140 00008052 		mov	w0, 0
 107 0144 00000094 		bl	hal_io_serial_putc
 108              	.L22:
 109 0148 37090836 		tbz	x23, 1, .L60
 110 014c 37070051 		sub	w23, w25, #1
 111              	.L23:
 112 0150 3F03166B 		cmp	w25, w22
 113 0154 0D0D0054 		ble	.L66
AARCH64 GAS  C:\Users\RAFAEL~1.ROM\AppData\Local\Temp\ccH9DRWF.s 			page 3


 114 0158 7F027CF2 		tst	x19, 16
 115 015c 18068052 		mov	w24, 48
 116 0160 00048052 		mov	w0, 32
 117 0164 D3060051 		sub	w19, w22, #1
 118 0168 1813801A 		csel	w24, w24, w0, ne
 119 016c 1F2003D5 		.p2align 3,,7
 120              	.L26:
 121 0170 F7060051 		sub	w23, w23, #1
 122 0174 E103182A 		mov	w1, w24
 123 0178 00008052 		mov	w0, 0
 124 017c 00000094 		bl	hal_io_serial_putc
 125 0180 FF02136B 		cmp	w23, w19
 126 0184 61FFFF54 		bne	.L26
 127 0188 D902194B 		sub	w25, w22, w25
 128 018c 3403140B 		add	w20, w25, w20
 129              	.L25:
 130 0190 737E4093 		sxtw	x19, w19
 131 0194 03000014 		b	.L28
 132              		.p2align 2,,3
 133              	.L67:
 134 0198 15F05F38 		ldrb	w21, [x0, -1]
 135 019c 730600D1 		sub	x19, x19, #1
 136              	.L28:
 137 01a0 00008052 		mov	w0, 0
 138 01a4 E103152A 		mov	w1, w21
 139 01a8 00000094 		bl	hal_io_serial_putc
 140 01ac E0230291 		add	x0, sp, 136
 141 01b0 7F020071 		cmp	w19, 0
 142 01b4 6002008B 		add	x0, x19, x0
 143 01b8 0CFFFF54 		bgt	.L67
 144 01bc 81060051 		sub	w1, w20, #1
 145 01c0 20008052 		mov	w0, 1
 146 01c4 1600164B 		sub	w22, w0, w22
 147 01c8 9402160B 		add	w20, w20, w22
 148 01cc D602010B 		add	w22, w22, w1
 149 01d0 940A0051 		sub	w20, w20, #2
 150 01d4 DF020071 		cmp	w22, 0
 151 01d8 0D010054 		ble	.L63
 152 01dc 1F2003D5 		.p2align 3,,7
 153              	.L29:
 154 01e0 01048052 		mov	w1, 32
 155 01e4 00008052 		mov	w0, 0
 156 01e8 00000094 		bl	hal_io_serial_putc
 157 01ec 9F020071 		cmp	w20, 0
 158 01f0 94060051 		sub	w20, w20, #1
 159 01f4 6CFFFF54 		bgt	.L29
 160              	.L63:
 161 01f8 F55B41A9 		ldp	x21, x22, [sp, 16]
 162 01fc F96B43A9 		ldp	x25, x26, [sp, 48]
 163              	.L9:
 164 0200 F76342A9 		ldp	x23, x24, [sp, 32]
 165 0204 FE2740F9 		ldr	x30, [sp, 72]
 166 0208 F353CAA8 		ldp	x19, x20, [sp], 160
 167 020c C0035FD6 		ret
 168              		.p2align 2,,3
 169              	.L34:
 170 0210 04008052 		mov	w4, 0
AARCH64 GAS  C:\Users\RAFAEL~1.ROM\AppData\Local\Temp\ccH9DRWF.s 			page 4


 171              	.L13:
 172 0214 257C4093 		sxtw	x5, w1
 173 0218 210080D2 		mov	x1, 1
 174 021c 1F2003D5 		.p2align 3,,7
 175              	.L15:
 176 0220 0608C59A 		udiv	x6, x0, x5
 177 0224 E2230291 		add	x2, sp, 136
 178 0228 4200018B 		add	x2, x2, x1
 179 022c F603012A 		mov	w22, w1
 180 0230 1F0005EB 		cmp	x0, x5
 181 0234 21040091 		add	x1, x1, 1
 182 0238 C780059B 		msub	x7, x6, x5, x0
 183 023c E00306AA 		mov	x0, x6
 184 0240 15696738 		ldrb	w21, [x8, x7]
 185 0244 55F01F38 		strb	w21, [x2, -1]
 186 0248 C2FEFF54 		bcs	.L15
 187 024c DF02036B 		cmp	w22, w3
 188 0250 D9A2831A 		csel	w25, w22, w3, ge
 189 0254 44F5FF34 		cbz	w4, .L14
 190              	.L16:
 191 0258 94060051 		sub	w20, w20, #1
 192 025c 78021E12 		and	w24, w19, 4
 193 0260 D3F51736 		tbz	x19, 2, .L18
 194 0264 940A0051 		sub	w20, w20, #2
 195 0268 ACFFFF17 		b	.L18
 196              		.p2align 2,,3
 197              	.L60:
 198 026c FB2300F9 		str	x27, [sp, 64]
 199 0270 3F03146B 		cmp	w25, w20
 200 0274 9B060051 		sub	w27, w20, #1
 201 0278 2A040054 		bge	.L36
 202 027c 7F027CF2 		tst	x19, 16
 203 0280 1A068052 		mov	w26, 48
 204 0284 00048052 		mov	w0, 32
 205 0288 37070051 		sub	w23, w25, #1
 206 028c 5A13801A 		csel	w26, w26, w0, ne
 207 0290 F8031B2A 		mov	w24, w27
 208 0294 1F2003D5 		.p2align 3,,7
 209              	.L24:
 210 0298 18070051 		sub	w24, w24, #1
 211 029c E1031A2A 		mov	w1, w26
 212 02a0 00008052 		mov	w0, 0
 213 02a4 00000094 		bl	hal_io_serial_putc
 214 02a8 1F03176B 		cmp	w24, w23
 215 02ac 61FFFF54 		bne	.L24
 216 02b0 3403144B 		sub	w20, w25, w20
 217 02b4 94021B0B 		add	w20, w20, w27
 218 02b8 FB2340F9 		ldr	x27, [sp, 64]
 219 02bc A5FFFF17 		b	.L23
 220              		.p2align 2,,3
 221              	.L19:
 222 02c0 60F3FF34 		cbz	w0, .L20
 223 02c4 7F027DF2 		tst	x19, 8
 224 02c8 02048052 		mov	w2, 32
 225 02cc 61058052 		mov	w1, 43
 226 02d0 00008052 		mov	w0, 0
 227 02d4 4110811A 		csel	w1, w2, w1, ne
AARCH64 GAS  C:\Users\RAFAEL~1.ROM\AppData\Local\Temp\ccH9DRWF.s 			page 5


 228 02d8 00000094 		bl	hal_io_serial_putc
 229 02dc 94FFFF17 		b	.L20
 230              		.p2align 2,,3
 231              	.L65:
 232 02e0 04008052 		mov	w4, 0
 233 02e4 DDFFFF17 		b	.L16
 234              		.p2align 2,,3
 235              	.L64:
 236 02e8 E00300CB 		neg	x0, x0
 237 02ec 24008052 		mov	w4, 1
 238 02f0 C9FFFF17 		b	.L13
 239              		.p2align 2,,3
 240              	.L66:
 241 02f4 D3060051 		sub	w19, w22, #1
 242 02f8 A6FFFF17 		b	.L25
 243              	.L36:
 244 02fc F4031B2A 		mov	w20, w27
 245 0300 37070051 		sub	w23, w25, #1
 246 0304 FB2340F9 		ldr	x27, [sp, 64]
 247 0308 92FFFF17 		b	.L23
 248              		.size	cprint_int.constprop.1, .-cprint_int.constprop.1
 249              		.section	.rodata.str1.8,"aMS",@progbits,1
 250              		.align	3
 251              	.LC0:
 252 0000 30313233 		.string	"0123456789ABCDEF"
 252      34353637 
 252      38394142 
 252      43444546 
 252      00
 253              		.text
 254              		.align	2
 255 030c 1F2003D5 		.p2align 4,,15
 256              		.type	cprint_int.constprop.2, %function
 257              	cprint_int.constprop.2:
 258 0310 F353B6A9 		stp	x19, x20, [sp, -160]!
 259 0314 931C0012 		and	w19, w4, 255
 260 0318 05000090 		adrp	x5, .LC0
 261 031c A5000091 		add	x5, x5, :lo12:.LC0
 262 0320 F76302A9 		stp	x23, x24, [sp, 32]
 263 0324 F703132A 		mov	w23, w19
 264 0328 E4630191 		add	x4, sp, 88
 265 032c E8C30191 		add	x8, sp, 112
 266 0330 FF027AF2 		tst	x23, 64
 267 0334 27781E12 		and	w7, w1, -3
 268 0338 0811849A 		csel	x8, x8, x4, ne
 269 033c 092686D2 		mov	x9, 12592
 270 0340 4966A6F2 		movk	x9, 0x3332, lsl 16
 271 0344 FF200071 		cmp	w7, 8
 272 0348 A61040A9 		ldp	x6, x4, [x5]
 273 034c 072787D2 		mov	x7, 14648
 274 0350 274CACF2 		movk	x7, 0x6261, lsl 16
 275 0354 A5404039 		ldrb	w5, [x5, 16]
 276 0358 89A6C6F2 		movk	x9, 0x3534, lsl 32
 277 035c C9E6E6F2 		movk	x9, 0x3736, lsl 48
 278 0360 678CCCF2 		movk	x7, 0x6463, lsl 32
 279 0364 A7CCECF2 		movk	x7, 0x6665, lsl 48
 280 0368 FE2700F9 		str	x30, [sp, 72]
AARCH64 GAS  C:\Users\RAFAEL~1.ROM\AppData\Local\Temp\ccH9DRWF.s 			page 6


 281 036c E99F05A9 		stp	x9, x7, [sp, 88]
 282 0370 FFA30139 		strb	wzr, [sp, 104]
 283 0374 E61307A9 		stp	x6, x4, [sp, 112]
 284 0378 E4079F1A 		cset	w4, ne
 285 037c 3F400071 		cmp	w1, 16
 286 0380 E5030239 		strb	w5, [sp, 128]
 287 0384 84109F1A 		csel	w4, w4, wzr, ne
 288 0388 640A0035 		cbnz	w4, .L68
 289 038c F55B01A9 		stp	x21, x22, [sp, 16]
 290 0390 F403022A 		mov	w20, w2
 291 0394 F96B03A9 		stp	x25, x26, [sp, 48]
 292 0398 53002836 		tbz	x19, 5, .L71
 293 039c 2011F8B7 		tbnz	x0, #63, .L123
 294              	.L71:
 295 03a0 200A00B5 		cbnz	x0, .L93
 296 03a4 7F000071 		cmp	w3, 0
 297 03a8 36008052 		mov	w22, 1
 298 03ac 79C0961A 		csel	w25, w3, w22, gt
 299 03b0 00068052 		mov	w0, 48
 300 03b4 15068052 		mov	w21, 48
 301 03b8 E0230239 		strb	w0, [sp, 136]
 302              	.L73:
 303 03bc 60020012 		and	w0, w19, 1
 304 03c0 D30F0037 		tbnz	x19, 0, .L124
 305 03c4 78021E12 		and	w24, w19, 4
 306 03c8 730E1036 		tbz	x19, 2, .L78
 307 03cc 940A0051 		sub	w20, w20, #2
 308 03d0 04008052 		mov	w4, 0
 309 03d4 1F2003D5 		.p2align 3,,7
 310              	.L77:
 311 03d8 60020012 		and	w0, w19, 1
 312 03dc C40D0034 		cbz	w4, .L78
 313 03e0 02008012 		mov	w2, -1
 314 03e4 21008052 		mov	w1, 1
 315 03e8 A0058052 		mov	w0, 45
 316 03ec 00000094 		bl	hal_video_putc
 317              	.L79:
 318 03f0 38010034 		cbz	w24, .L81
 319 03f4 02008012 		mov	w2, -1
 320 03f8 21008052 		mov	w1, 1
 321 03fc 00068052 		mov	w0, 48
 322 0400 00000094 		bl	hal_video_putc
 323 0404 02008012 		mov	w2, -1
 324 0408 21008052 		mov	w1, 1
 325 040c 000F8052 		mov	w0, 120
 326 0410 00000094 		bl	hal_video_putc
 327              	.L81:
 328 0414 57090836 		tbz	x23, 1, .L119
 329 0418 37070051 		sub	w23, w25, #1
 330              	.L82:
 331 041c 3F03166B 		cmp	w25, w22
 332 0420 6D0D0054 		ble	.L125
 333 0424 7F027CF2 		tst	x19, 16
 334 0428 18068052 		mov	w24, 48
 335 042c 00048052 		mov	w0, 32
 336 0430 D3060051 		sub	w19, w22, #1
 337 0434 1813801A 		csel	w24, w24, w0, ne
AARCH64 GAS  C:\Users\RAFAEL~1.ROM\AppData\Local\Temp\ccH9DRWF.s 			page 7


 338              		.p2align 3,,7
 339              	.L85:
 340 0438 F7060051 		sub	w23, w23, #1
 341 043c E003182A 		mov	w0, w24
 342 0440 02008012 		mov	w2, -1
 343 0444 21008052 		mov	w1, 1
 344 0448 00000094 		bl	hal_video_putc
 345 044c FF02136B 		cmp	w23, w19
 346 0450 41FFFF54 		bne	.L85
 347 0454 D902194B 		sub	w25, w22, w25
 348 0458 3403140B 		add	w20, w25, w20
 349              	.L84:
 350 045c 737E4093 		sxtw	x19, w19
 351 0460 03000014 		b	.L87
 352              		.p2align 2,,3
 353              	.L126:
 354 0464 15F05F38 		ldrb	w21, [x0, -1]
 355 0468 730600D1 		sub	x19, x19, #1
 356              	.L87:
 357 046c E003152A 		mov	w0, w21
 358 0470 02008012 		mov	w2, -1
 359 0474 21008052 		mov	w1, 1
 360 0478 00000094 		bl	hal_video_putc
 361 047c E0230291 		add	x0, sp, 136
 362 0480 7F020071 		cmp	w19, 0
 363 0484 6002008B 		add	x0, x19, x0
 364 0488 ECFEFF54 		bgt	.L126
 365 048c 81060051 		sub	w1, w20, #1
 366 0490 20008052 		mov	w0, 1
 367 0494 1600164B 		sub	w22, w0, w22
 368 0498 9402160B 		add	w20, w20, w22
 369 049c D602010B 		add	w22, w22, w1
 370 04a0 940A0051 		sub	w20, w20, #2
 371 04a4 DF020071 		cmp	w22, 0
 372 04a8 2D010054 		ble	.L122
 373 04ac 1F2003D5 		.p2align 3,,7
 374              	.L88:
 375 04b0 02008012 		mov	w2, -1
 376 04b4 21008052 		mov	w1, 1
 377 04b8 00048052 		mov	w0, 32
 378 04bc 00000094 		bl	hal_video_putc
 379 04c0 9F020071 		cmp	w20, 0
 380 04c4 94060051 		sub	w20, w20, #1
 381 04c8 4CFFFF54 		bgt	.L88
 382              	.L122:
 383 04cc F55B41A9 		ldp	x21, x22, [sp, 16]
 384 04d0 F96B43A9 		ldp	x25, x26, [sp, 48]
 385              	.L68:
 386 04d4 F76342A9 		ldp	x23, x24, [sp, 32]
 387 04d8 FE2740F9 		ldr	x30, [sp, 72]
 388 04dc F353CAA8 		ldp	x19, x20, [sp], 160
 389 04e0 C0035FD6 		ret
 390              		.p2align 2,,3
 391              	.L93:
 392 04e4 04008052 		mov	w4, 0
 393              	.L72:
 394 04e8 257C4093 		sxtw	x5, w1
AARCH64 GAS  C:\Users\RAFAEL~1.ROM\AppData\Local\Temp\ccH9DRWF.s 			page 8


 395 04ec 210080D2 		mov	x1, 1
 396              		.p2align 3,,7
 397              	.L74:
 398 04f0 0608C59A 		udiv	x6, x0, x5
 399 04f4 E2230291 		add	x2, sp, 136
 400 04f8 4200018B 		add	x2, x2, x1
 401 04fc F603012A 		mov	w22, w1
 402 0500 1F0005EB 		cmp	x0, x5
 403 0504 21040091 		add	x1, x1, 1
 404 0508 C780059B 		msub	x7, x6, x5, x0
 405 050c E00306AA 		mov	x0, x6
 406 0510 15696738 		ldrb	w21, [x8, x7]
 407 0514 55F01F38 		strb	w21, [x2, -1]
 408 0518 C2FEFF54 		bcs	.L74
 409 051c DF02036B 		cmp	w22, w3
 410 0520 D9A2831A 		csel	w25, w22, w3, ge
 411 0524 C4F4FF34 		cbz	w4, .L73
 412              	.L75:
 413 0528 94060051 		sub	w20, w20, #1
 414 052c 78021E12 		and	w24, w19, 4
 415 0530 53F51736 		tbz	x19, 2, .L77
 416 0534 940A0051 		sub	w20, w20, #2
 417 0538 A8FFFF17 		b	.L77
 418              		.p2align 2,,3
 419              	.L119:
 420 053c FB2300F9 		str	x27, [sp, 64]
 421 0540 3F03146B 		cmp	w25, w20
 422 0544 9B060051 		sub	w27, w20, #1
 423 0548 6A040054 		bge	.L95
 424 054c 7F027CF2 		tst	x19, 16
 425 0550 1A068052 		mov	w26, 48
 426 0554 00048052 		mov	w0, 32
 427 0558 37070051 		sub	w23, w25, #1
 428 055c 5A13801A 		csel	w26, w26, w0, ne
 429 0560 F8031B2A 		mov	w24, w27
 430 0564 1F2003D5 		.p2align 3,,7
 431              	.L83:
 432 0568 18070051 		sub	w24, w24, #1
 433 056c E0031A2A 		mov	w0, w26
 434 0570 02008012 		mov	w2, -1
 435 0574 21008052 		mov	w1, 1
 436 0578 00000094 		bl	hal_video_putc
 437 057c 1F03176B 		cmp	w24, w23
 438 0580 41FFFF54 		bne	.L83
 439 0584 3403144B 		sub	w20, w25, w20
 440 0588 94021B0B 		add	w20, w20, w27
 441 058c FB2340F9 		ldr	x27, [sp, 64]
 442 0590 A3FFFF17 		b	.L82
 443              		.p2align 2,,3
 444              	.L78:
 445 0594 E0F2FF34 		cbz	w0, .L79
 446 0598 7F027DF2 		tst	x19, 8
 447 059c 01048052 		mov	w1, 32
 448 05a0 60058052 		mov	w0, 43
 449 05a4 02008012 		mov	w2, -1
 450 05a8 2010801A 		csel	w0, w1, w0, ne
 451 05ac 21008052 		mov	w1, 1
AARCH64 GAS  C:\Users\RAFAEL~1.ROM\AppData\Local\Temp\ccH9DRWF.s 			page 9


 452 05b0 00000094 		bl	hal_video_putc
 453 05b4 8FFFFF17 		b	.L79
 454              		.p2align 2,,3
 455              	.L124:
 456 05b8 04008052 		mov	w4, 0
 457 05bc DBFFFF17 		b	.L75
 458              		.p2align 2,,3
 459              	.L123:
 460 05c0 E00300CB 		neg	x0, x0
 461 05c4 24008052 		mov	w4, 1
 462 05c8 C8FFFF17 		b	.L72
 463              		.p2align 2,,3
 464              	.L125:
 465 05cc D3060051 		sub	w19, w22, #1
 466 05d0 A3FFFF17 		b	.L84
 467              	.L95:
 468 05d4 F4031B2A 		mov	w20, w27
 469 05d8 37070051 		sub	w23, w25, #1
 470 05dc FB2340F9 		ldr	x27, [sp, 64]
 471 05e0 8FFFFF17 		b	.L82
 472              		.size	cprint_int.constprop.2, .-cprint_int.constprop.2
 473              		.align	2
 474 05e4 1F2003D5 		.p2align 4,,15
 474      1F2003D5 
 474      1F2003D5 
 475              		.type	cprint_int.constprop.0, %function
 476              	cprint_int.constprop.0:
 477 05f0 06000090 		adrp	x6, .LC0
 478 05f4 C6000091 		add	x6, x6, :lo12:.LC0
 479 05f8 FF4301D1 		sub	sp, sp, #80
 480 05fc BF007AF2 		tst	x5, 64
 481 0600 E7230091 		add	x7, sp, 8
 482 0604 49781E12 		and	w9, w2, -3
 483 0608 EB830091 		add	x11, sp, 32
 484 060c 0A2686D2 		mov	x10, 12592
 485 0610 4A66A6F2 		movk	x10, 0x3332, lsl 16
 486 0614 6B11879A 		csel	x11, x11, x7, ne
 487 0618 3F210071 		cmp	w9, 8
 488 061c 092787D2 		mov	x9, 14648
 489 0620 294CACF2 		movk	x9, 0x6261, lsl 16
 490 0624 8AA6C6F2 		movk	x10, 0x3534, lsl 32
 491 0628 CAE6E6F2 		movk	x10, 0x3736, lsl 48
 492 062c 698CCCF2 		movk	x9, 0x6463, lsl 32
 493 0630 A9CCECF2 		movk	x9, 0x6665, lsl 48
 494 0634 EAA700A9 		stp	x10, x9, [sp, 8]
 495 0638 C81C40A9 		ldp	x8, x7, [x6]
 496 063c FF630039 		strb	wzr, [sp, 24]
 497 0640 C6404039 		ldrb	w6, [x6, 16]
 498 0644 E81F02A9 		stp	x8, x7, [sp, 32]
 499 0648 E6C30039 		strb	w6, [sp, 48]
 500 064c E6079F1A 		cset	w6, ne
 501 0650 5F400071 		cmp	w2, 16
 502 0654 C6109F1A 		csel	w6, w6, wzr, ne
 503 0658 E60E0035 		cbnz	w6, .L127
 504 065c AC1C0012 		and	w12, w5, 255
 505 0660 4C002836 		tbz	x12, 5, .L130
 506 0664 E118F8B7 		tbnz	x1, #63, .L218
AARCH64 GAS  C:\Users\RAFAEL~1.ROM\AppData\Local\Temp\ccH9DRWF.s 			page 10


 507              	.L130:
 508 0668 A10E00B5 		cbnz	x1, .L167
 509 066c 9F000071 		cmp	w4, 0
 510 0670 2A008052 		mov	w10, 1
 511 0674 86C08A1A 		csel	w6, w4, w10, gt
 512 0678 01068052 		mov	w1, 48
 513 067c 08068052 		mov	w8, 48
 514 0680 E1E30039 		strb	w1, [sp, 56]
 515              	.L132:
 516 0684 87010012 		and	w7, w12, 1
 517 0688 8C170037 		tbnz	x12, 0, .L219
 518 068c 84011E12 		and	w4, w12, 4
 519 0690 CC151036 		tbz	x12, 2, .L220
 520 0694 63080051 		sub	w3, w3, #2
 521 0698 0D008052 		mov	w13, 0
 522 069c 1F2003D5 		.p2align 3,,7
 523              	.L136:
 524 06a0 87010012 		and	w7, w12, 1
 525 06a4 010840A9 		ldp	x1, x2, [x0]
 526 06a8 2D150034 		cbz	w13, .L137
 527 06ac C20000B4 		cbz	x2, .L141
 528 06b0 A2058052 		mov	w2, 45
 529 06b4 22000039 		strb	w2, [x1]
 530 06b8 010840A9 		ldp	x1, x2, [x0]
 531 06bc 420400D1 		sub	x2, x2, #1
 532 06c0 020400F9 		str	x2, [x0, 8]
 533              	.L141:
 534 06c4 21040091 		add	x1, x1, 1
 535 06c8 010000F9 		str	x1, [x0]
 536              	.L139:
 537 06cc 24020034 		cbz	w4, .L142
 538 06d0 24040091 		add	x4, x1, 1
 539 06d4 A20100B4 		cbz	x2, .L144
 540 06d8 02068052 		mov	w2, 48
 541 06dc 22000039 		strb	w2, [x1]
 542 06e0 010840A9 		ldp	x1, x2, [x0]
 543 06e4 24040091 		add	x4, x1, 1
 544 06e8 420400D1 		sub	x2, x2, #1
 545 06ec 040800A9 		stp	x4, x2, [x0]
 546 06f0 C20000B4 		cbz	x2, .L144
 547 06f4 020F8052 		mov	w2, 120
 548 06f8 22040039 		strb	w2, [x1, 1]
 549 06fc 040840A9 		ldp	x4, x2, [x0]
 550 0700 420400D1 		sub	x2, x2, #1
 551 0704 020400F9 		str	x2, [x0, 8]
 552              	.L144:
 553 0708 81040091 		add	x1, x4, 1
 554 070c 010000F9 		str	x1, [x0]
 555              	.L142:
 556 0710 85110837 		tbnz	x5, 1, .L215
 557 0714 DF00036B 		cmp	w6, w3
 558 0718 69040051 		sub	w9, w3, #1
 559 071c 0A110054 		bge	.L169
 560 0720 04048052 		mov	w4, 32
 561 0724 9F017CF2 		tst	x12, 16
 562 0728 07068052 		mov	w7, 48
 563 072c C5040051 		sub	w5, w6, #1
AARCH64 GAS  C:\Users\RAFAEL~1.ROM\AppData\Local\Temp\ccH9DRWF.s 			page 11


 564 0730 E710841A 		csel	w7, w7, w4, ne
 565 0734 E403092A 		mov	w4, w9
 566              		.p2align 3,,7
 567              	.L147:
 568 0738 E20A00B4 		cbz	x2, .L146
 569 073c 27000039 		strb	w7, [x1]
 570 0740 84040051 		sub	w4, w4, #1
 571 0744 BF00046B 		cmp	w5, w4
 572 0748 010840A9 		ldp	x1, x2, [x0]
 573 074c 21040091 		add	x1, x1, 1
 574 0750 420400D1 		sub	x2, x2, #1
 575 0754 010800A9 		stp	x1, x2, [x0]
 576 0758 01FFFF54 		bne	.L147
 577              	.L148:
 578 075c C300034B 		sub	w3, w6, w3
 579 0760 6300090B 		add	w3, w3, w9
 580              	.L145:
 581 0764 44050051 		sub	w4, w10, #1
 582 0768 DF000A6B 		cmp	w6, w10
 583 076c 4D020054 		ble	.L149
 584 0770 04048052 		mov	w4, 32
 585 0774 9F017CF2 		tst	x12, 16
 586 0778 07068052 		mov	w7, 48
 587 077c E710841A 		csel	w7, w7, w4, ne
 588 0780 44050051 		sub	w4, w10, #1
 589 0784 1F2003D5 		.p2align 3,,7
 590              	.L151:
 591 0788 C20900B4 		cbz	x2, .L150
 592 078c 27000039 		strb	w7, [x1]
 593 0790 A5040051 		sub	w5, w5, #1
 594 0794 9F00056B 		cmp	w4, w5
 595 0798 010840A9 		ldp	x1, x2, [x0]
 596 079c 21040091 		add	x1, x1, 1
 597 07a0 420400D1 		sub	x2, x2, #1
 598 07a4 010800A9 		stp	x1, x2, [x0]
 599 07a8 01FFFF54 		bne	.L151
 600              	.L152:
 601 07ac 4601064B 		sub	w6, w10, w6
 602 07b0 C300030B 		add	w3, w6, w3
 603              	.L149:
 604 07b4 847C4093 		sxtw	x4, w4
 605 07b8 0A000014 		b	.L157
 606              		.p2align 2,,3
 607              	.L222:
 608 07bc 28000039 		strb	w8, [x1]
 609 07c0 9F000071 		cmp	w4, 0
 610 07c4 010840A9 		ldp	x1, x2, [x0]
 611 07c8 21040091 		add	x1, x1, 1
 612 07cc 420400D1 		sub	x2, x2, #1
 613 07d0 010800A9 		stp	x1, x2, [x0]
 614 07d4 CD080054 		ble	.L221
 615              	.L154:
 616 07d8 A8F05F38 		ldrb	w8, [x5, -1]
 617 07dc 840400D1 		sub	x4, x4, #1
 618              	.L157:
 619 07e0 E5E30091 		add	x5, sp, 56
 620 07e4 8500058B 		add	x5, x4, x5
AARCH64 GAS  C:\Users\RAFAEL~1.ROM\AppData\Local\Temp\ccH9DRWF.s 			page 12


 621 07e8 A2FEFFB5 		cbnz	x2, .L222
 622 07ec 21040091 		add	x1, x1, 1
 623 07f0 010000F9 		str	x1, [x0]
 624 07f4 9F000071 		cmp	w4, 0
 625 07f8 0CFFFF54 		bgt	.L154
 626 07fc 64040051 		sub	w4, w3, #1
 627 0800 22008052 		mov	w2, 1
 628 0804 4A000A4B 		sub	w10, w2, w10
 629 0808 63000A0B 		add	w3, w3, w10
 630 080c 8A000A0B 		add	w10, w4, w10
 631 0810 63080051 		sub	w3, w3, #2
 632 0814 5F010071 		cmp	w10, 0
 633 0818 ED000054 		ble	.L127
 634 081c 1F2003D5 		.p2align 3,,7
 635              	.L161:
 636 0820 21040091 		add	x1, x1, 1
 637 0824 010000F9 		str	x1, [x0]
 638 0828 7F000071 		cmp	w3, 0
 639 082c 63040051 		sub	w3, w3, #1
 640 0830 8CFFFF54 		bgt	.L161
 641              	.L127:
 642 0834 FF430191 		add	sp, sp, 80
 643 0838 C0035FD6 		ret
 644              		.p2align 2,,3
 645              	.L167:
 646 083c 0D008052 		mov	w13, 0
 647              	.L131:
 648 0840 477C4093 		sxtw	x7, w2
 649 0844 220080D2 		mov	x2, 1
 650              		.p2align 3,,7
 651              	.L133:
 652 0848 2808C79A 		udiv	x8, x1, x7
 653 084c E6E30091 		add	x6, sp, 56
 654 0850 C600028B 		add	x6, x6, x2
 655 0854 3F0007EB 		cmp	x1, x7
 656 0858 EA03022A 		mov	w10, w2
 657 085c 42040091 		add	x2, x2, 1
 658 0860 0985079B 		msub	x9, x8, x7, x1
 659 0864 E10308AA 		mov	x1, x8
 660 0868 68696938 		ldrb	w8, [x11, x9]
 661 086c C8F01F38 		strb	w8, [x6, -1]
 662 0870 C2FEFF54 		bcs	.L133
 663 0874 5F01046B 		cmp	w10, w4
 664 0878 46A1841A 		csel	w6, w10, w4, ge
 665 087c 4DF0FF34 		cbz	w13, .L132
 666              	.L134:
 667 0880 63040051 		sub	w3, w3, #1
 668 0884 84011E12 		and	w4, w12, 4
 669 0888 CCF01736 		tbz	x12, 2, .L136
 670 088c 63080051 		sub	w3, w3, #2
 671 0890 84FFFF17 		b	.L136
 672              		.p2align 2,,3
 673              	.L146:
 674 0894 21040091 		add	x1, x1, 1
 675 0898 010000F9 		str	x1, [x0]
 676 089c 84040051 		sub	w4, w4, #1
 677 08a0 9F00056B 		cmp	w4, w5
AARCH64 GAS  C:\Users\RAFAEL~1.ROM\AppData\Local\Temp\ccH9DRWF.s 			page 13


 678 08a4 C0F5FF54 		beq	.L148
 679 08a8 21040091 		add	x1, x1, 1
 680 08ac 010000F9 		str	x1, [x0]
 681 08b0 84040051 		sub	w4, w4, #1
 682 08b4 9F00056B 		cmp	w4, w5
 683 08b8 E1FEFF54 		bne	.L146
 684 08bc A8FFFF17 		b	.L148
 685              		.p2align 2,,3
 686              	.L150:
 687 08c0 21040091 		add	x1, x1, 1
 688 08c4 010000F9 		str	x1, [x0]
 689 08c8 A5040051 		sub	w5, w5, #1
 690 08cc BF00046B 		cmp	w5, w4
 691 08d0 E0F6FF54 		beq	.L152
 692 08d4 21040091 		add	x1, x1, 1
 693 08d8 010000F9 		str	x1, [x0]
 694 08dc A5040051 		sub	w5, w5, #1
 695 08e0 BF00046B 		cmp	w5, w4
 696 08e4 E1FEFF54 		bne	.L150
 697 08e8 B1FFFF17 		b	.L152
 698              		.p2align 2,,3
 699              	.L221:
 700 08ec 65040051 		sub	w5, w3, #1
 701 08f0 24008052 		mov	w4, 1
 702 08f4 8A000A4B 		sub	w10, w4, w10
 703 08f8 04048052 		mov	w4, 32
 704 08fc 63000A0B 		add	w3, w3, w10
 705 0900 4A01050B 		add	w10, w10, w5
 706 0904 63080051 		sub	w3, w3, #2
 707 0908 5F010071 		cmp	w10, 0
 708 090c 4DF9FF54 		ble	.L127
 709              		.p2align 3,,7
 710              	.L158:
 711 0910 82F8FFB4 		cbz	x2, .L161
 712 0914 24000039 		strb	w4, [x1]
 713 0918 7F000071 		cmp	w3, 0
 714 091c 63040051 		sub	w3, w3, #1
 715 0920 010840A9 		ldp	x1, x2, [x0]
 716 0924 21040091 		add	x1, x1, 1
 717 0928 420400D1 		sub	x2, x2, #1
 718 092c 010800A9 		stp	x1, x2, [x0]
 719 0930 0CFFFF54 		bgt	.L158
 720 0934 FF430191 		add	sp, sp, 80
 721 0938 C0035FD6 		ret
 722              	.L169:
 723 093c E303092A 		mov	w3, w9
 724              		.p2align 3,,7
 725              	.L215:
 726 0940 C5040051 		sub	w5, w6, #1
 727 0944 88FFFF17 		b	.L145
 728              		.p2align 2,,3
 729              	.L220:
 730 0948 010840A9 		ldp	x1, x2, [x0]
 731              	.L137:
 732 094c 07ECFF34 		cbz	w7, .L139
 733 0950 9F017DF2 		tst	x12, 8
 734 0954 07048052 		mov	w7, 32
AARCH64 GAS  C:\Users\RAFAEL~1.ROM\AppData\Local\Temp\ccH9DRWF.s 			page 14


 735 0958 69058052 		mov	w9, 43
 736 095c E710891A 		csel	w7, w7, w9, ne
 737 0960 22EBFFB4 		cbz	x2, .L141
 738 0964 27000039 		strb	w7, [x1]
 739 0968 010840A9 		ldp	x1, x2, [x0]
 740 096c 420400D1 		sub	x2, x2, #1
 741 0970 020400F9 		str	x2, [x0, 8]
 742 0974 54FFFF17 		b	.L141
 743              		.p2align 2,,3
 744              	.L219:
 745 0978 0D008052 		mov	w13, 0
 746 097c C1FFFF17 		b	.L134
 747              		.p2align 2,,3
 748              	.L218:
 749 0980 E10301CB 		neg	x1, x1
 750 0984 2D008052 		mov	w13, 1
 751 0988 AEFFFF17 		b	.L131
 752              		.size	cprint_int.constprop.0, .-cprint_int.constprop.0
 753              		.align	2
 754 098c 1F2003D5 		.p2align 4,,15
 755              		.type	vcprintf.constprop.2, %function
 756              	vcprintf.constprop.2:
 757 0990 F353BDA9 		stp	x19, x20, [sp, -48]!
 758 0994 EE0301AA 		mov	x14, x1
 759 0998 F55B01A9 		stp	x21, x22, [sp, 16]
 760 099c 561840B9 		ldr	w22, [x2, 24]
 761 09a0 554840A9 		ldp	x21, x18, [x2]
 762 09a4 FE1300F9 		str	x30, [sp, 32]
 763 09a8 21004039 		ldrb	w1, [x1]
 764 09ac 41120034 		cbz	w1, .L223
 765 09b0 B3048052 		mov	w19, 37
 766 09b4 14028052 		mov	w20, 16
 767 09b8 0B000014 		b	.L224
 768              		.p2align 2,,3
 769              	.L505:
 770 09bc 020C40A9 		ldp	x2, x3, [x0]
 771 09c0 A30000B4 		cbz	x3, .L226
 772 09c4 41000039 		strb	w1, [x2]
 773 09c8 020440A9 		ldp	x2, x1, [x0]
 774 09cc 210400D1 		sub	x1, x1, #1
 775 09d0 010400F9 		str	x1, [x0, 8]
 776              	.L226:
 777 09d4 42040091 		add	x2, x2, 1
 778 09d8 020000F9 		str	x2, [x0]
 779              	.L227:
 780 09dc C1014039 		ldrb	w1, [x14]
 781 09e0 A1100034 		cbz	w1, .L223
 782              	.L224:
 783 09e4 CE050091 		add	x14, x14, 1
 784 09e8 3F940071 		cmp	w1, 37
 785 09ec 81FEFF54 		bne	.L505
 786 09f0 C2014039 		ldrb	w2, [x14]
 787 09f4 C1050091 		add	x1, x14, 1
 788 09f8 E6611912 		and	w6, w15, -128
 789 09fc E50301AA 		mov	x5, x1
 790 0a00 EF03062A 		mov	w15, w6
 791 0a04 5FAC0071 		cmp	w2, 43
AARCH64 GAS  C:\Users\RAFAEL~1.ROM\AppData\Local\Temp\ccH9DRWF.s 			page 15


 792 0a08 03008052 		mov	w3, 0
 793 0a0c 07008052 		mov	w7, 0
 794 0a10 04008052 		mov	w4, 0
 795 0a14 08008052 		mov	w8, 0
 796 0a18 09008052 		mov	w9, 0
 797 0a1c A0010054 		beq	.L346
 798              		.p2align 3,,7
 799              	.L506:
 800 0a20 E8010054 		bhi	.L230
 801 0a24 5F800071 		cmp	w2, 32
 802 0a28 80020054 		beq	.L347
 803 0a2c 5F8C0071 		cmp	w2, 35
 804 0a30 01030054 		bne	.L231
 805 0a34 EE0301AA 		mov	x14, x1
 806 0a38 24008052 		mov	w4, 1
 807              	.L507:
 808 0a3c C2014039 		ldrb	w2, [x14]
 809 0a40 C1050091 		add	x1, x14, 1
 810 0a44 E50301AA 		mov	x5, x1
 811 0a48 5FAC0071 		cmp	w2, 43
 812 0a4c A1FEFF54 		bne	.L506
 813              	.L346:
 814 0a50 EE0301AA 		mov	x14, x1
 815 0a54 29008052 		mov	w9, 1
 816 0a58 F9FFFF17 		b	.L507
 817              		.p2align 2,,3
 818              	.L230:
 819 0a5c 5FB40071 		cmp	w2, 45
 820 0a60 20010054 		beq	.L349
 821 0a64 5FC00071 		cmp	w2, 48
 822 0a68 41010054 		bne	.L231
 823 0a6c EE0301AA 		mov	x14, x1
 824 0a70 23008052 		mov	w3, 1
 825 0a74 F2FFFF17 		b	.L507
 826              		.p2align 2,,3
 827              	.L347:
 828 0a78 EE0301AA 		mov	x14, x1
 829 0a7c 27008052 		mov	w7, 1
 830 0a80 EFFFFF17 		b	.L507
 831              		.p2align 2,,3
 832              	.L349:
 833 0a84 EE0301AA 		mov	x14, x1
 834 0a88 28008052 		mov	w8, 1
 835 0a8c ECFFFF17 		b	.L507
 836              	.L231:
 837 0a90 C6000032 		orr	w6, w6, 1
 838 0a94 3F010071 		cmp	w9, 0
 839 0a98 EF01861A 		csel	w15, w15, w6, eq
 840 0a9c 1F010071 		cmp	w8, 0
 841 0aa0 E6011F32 		orr	w6, w15, 2
 842 0aa4 EF01861A 		csel	w15, w15, w6, eq
 843 0aa8 9F000071 		cmp	w4, 0
 844 0aac E4011E32 		orr	w4, w15, 4
 845 0ab0 EF01841A 		csel	w15, w15, w4, eq
 846 0ab4 FF000071 		cmp	w7, 0
 847 0ab8 E4011D32 		orr	w4, w15, 8
 848 0abc EF01841A 		csel	w15, w15, w4, eq
AARCH64 GAS  C:\Users\RAFAEL~1.ROM\AppData\Local\Temp\ccH9DRWF.s 			page 16


 849 0ac0 7F000071 		cmp	w3, 0
 850 0ac4 E3011C32 		orr	w3, w15, 16
 851 0ac8 EF01831A 		csel	w15, w15, w3, eq
 852 0acc 5FA80071 		cmp	w2, 42
 853 0ad0 40170054 		beq	.L508
 854 0ad4 46C00051 		sub	w6, w2, #48
 855 0ad8 03008052 		mov	w3, 0
 856 0adc C41C0012 		and	w4, w6, 255
 857 0ae0 9F240071 		cmp	w4, 9
 858 0ae4 49240054 		bls	.L509
 859              	.L241:
 860 0ae8 5FB80071 		cmp	w2, 46
 861 0aec 04008012 		mov	w4, -1
 862 0af0 C0110054 		beq	.L510
 863              	.L243:
 864 0af4 5FB00171 		cmp	w2, 108
 865 0af8 80130054 		beq	.L249
 866              	.L522:
 867 0afc 68030054 		bhi	.L250
 868 0b00 5FA00171 		cmp	w2, 104
 869 0b04 C1180054 		bne	.L252
 870 0b08 C2054039 		ldrb	w2, [x14, 1]
 871 0b0c 5FA00171 		cmp	w2, 104
 872 0b10 E0260054 		beq	.L511
 873 0b14 C5090091 		add	x5, x14, 2
 874 0b18 5FA40171 		cmp	w2, 105
 875 0b1c 40210054 		beq	.L327
 876 0b20 49200054 		bls	.L512
 877 0b24 5FD40171 		cmp	w2, 117
 878 0b28 60380054 		beq	.L361
 879 0b2c 691F0054 		bls	.L513
 880 0b30 5FE00171 		cmp	w2, 120
 881 0b34 61030054 		bne	.L261
 882 0b38 EF751B12 		and	w15, w15, -25
 883 0b3c 02028052 		mov	w2, 16
 884 0b40 EF01022A 		orr	w15, w15, w2
 885 0b44 D62BF837 		tbnz	w22, #31, .L297
 886              		.p2align 3,,7
 887              	.L529:
 888 0b48 A62E0091 		add	x6, x21, 11
 889 0b4c E10315AA 		mov	x1, x21
 890 0b50 D5F07D92 		and	x21, x6, -8
 891              	.L298:
 892 0b54 21004079 		ldrh	w1, [x1]
 893 0b58 EE0305AA 		mov	x14, x5
 894              	.L296:
 895 0b5c 9F040031 		cmn	w4, #1
 896 0b60 84109F1A 		csel	w4, w4, wzr, ne
 897 0b64 EA000014 		b	.L306
 898              		.p2align 2,,3
 899              	.L250:
 900 0b68 5FD00171 		cmp	w2, 116
 901 0b6c 60000054 		beq	.L253
 902 0b70 5FE80171 		cmp	w2, 122
 903 0b74 41210054 		bne	.L514
 904              	.L253:
 905 0b78 C2054039 		ldrb	w2, [x14, 1]
AARCH64 GAS  C:\Users\RAFAEL~1.ROM\AppData\Local\Temp\ccH9DRWF.s 			page 17


 906 0b7c C5090091 		add	x5, x14, 2
 907 0b80 5FA40171 		cmp	w2, 105
 908 0b84 600A0054 		beq	.L269
 909 0b88 89070054 		bls	.L515
 910 0b8c 5FD40171 		cmp	w2, 117
 911 0b90 801E0054 		beq	.L366
 912 0b94 89030054 		bls	.L516
 913 0b98 5FE00171 		cmp	w2, 120
 914 0b9c C0120054 		beq	.L343
 915              		.p2align 3,,7
 916              	.L261:
 917 0ba0 A1004039 		ldrb	w1, [x5]
 918 0ba4 3F940071 		cmp	w1, 37
 919 0ba8 81000054 		bne	.L324
 920 0bac F5010014 		b	.L517
 921              		.p2align 2,,3
 922              	.L518:
 923 0bb0 22F05F38 		ldrb	w2, [x1, -1]
 924 0bb4 E50301AA 		mov	x5, x1
 925              	.L324:
 926 0bb8 5F940071 		cmp	w2, 37
 927 0bbc A10400D1 		sub	x1, x5, #1
 928 0bc0 81FFFF54 		bne	.L518
 929 0bc4 010840A9 		ldp	x1, x2, [x0]
 930 0bc8 C20000B4 		cbz	x2, .L325
 931 0bcc 33000039 		strb	w19, [x1]
 932 0bd0 010840A9 		ldp	x1, x2, [x0]
 933 0bd4 420400D1 		sub	x2, x2, #1
 934 0bd8 020400F9 		str	x2, [x0, 8]
 935 0bdc 1F2003D5 		.p2align 3,,7
 936              	.L325:
 937 0be0 EE0305AA 		mov	x14, x5
 938 0be4 21040091 		add	x1, x1, 1
 939 0be8 010000F9 		str	x1, [x0]
 940              	.L520:
 941 0bec C1014039 		ldrb	w1, [x14]
 942 0bf0 A1EFFF35 		cbnz	w1, .L224
 943              	.L223:
 944 0bf4 F55B41A9 		ldp	x21, x22, [sp, 16]
 945 0bf8 FE1340F9 		ldr	x30, [sp, 32]
 946 0bfc F353C3A8 		ldp	x19, x20, [sp], 48
 947 0c00 C0035FD6 		ret
 948              		.p2align 2,,3
 949              	.L516:
 950 0c04 5FC00171 		cmp	w2, 112
 951 0c08 00160054 		beq	.L365
 952              	.L490:
 953 0c0c 5FCC0171 		cmp	w2, 115
 954 0c10 81FCFF54 		bne	.L261
 955 0c14 5623F837 		tbnz	w22, #31, .L311
 956 0c18 A23E0091 		add	x2, x21, 15
 957 0c1c E10315AA 		mov	x1, x21
 958 0c20 55F07D92 		and	x21, x2, -8
 959              	.L312:
 960 0c24 9F040031 		cmn	w4, #1
 961 0c28 210040F9 		ldr	x1, [x1]
 962 0c2c C02D0054 		beq	.L314
AARCH64 GAS  C:\Users\RAFAEL~1.ROM\AppData\Local\Temp\ccH9DRWF.s 			page 18


 963 0c30 04020034 		cbz	w4, .L360
 964 0c34 84040051 		sub	w4, w4, #1
 965 0c38 84040091 		add	x4, x4, 1
 966 0c3c 2400048B 		add	x4, x1, x4
 967              		.p2align 3,,7
 968              	.L315:
 969 0c40 23004039 		ldrb	w3, [x1]
 970 0c44 21040091 		add	x1, x1, 1
 971 0c48 3F0004EB 		cmp	x1, x4
 972 0c4c 23010034 		cbz	w3, .L360
 973 0c50 021840A9 		ldp	x2, x6, [x0]
 974 0c54 462700B4 		cbz	x6, .L319
 975 0c58 43000039 		strb	w3, [x2]
 976 0c5c 030840A9 		ldp	x3, x2, [x0]
 977 0c60 63040091 		add	x3, x3, 1
 978 0c64 420400D1 		sub	x2, x2, #1
 979 0c68 030800A9 		stp	x3, x2, [x0]
 980 0c6c A1FEFF54 		bne	.L315
 981              	.L360:
 982 0c70 EE0305AA 		mov	x14, x5
 983 0c74 5AFFFF17 		b	.L227
 984              		.p2align 2,,3
 985              	.L515:
 986 0c78 5F600171 		cmp	w2, 88
 987 0c7c E01D0054 		beq	.L341
 988 0c80 29040054 		bls	.L492
 989 0c84 5F8C0171 		cmp	w2, 99
 990 0c88 01020054 		bne	.L519
 991              	.L262:
 992 0c8c 9620F837 		tbnz	w22, #31, .L307
 993 0c90 A12E0091 		add	x1, x21, 11
 994 0c94 E30315AA 		mov	x3, x21
 995 0c98 35F07D92 		and	x21, x1, -8
 996              	.L308:
 997 0c9c 010840A9 		ldp	x1, x2, [x0]
 998 0ca0 02FAFFB4 		cbz	x2, .L325
 999 0ca4 620040B9 		ldr	w2, [x3]
 1000 0ca8 EE0305AA 		mov	x14, x5
 1001 0cac 22000039 		strb	w2, [x1]
 1002 0cb0 010840A9 		ldp	x1, x2, [x0]
 1003 0cb4 420400D1 		sub	x2, x2, #1
 1004 0cb8 21040091 		add	x1, x1, 1
 1005 0cbc 010000F9 		str	x1, [x0]
 1006 0cc0 020400F9 		str	x2, [x0, 8]
 1007 0cc4 CAFFFF17 		b	.L520
 1008              		.p2align 2,,3
 1009              	.L519:
 1010 0cc8 5F900171 		cmp	w2, 100
 1011 0ccc A1F6FF54 		bne	.L261
 1012              	.L269:
 1013 0cd0 762FF837 		tbnz	w22, #31, .L286
 1014              	.L524:
 1015 0cd4 A23E0091 		add	x2, x21, 15
 1016 0cd8 E10315AA 		mov	x1, x21
 1017 0cdc 55F07D92 		and	x21, x2, -8
 1018              	.L287:
 1019 0ce0 210040F9 		ldr	x1, [x1]
AARCH64 GAS  C:\Users\RAFAEL~1.ROM\AppData\Local\Temp\ccH9DRWF.s 			page 19


 1020 0ce4 EE0305AA 		mov	x14, x5
 1021              	.L279:
 1022 0ce8 E5011B32 		orr	w5, w15, 32
 1023 0cec 9F040031 		cmn	w4, #1
 1024 0cf0 EF03052A 		mov	w15, w5
 1025 0cf4 84109F1A 		csel	w4, w4, wzr, ne
 1026 0cf8 42018052 		mov	w2, 10
 1027 0cfc 3DFEFF97 		bl	cprint_int.constprop.0
 1028 0d00 37FFFF17 		b	.L227
 1029              	.L492:
 1030 0d04 5F940071 		cmp	w2, 37
 1031 0d08 C1F4FF54 		bne	.L261
 1032              	.L323:
 1033 0d0c 010840A9 		ldp	x1, x2, [x0]
 1034 0d10 82F6FFB4 		cbz	x2, .L325
 1035 0d14 33000039 		strb	w19, [x1]
 1036 0d18 010840A9 		ldp	x1, x2, [x0]
 1037 0d1c 420400D1 		sub	x2, x2, #1
 1038 0d20 020400F9 		str	x2, [x0, 8]
 1039 0d24 AFFFFF17 		b	.L325
 1040              		.p2align 2,,3
 1041              	.L510:
 1042 0d28 C2054039 		ldrb	w2, [x14, 1]
 1043 0d2c 5FA80071 		cmp	w2, 42
 1044 0d30 A1090054 		bne	.L521
 1045 0d34 C1090091 		add	x1, x14, 2
 1046 0d38 1624F837 		tbnz	w22, #31, .L246
 1047 0d3c A42E0091 		add	x4, x21, 11
 1048 0d40 E20315AA 		mov	x2, x21
 1049 0d44 95F07D92 		and	x21, x4, -8
 1050              	.L247:
 1051 0d48 440040B9 		ldr	w4, [x2]
 1052 0d4c C50D0091 		add	x5, x14, 3
 1053 0d50 C2094039 		ldrb	w2, [x14, 2]
 1054 0d54 EE0301AA 		mov	x14, x1
 1055 0d58 9F000071 		cmp	w4, 0
 1056 0d5c 84A09F1A 		csel	w4, w4, wzr, ge
 1057 0d60 5FB00171 		cmp	w2, 108
 1058 0d64 C1ECFF54 		bne	.L522
 1059              		.p2align 3,,7
 1060              	.L249:
 1061 0d68 C2054039 		ldrb	w2, [x14, 1]
 1062 0d6c 5FB00171 		cmp	w2, 108
 1063 0d70 80130054 		beq	.L523
 1064              	.L268:
 1065 0d74 A5040091 		add	x5, x5, 1
 1066 0d78 5FC00171 		cmp	w2, 112
 1067 0d7c 600A0054 		beq	.L365
 1068 0d80 28030054 		bhi	.L340
 1069 0d84 5F600171 		cmp	w2, 88
 1070 0d88 80150054 		beq	.L341
 1071 0d8c C9FBFF54 		bls	.L492
 1072 0d90 5F8C0171 		cmp	w2, 99
 1073 0d94 C0F7FF54 		beq	.L262
 1074 0d98 5F880171 		cmp	w2, 98
 1075 0d9c 29F0FF54 		bls	.L261
 1076 0da0 5F900171 		cmp	w2, 100
AARCH64 GAS  C:\Users\RAFAEL~1.ROM\AppData\Local\Temp\ccH9DRWF.s 			page 20


 1077 0da4 60F9FF54 		beq	.L269
 1078 0da8 5FA40171 		cmp	w2, 105
 1079 0dac A1EFFF54 		bne	.L261
 1080 0db0 36F9FF36 		tbz	w22, #31, .L524
 1081 0db4 42010014 		b	.L286
 1082              		.p2align 2,,3
 1083              	.L508:
 1084 0db8 9607F837 		tbnz	w22, #31, .L238
 1085 0dbc A32E0091 		add	x3, x21, 11
 1086 0dc0 E20315AA 		mov	x2, x21
 1087 0dc4 75F07D92 		and	x21, x3, -8
 1088              	.L239:
 1089 0dc8 430040B9 		ldr	w3, [x2]
 1090 0dcc C5090091 		add	x5, x14, 2
 1091 0dd0 C2054039 		ldrb	w2, [x14, 1]
 1092 0dd4 EE0301AA 		mov	x14, x1
 1093 0dd8 7F000071 		cmp	w3, 0
 1094 0ddc 63A09F1A 		csel	w3, w3, wzr, ge
 1095 0de0 42FFFF17 		b	.L241
 1096              		.p2align 2,,3
 1097              	.L340:
 1098 0de4 5FD40171 		cmp	w2, 117
 1099 0de8 C00B0054 		beq	.L366
 1100 0dec 5FE00171 		cmp	w2, 120
 1101 0df0 E1F0FF54 		bne	.L490
 1102              	.L343:
 1103 0df4 EF751B12 		and	w15, w15, -25
 1104 0df8 02028052 		mov	w2, 16
 1105 0dfc EF01022A 		orr	w15, w15, w2
 1106 0e00 F616F837 		tbnz	w22, #31, .L303
 1107              	.L527:
 1108 0e04 A63E0091 		add	x6, x21, 15
 1109 0e08 E10315AA 		mov	x1, x21
 1110 0e0c D5F07D92 		and	x21, x6, -8
 1111              	.L304:
 1112 0e10 EE0305AA 		mov	x14, x5
 1113 0e14 210040F9 		ldr	x1, [x1]
 1114 0e18 51FFFF17 		b	.L296
 1115              		.p2align 2,,3
 1116              	.L252:
 1117 0e1c 5F600171 		cmp	w2, 88
 1118 0e20 A0110054 		beq	.L335
 1119 0e24 09F7FF54 		bls	.L492
 1120 0e28 5F8C0171 		cmp	w2, 99
 1121 0e2c 00F3FF54 		beq	.L262
 1122 0e30 5F880171 		cmp	w2, 98
 1123 0e34 69EBFF54 		bls	.L261
 1124 0e38 5F900171 		cmp	w2, 100
 1125 0e3c 60000054 		beq	.L337
 1126 0e40 5FA40171 		cmp	w2, 105
 1127 0e44 E1EAFF54 		bne	.L261
 1128              	.L337:
 1129 0e48 B624F837 		tbnz	w22, #31, .L283
 1130 0e4c A22E0091 		add	x2, x21, 11
 1131 0e50 E10315AA 		mov	x1, x21
 1132 0e54 55F07D92 		and	x21, x2, -8
 1133              	.L284:
AARCH64 GAS  C:\Users\RAFAEL~1.ROM\AppData\Local\Temp\ccH9DRWF.s 			page 21


 1134 0e58 210080B9 		ldrsw	x1, [x1]
 1135 0e5c EE0305AA 		mov	x14, x5
 1136 0e60 A2FFFF17 		b	.L279
 1137              		.p2align 2,,3
 1138              	.L521:
 1139 0e64 46C00051 		sub	w6, w2, #48
 1140 0e68 04008052 		mov	w4, 0
 1141 0e6c C11C0012 		and	w1, w6, 255
 1142 0e70 47018052 		mov	w7, 10
 1143 0e74 3F240071 		cmp	w1, 9
 1144 0e78 08270054 		bhi	.L525
 1145 0e7c 1F2003D5 		.p2align 3,,7
 1146              	.L245:
 1147 0e80 E80305AA 		mov	x8, x5
 1148 0e84 A21C4038 		ldrb	w2, [x5, 1]!
 1149 0e88 8418071B 		madd	w4, w4, w7, w6
 1150 0e8c 46C00051 		sub	w6, w2, #48
 1151 0e90 C11C0012 		and	w1, w6, 255
 1152 0e94 3F240071 		cmp	w1, 9
 1153 0e98 49FFFF54 		bls	.L245
 1154 0e9c EE0305AA 		mov	x14, x5
 1155 0ea0 05090091 		add	x5, x8, 2
 1156 0ea4 14FFFF17 		b	.L243
 1157              		.p2align 2,,3
 1158              	.L238:
 1159 0ea8 C3220011 		add	w3, w22, 8
 1160 0eac 7F000071 		cmp	w3, 0
 1161 0eb0 0D0E0054 		ble	.L240
 1162 0eb4 A42E0091 		add	x4, x21, 11
 1163 0eb8 E20315AA 		mov	x2, x21
 1164 0ebc F603032A 		mov	w22, w3
 1165 0ec0 95F07D92 		and	x21, x4, -8
 1166 0ec4 C1FFFF17 		b	.L239
 1167              		.p2align 2,,3
 1168              	.L365:
 1169 0ec8 01018052 		mov	w1, 8
 1170              	.L275:
 1171 0ecc EF011E32 		orr	w15, w15, 4
 1172 0ed0 9F040031 		cmn	w4, #1
 1173 0ed4 020B8012 		mov	w2, -89
 1174 0ed8 EF01020A 		and	w15, w15, w2
 1175 0edc 8410941A 		csel	w4, w4, w20, ne
 1176 0ee0 020A8052 		mov	w2, 80
 1177 0ee4 3F080071 		cmp	w1, 2
 1178 0ee8 EF01022A 		orr	w15, w15, w2
 1179 0eec C0110054 		beq	.L526
 1180 0ef0 3F100071 		cmp	w1, 4
 1181 0ef4 E0110054 		beq	.L367
 1182 0ef8 3F200071 		cmp	w1, 8
 1183 0efc E0250054 		beq	.L368
 1184 0f00 EE0305AA 		mov	x14, x5
 1185 0f04 02028052 		mov	w2, 16
 1186 0f08 010080D2 		mov	x1, 0
 1187              	.L306:
 1188 0f0c E5030F2A 		mov	w5, w15
 1189 0f10 B8FDFF97 		bl	cprint_int.constprop.0
 1190 0f14 B2FEFF17 		b	.L227
AARCH64 GAS  C:\Users\RAFAEL~1.ROM\AppData\Local\Temp\ccH9DRWF.s 			page 22


 1191              		.p2align 2,,3
 1192              	.L513:
 1193 0f18 5FC00171 		cmp	w2, 112
 1194 0f1c 81E7FF54 		bne	.L490
 1195 0f20 41008052 		mov	w1, 2
 1196 0f24 EAFFFF17 		b	.L275
 1197              		.p2align 2,,3
 1198              	.L512:
 1199 0f28 5F600171 		cmp	w2, 88
 1200 0f2c 80200054 		beq	.L329
 1201 0f30 A9EEFF54 		bls	.L492
 1202 0f34 5F8C0171 		cmp	w2, 99
 1203 0f38 A0EAFF54 		beq	.L262
 1204 0f3c 5F900171 		cmp	w2, 100
 1205 0f40 01E3FF54 		bne	.L261
 1206              	.L327:
 1207 0f44 D61AF837 		tbnz	w22, #31, .L280
 1208 0f48 A22E0091 		add	x2, x21, 11
 1209 0f4c E10315AA 		mov	x1, x21
 1210 0f50 55F07D92 		and	x21, x2, -8
 1211              	.L281:
 1212 0f54 21008079 		ldrsh	x1, [x1]
 1213 0f58 EE0305AA 		mov	x14, x5
 1214 0f5c 63FFFF17 		b	.L279
 1215              		.p2align 2,,3
 1216              	.L366:
 1217 0f60 42018052 		mov	w2, 10
 1218 0f64 16F5FF36 		tbz	w22, #31, .L527
 1219 0f68 5D000014 		b	.L303
 1220              		.p2align 2,,3
 1221              	.L509:
 1222 0f6c 47018052 		mov	w7, 10
 1223              		.p2align 3,,7
 1224              	.L242:
 1225 0f70 22004039 		ldrb	w2, [x1]
 1226 0f74 6318071B 		madd	w3, w3, w7, w6
 1227 0f78 E5030EAA 		mov	x5, x14
 1228 0f7c EE0301AA 		mov	x14, x1
 1229 0f80 46C00051 		sub	w6, w2, #48
 1230 0f84 21040091 		add	x1, x1, 1
 1231 0f88 C41C0012 		and	w4, w6, 255
 1232 0f8c 9F240071 		cmp	w4, 9
 1233 0f90 09FFFF54 		bls	.L242
 1234 0f94 A5080091 		add	x5, x5, 2
 1235 0f98 D4FEFF17 		b	.L241
 1236              	.L514:
 1237 0f9c 5FC00171 		cmp	w2, 112
 1238 0fa0 E00B0054 		beq	.L363
 1239 0fa4 C9F3FF54 		bls	.L252
 1240 0fa8 5FD40171 		cmp	w2, 117
 1241 0fac 60110054 		beq	.L364
 1242 0fb0 5FE00171 		cmp	w2, 120
 1243 0fb4 C1E2FF54 		bne	.L490
 1244 0fb8 EF751B12 		and	w15, w15, -25
 1245 0fbc 02028052 		mov	w2, 16
 1246 0fc0 EF01022A 		orr	w15, w15, w2
 1247 0fc4 D609F837 		tbnz	w22, #31, .L300
AARCH64 GAS  C:\Users\RAFAEL~1.ROM\AppData\Local\Temp\ccH9DRWF.s 			page 23


 1248              		.p2align 3,,7
 1249              	.L528:
 1250 0fc8 A62E0091 		add	x6, x21, 11
 1251 0fcc E10315AA 		mov	x1, x21
 1252 0fd0 D5F07D92 		and	x21, x6, -8
 1253              	.L301:
 1254 0fd4 210040B9 		ldr	w1, [x1]
 1255 0fd8 EE0305AA 		mov	x14, x5
 1256 0fdc E0FEFF17 		b	.L296
 1257              		.p2align 2,,3
 1258              	.L523:
 1259 0fe0 C2094039 		ldrb	w2, [x14, 2]
 1260 0fe4 C5090091 		add	x5, x14, 2
 1261 0fe8 63FFFF17 		b	.L268
 1262              		.p2align 2,,3
 1263              	.L511:
 1264 0fec C2094039 		ldrb	w2, [x14, 2]
 1265 0ff0 C50D0091 		add	x5, x14, 3
 1266 0ff4 5FA40171 		cmp	w2, 105
 1267 0ff8 20010054 		beq	.L256
 1268 0ffc A80A0054 		bhi	.L257
 1269 1000 5F600171 		cmp	w2, 88
 1270 1004 600B0054 		beq	.L486
 1271 1008 E9E7FF54 		bls	.L492
 1272 100c 5F8C0171 		cmp	w2, 99
 1273 1010 E0E3FF54 		beq	.L262
 1274 1014 5F900171 		cmp	w2, 100
 1275 1018 41DCFF54 		bne	.L261
 1276              	.L256:
 1277 101c 1617F837 		tbnz	w22, #31, .L276
 1278 1020 A22E0091 		add	x2, x21, 11
 1279 1024 E10315AA 		mov	x1, x21
 1280 1028 55F07D92 		and	x21, x2, -8
 1281              	.L277:
 1282 102c 21008039 		ldrsb	x1, [x1]
 1283 1030 EE0305AA 		mov	x14, x5
 1284 1034 2DFFFF17 		b	.L279
 1285              		.p2align 2,,3
 1286              	.L341:
 1287 1038 010B8012 		mov	w1, -89
 1288 103c EF01010A 		and	w15, w15, w1
 1289 1040 02028052 		mov	w2, 16
 1290 1044 010A8052 		mov	w1, 80
 1291 1048 EF01012A 		orr	w15, w15, w1
 1292 104c D6EDFF36 		tbz	w22, #31, .L527
 1293 1050 23000014 		b	.L303
 1294              	.L335:
 1295 1054 010B8012 		mov	w1, -89
 1296 1058 EF01010A 		and	w15, w15, w1
 1297 105c 02028052 		mov	w2, 16
 1298 1060 010A8052 		mov	w1, 80
 1299 1064 EF01012A 		orr	w15, w15, w1
 1300 1068 16FBFF36 		tbz	w22, #31, .L528
 1301 106c 24000014 		b	.L300
 1302              	.L240:
 1303 1070 42C2368B 		add	x2, x18, x22, sxtw
 1304 1074 F603032A 		mov	w22, w3
AARCH64 GAS  C:\Users\RAFAEL~1.ROM\AppData\Local\Temp\ccH9DRWF.s 			page 24


 1305 1078 54FFFF17 		b	.L239
 1306              	.L311:
 1307 107c C2220011 		add	w2, w22, 8
 1308 1080 5F000071 		cmp	w2, 0
 1309 1084 6D150054 		ble	.L313
 1310 1088 A33E0091 		add	x3, x21, 15
 1311 108c E10315AA 		mov	x1, x21
 1312 1090 F603022A 		mov	w22, w2
 1313 1094 75F07D92 		and	x21, x3, -8
 1314 1098 E3FEFF17 		b	.L312
 1315              	.L307:
 1316 109c C1220011 		add	w1, w22, 8
 1317 10a0 3F000071 		cmp	w1, 0
 1318 10a4 CD130054 		ble	.L309
 1319 10a8 A22E0091 		add	x2, x21, 11
 1320 10ac E30315AA 		mov	x3, x21
 1321 10b0 F603012A 		mov	w22, w1
 1322 10b4 55F07D92 		and	x21, x2, -8
 1323 10b8 F9FEFF17 		b	.L308
 1324              	.L297:
 1325 10bc C6220011 		add	w6, w22, 8
 1326 10c0 DF000071 		cmp	w6, 0
 1327 10c4 0D0E0054 		ble	.L299
 1328 10c8 A72E0091 		add	x7, x21, 11
 1329 10cc E10315AA 		mov	x1, x21
 1330 10d0 F603062A 		mov	w22, w6
 1331 10d4 F5F07D92 		and	x21, x7, -8
 1332 10d8 9FFEFF17 		b	.L298
 1333              		.p2align 2,,3
 1334              	.L303:
 1335 10dc C6220011 		add	w6, w22, 8
 1336 10e0 DF000071 		cmp	w6, 0
 1337 10e4 AD0C0054 		ble	.L305
 1338 10e8 A73E0091 		add	x7, x21, 15
 1339 10ec E10315AA 		mov	x1, x21
 1340 10f0 F603062A 		mov	w22, w6
 1341 10f4 F5F07D92 		and	x21, x7, -8
 1342 10f8 46FFFF17 		b	.L304
 1343              		.p2align 2,,3
 1344              	.L300:
 1345 10fc C6220011 		add	w6, w22, 8
 1346 1100 DF000071 		cmp	w6, 0
 1347 1104 4D0B0054 		ble	.L302
 1348 1108 A72E0091 		add	x7, x21, 11
 1349 110c E10315AA 		mov	x1, x21
 1350 1110 F603062A 		mov	w22, w6
 1351 1114 F5F07D92 		and	x21, x7, -8
 1352 1118 AFFFFF17 		b	.L301
 1353              	.L363:
 1354 111c 81008052 		mov	w1, 4
 1355 1120 6BFFFF17 		b	.L275
 1356              	.L526:
 1357 1124 02028052 		mov	w2, 16
 1358 1128 16D1FF36 		tbz	w22, #31, .L529
 1359 112c E4FFFF17 		b	.L297
 1360              	.L367:
 1361 1130 02028052 		mov	w2, 16
AARCH64 GAS  C:\Users\RAFAEL~1.ROM\AppData\Local\Temp\ccH9DRWF.s 			page 25


 1362 1134 B6F4FF36 		tbz	w22, #31, .L528
 1363 1138 F1FFFF17 		b	.L300
 1364              		.p2align 2,,3
 1365              	.L319:
 1366 113c 42040091 		add	x2, x2, 1
 1367 1140 020000F9 		str	x2, [x0]
 1368 1144 E1D7FF54 		bne	.L315
 1369 1148 EE0305AA 		mov	x14, x5
 1370 114c 24FEFF17 		b	.L227
 1371              	.L257:
 1372 1150 5FD40171 		cmp	w2, 117
 1373 1154 A00E0054 		beq	.L354
 1374 1158 48020054 		bhi	.L264
 1375 115c 5FC00171 		cmp	w2, 112
 1376 1160 61D5FF54 		bne	.L490
 1377 1164 EF011E32 		orr	w15, w15, 4
 1378 1168 9F040031 		cmn	w4, #1
 1379 116c C00F0054 		beq	.L344
 1380              	.L486:
 1381 1170 010B8012 		mov	w1, -89
 1382 1174 EF01010A 		and	w15, w15, w1
 1383 1178 010A8052 		mov	w1, 80
 1384 117c EF01012A 		orr	w15, w15, w1
 1385 1180 02028052 		mov	w2, 16
 1386              	.L263:
 1387 1184 F605F837 		tbnz	w22, #31, .L293
 1388 1188 A62E0091 		add	x6, x21, 11
 1389 118c E10315AA 		mov	x1, x21
 1390 1190 D5F07D92 		and	x21, x6, -8
 1391              	.L294:
 1392 1194 21004039 		ldrb	w1, [x1]
 1393 1198 EE0305AA 		mov	x14, x5
 1394 119c 70FEFF17 		b	.L296
 1395              	.L264:
 1396 11a0 5FE00171 		cmp	w2, 120
 1397 11a4 E1CFFF54 		bne	.L261
 1398 11a8 EF751B12 		and	w15, w15, -25
 1399 11ac 02028052 		mov	w2, 16
 1400 11b0 EF01022A 		orr	w15, w15, w2
 1401 11b4 F4FFFF17 		b	.L263
 1402              		.p2align 2,,3
 1403              	.L246:
 1404 11b8 C4220011 		add	w4, w22, 8
 1405 11bc 9F000071 		cmp	w4, 0
 1406 11c0 0D050054 		ble	.L248
 1407 11c4 A52E0091 		add	x5, x21, 11
 1408 11c8 E20315AA 		mov	x2, x21
 1409 11cc F603042A 		mov	w22, w4
 1410 11d0 B5F07D92 		and	x21, x5, -8
 1411 11d4 DDFEFF17 		b	.L247
 1412              		.p2align 2,,3
 1413              	.L364:
 1414 11d8 42018052 		mov	w2, 10
 1415 11dc 76EFFF36 		tbz	w22, #31, .L528
 1416 11e0 C7FFFF17 		b	.L300
 1417              	.L314:
 1418 11e4 24004039 		ldrb	w4, [x1]
AARCH64 GAS  C:\Users\RAFAEL~1.ROM\AppData\Local\Temp\ccH9DRWF.s 			page 26


 1419 11e8 44D4FF34 		cbz	w4, .L360
 1420 11ec 020C40A9 		ldp	x2, x3, [x0]
 1421              		.p2align 3,,7
 1422              	.L318:
 1423 11f0 21040091 		add	x1, x1, 1
 1424 11f4 430100B4 		cbz	x3, .L316
 1425              	.L530:
 1426 11f8 44000039 		strb	w4, [x2]
 1427 11fc 020C40A9 		ldp	x2, x3, [x0]
 1428 1200 42040091 		add	x2, x2, 1
 1429 1204 630400D1 		sub	x3, x3, #1
 1430 1208 020C00A9 		stp	x2, x3, [x0]
 1431 120c 24004039 		ldrb	w4, [x1]
 1432 1210 04D3FF34 		cbz	w4, .L360
 1433 1214 21040091 		add	x1, x1, 1
 1434 1218 03FFFFB5 		cbnz	x3, .L530
 1435              	.L316:
 1436 121c 42040091 		add	x2, x2, 1
 1437 1220 020000F9 		str	x2, [x0]
 1438 1224 24004039 		ldrb	w4, [x1]
 1439 1228 44FEFF35 		cbnz	w4, .L318
 1440 122c EE0305AA 		mov	x14, x5
 1441 1230 EBFDFF17 		b	.L227
 1442              	.L361:
 1443 1234 42018052 		mov	w2, 10
 1444 1238 96C8FF36 		tbz	w22, #31, .L529
 1445 123c A0FFFF17 		b	.L297
 1446              	.L293:
 1447 1240 C6220011 		add	w6, w22, 8
 1448 1244 DF000071 		cmp	w6, 0
 1449 1248 4D020054 		ble	.L295
 1450 124c A72E0091 		add	x7, x21, 11
 1451 1250 E10315AA 		mov	x1, x21
 1452 1254 F603062A 		mov	w22, w6
 1453 1258 F5F07D92 		and	x21, x7, -8
 1454 125c CEFFFF17 		b	.L294
 1455              	.L248:
 1456 1260 42C2368B 		add	x2, x18, x22, sxtw
 1457 1264 F603042A 		mov	w22, w4
 1458 1268 B8FEFF17 		b	.L247
 1459              	.L302:
 1460 126c 41C2368B 		add	x1, x18, x22, sxtw
 1461 1270 F603062A 		mov	w22, w6
 1462 1274 58FFFF17 		b	.L301
 1463              	.L305:
 1464 1278 41C2368B 		add	x1, x18, x22, sxtw
 1465 127c F603062A 		mov	w22, w6
 1466 1280 E4FEFF17 		b	.L304
 1467              	.L299:
 1468 1284 41C2368B 		add	x1, x18, x22, sxtw
 1469 1288 F603062A 		mov	w22, w6
 1470 128c 32FEFF17 		b	.L298
 1471              	.L295:
 1472 1290 41C2368B 		add	x1, x18, x22, sxtw
 1473 1294 F603062A 		mov	w22, w6
 1474 1298 BFFFFF17 		b	.L294
 1475              	.L280:
AARCH64 GAS  C:\Users\RAFAEL~1.ROM\AppData\Local\Temp\ccH9DRWF.s 			page 27


 1476 129c C2220011 		add	w2, w22, 8
 1477 12a0 5F000071 		cmp	w2, 0
 1478 12a4 2D070054 		ble	.L282
 1479 12a8 A62E0091 		add	x6, x21, 11
 1480 12ac E10315AA 		mov	x1, x21
 1481 12b0 F603022A 		mov	w22, w2
 1482 12b4 D5F07D92 		and	x21, x6, -8
 1483 12b8 27FFFF17 		b	.L281
 1484              	.L286:
 1485 12bc C2220011 		add	w2, w22, 8
 1486 12c0 5F000071 		cmp	w2, 0
 1487 12c4 4D070054 		ble	.L288
 1488 12c8 A63E0091 		add	x6, x21, 15
 1489 12cc E10315AA 		mov	x1, x21
 1490 12d0 F603022A 		mov	w22, w2
 1491 12d4 D5F07D92 		and	x21, x6, -8
 1492 12d8 82FEFF17 		b	.L287
 1493              	.L283:
 1494 12dc C2220011 		add	w2, w22, 8
 1495 12e0 5F000071 		cmp	w2, 0
 1496 12e4 8D050054 		ble	.L285
 1497 12e8 A62E0091 		add	x6, x21, 11
 1498 12ec E10315AA 		mov	x1, x21
 1499 12f0 F603022A 		mov	w22, w2
 1500 12f4 D5F07D92 		and	x21, x6, -8
 1501 12f8 D8FEFF17 		b	.L284
 1502              	.L276:
 1503 12fc C2220011 		add	w2, w22, 8
 1504 1300 5F000071 		cmp	w2, 0
 1505 1304 ED040054 		ble	.L278
 1506 1308 A62E0091 		add	x6, x21, 11
 1507 130c E10315AA 		mov	x1, x21
 1508 1310 F603022A 		mov	w22, w2
 1509 1314 D5F07D92 		and	x21, x6, -8
 1510 1318 45FFFF17 		b	.L277
 1511              	.L309:
 1512 131c 43C2368B 		add	x3, x18, x22, sxtw
 1513 1320 F603012A 		mov	w22, w1
 1514 1324 5EFEFF17 		b	.L308
 1515              	.L354:
 1516 1328 42018052 		mov	w2, 10
 1517 132c 96FFFF17 		b	.L263
 1518              	.L313:
 1519 1330 41C2368B 		add	x1, x18, x22, sxtw
 1520 1334 F603022A 		mov	w22, w2
 1521 1338 3BFEFF17 		b	.L312
 1522              	.L329:
 1523 133c 010B8012 		mov	w1, -89
 1524 1340 EF01010A 		and	w15, w15, w1
 1525 1344 02028052 		mov	w2, 16
 1526 1348 010A8052 		mov	w1, 80
 1527 134c EF01012A 		orr	w15, w15, w1
 1528 1350 D6BFFF36 		tbz	w22, #31, .L529
 1529 1354 5AFFFF17 		b	.L297
 1530              	.L525:
 1531 1358 EE0305AA 		mov	x14, x5
 1532 135c A5040091 		add	x5, x5, 1
AARCH64 GAS  C:\Users\RAFAEL~1.ROM\AppData\Local\Temp\ccH9DRWF.s 			page 28


 1533 1360 E5FDFF17 		b	.L243
 1534              	.L344:
 1535 1364 010B8012 		mov	w1, -89
 1536 1368 EF01010A 		and	w15, w15, w1
 1537 136c 02028052 		mov	w2, 16
 1538 1370 010A8052 		mov	w1, 80
 1539 1374 E403022A 		mov	w4, w2
 1540 1378 EF01012A 		orr	w15, w15, w1
 1541 137c 82FFFF17 		b	.L263
 1542              	.L517:
 1543 1380 A5040091 		add	x5, x5, 1
 1544 1384 62FEFF17 		b	.L323
 1545              	.L282:
 1546 1388 41C2368B 		add	x1, x18, x22, sxtw
 1547 138c F603022A 		mov	w22, w2
 1548 1390 F1FEFF17 		b	.L281
 1549              	.L285:
 1550 1394 41C2368B 		add	x1, x18, x22, sxtw
 1551 1398 F603022A 		mov	w22, w2
 1552 139c AFFEFF17 		b	.L284
 1553              	.L278:
 1554 13a0 41C2368B 		add	x1, x18, x22, sxtw
 1555 13a4 F603022A 		mov	w22, w2
 1556 13a8 21FFFF17 		b	.L277
 1557              	.L288:
 1558 13ac 41C2368B 		add	x1, x18, x22, sxtw
 1559 13b0 F603022A 		mov	w22, w2
 1560 13b4 4BFEFF17 		b	.L287
 1561              	.L368:
 1562 13b8 02028052 		mov	w2, 16
 1563 13bc 56D2FF36 		tbz	w22, #31, .L527
 1564 13c0 47FFFF17 		b	.L303
 1565              		.size	vcprintf.constprop.2, .-vcprintf.constprop.2
 1566              		.align	2
 1567 13c4 1F2003D5 		.p2align 4,,15
 1567      1F2003D5 
 1567      1F2003D5 
 1568              		.global	kprintf
 1569              		.type	kprintf, %function
 1570              	kprintf:
 1571 13d0 F353AEA9 		stp	x19, x20, [sp, -288]!
 1572 13d4 F30300AA 		mov	x19, x0
 1573 13d8 E8068012 		mov	w8, -56
 1574 13dc F55B01A9 		stp	x21, x22, [sp, 16]
 1575 13e0 EA830391 		add	x10, sp, 224
 1576 13e4 F6830491 		add	x22, sp, 288
 1577 13e8 FE1F00F9 		str	x30, [sp, 56]
 1578 13ec E90F8012 		mov	w9, -128
 1579 13f0 E01B803D 		str	q0, [sp, 96]
 1580 13f4 E11F803D 		str	q1, [sp, 112]
 1581 13f8 E223803D 		str	q2, [sp, 128]
 1582 13fc E327803D 		str	q3, [sp, 144]
 1583 1400 E42B803D 		str	q4, [sp, 160]
 1584 1404 E52F803D 		str	q5, [sp, 176]
 1585 1408 E633803D 		str	q6, [sp, 192]
 1586 140c E737803D 		str	q7, [sp, 208]
 1587 1410 E18B0EA9 		stp	x1, x2, [sp, 232]
AARCH64 GAS  C:\Users\RAFAEL~1.ROM\AppData\Local\Temp\ccH9DRWF.s 			page 29


 1588 1414 E3930FA9 		stp	x3, x4, [sp, 248]
 1589 1418 E59B10A9 		stp	x5, x6, [sp, 264]
 1590 141c E78F00F9 		str	x7, [sp, 280]
 1591 1420 F65B04A9 		stp	x22, x22, [sp, 64]
 1592 1424 00004039 		ldrb	w0, [x0]
 1593 1428 EA2B00F9 		str	x10, [sp, 80]
 1594 142c E8270B29 		stp	w8, w9, [sp, 88]
 1595 1430 00130034 		cbz	w0, .L531
 1596 1434 F76302A9 		stp	x23, x24, [sp, 32]
 1597 1438 F703082A 		mov	w23, w8
 1598 143c 18028052 		mov	w24, 16
 1599 1440 F91B00F9 		str	x25, [sp, 48]
 1600 1444 06000014 		b	.L532
 1601              		.p2align 2,,3
 1602              	.L788:
 1603 1448 02008012 		mov	w2, -1
 1604 144c 21008052 		mov	w1, 1
 1605 1450 00000094 		bl	hal_video_putc
 1606              	.L534:
 1607 1454 60024039 		ldrb	w0, [x19]
 1608 1458 80110034 		cbz	w0, .L802
 1609              	.L532:
 1610 145c 73060091 		add	x19, x19, 1
 1611 1460 1F940071 		cmp	w0, 37
 1612 1464 21FFFF54 		bne	.L788
 1613 1468 61024039 		ldrb	w1, [x19]
 1614 146c 60060091 		add	x0, x19, 1
 1615 1470 82621912 		and	w2, w20, -128
 1616 1474 F50300AA 		mov	x21, x0
 1617 1478 F403022A 		mov	w20, w2
 1618 147c 3FAC0071 		cmp	w1, 43
 1619 1480 03008052 		mov	w3, 0
 1620 1484 04008052 		mov	w4, 0
 1621 1488 05008052 		mov	w5, 0
 1622 148c 06008052 		mov	w6, 0
 1623 1490 07008052 		mov	w7, 0
 1624 1494 A0010054 		beq	.L647
 1625              		.p2align 3,,7
 1626              	.L803:
 1627 1498 A8130054 		bhi	.L537
 1628 149c 3F800071 		cmp	w1, 32
 1629 14a0 60080054 		beq	.L648
 1630 14a4 3F8C0071 		cmp	w1, 35
 1631 14a8 61010054 		bne	.L538
 1632 14ac F30300AA 		mov	x19, x0
 1633 14b0 25008052 		mov	w5, 1
 1634              	.L804:
 1635 14b4 61024039 		ldrb	w1, [x19]
 1636 14b8 60060091 		add	x0, x19, 1
 1637 14bc F50300AA 		mov	x21, x0
 1638 14c0 3FAC0071 		cmp	w1, 43
 1639 14c4 A1FEFF54 		bne	.L803
 1640              	.L647:
 1641 14c8 F30300AA 		mov	x19, x0
 1642 14cc 27008052 		mov	w7, 1
 1643 14d0 F9FFFF17 		b	.L804
 1644              	.L538:
AARCH64 GAS  C:\Users\RAFAEL~1.ROM\AppData\Local\Temp\ccH9DRWF.s 			page 30


 1645 14d4 42000032 		orr	w2, w2, 1
 1646 14d8 FF000071 		cmp	w7, 0
 1647 14dc 9402821A 		csel	w20, w20, w2, eq
 1648 14e0 DF000071 		cmp	w6, 0
 1649 14e4 82021F32 		orr	w2, w20, 2
 1650 14e8 9402821A 		csel	w20, w20, w2, eq
 1651 14ec BF000071 		cmp	w5, 0
 1652 14f0 82021E32 		orr	w2, w20, 4
 1653 14f4 9402821A 		csel	w20, w20, w2, eq
 1654 14f8 9F000071 		cmp	w4, 0
 1655 14fc 82021D32 		orr	w2, w20, 8
 1656 1500 9402821A 		csel	w20, w20, w2, eq
 1657 1504 7F000071 		cmp	w3, 0
 1658 1508 82021C32 		orr	w2, w20, 16
 1659 150c 9402821A 		csel	w20, w20, w2, eq
 1660 1510 3FA80071 		cmp	w1, 42
 1661 1514 60150054 		beq	.L805
 1662 1518 24C00051 		sub	w4, w1, #48
 1663 151c 02008052 		mov	w2, 0
 1664 1520 831C0012 		and	w3, w4, 255
 1665 1524 7F240071 		cmp	w3, 9
 1666 1528 29220054 		bls	.L806
 1667              	.L548:
 1668 152c 3FB80071 		cmp	w1, 46
 1669 1530 03008012 		mov	w3, -1
 1670 1534 00100054 		beq	.L807
 1671              	.L550:
 1672 1538 3FB00171 		cmp	w1, 108
 1673 153c A0110054 		beq	.L556
 1674              	.L818:
 1675 1540 C8030054 		bhi	.L557
 1676 1544 3FA00171 		cmp	w1, 104
 1677 1548 01150054 		bne	.L559
 1678 154c 61064039 		ldrb	w1, [x19, 1]
 1679 1550 3FA00171 		cmp	w1, 104
 1680 1554 40240054 		beq	.L808
 1681 1558 750A0091 		add	x21, x19, 2
 1682 155c 3FA40171 		cmp	w1, 105
 1683 1560 401F0054 		beq	.L627
 1684 1564 491E0054 		bls	.L809
 1685 1568 3FD40171 		cmp	w1, 117
 1686 156c C0310054 		beq	.L661
 1687 1570 691D0054 		bls	.L810
 1688 1574 3FE00171 		cmp	w1, 120
 1689 1578 C1030054 		bne	.L568
 1690 157c 94761B12 		and	w20, w20, -25
 1691 1580 01028052 		mov	w1, 16
 1692 1584 9402012A 		orr	w20, w20, w1
 1693 1588 972AF837 		tbnz	w23, #31, .L604
 1694 158c 1F2003D5 		.p2align 3,,7
 1695              	.L783:
 1696 1590 E00316AA 		mov	x0, x22
 1697 1594 D6220091 		add	x22, x22, 8
 1698              	.L605:
 1699 1598 00004079 		ldrh	w0, [x0]
 1700 159c F30315AA 		mov	x19, x21
 1701              	.L603:
AARCH64 GAS  C:\Users\RAFAEL~1.ROM\AppData\Local\Temp\ccH9DRWF.s 			page 31


 1702 15a0 7F040031 		cmn	w3, #1
 1703 15a4 63109F1A 		csel	w3, w3, wzr, ne
 1704 15a8 DA000014 		b	.L613
 1705              		.p2align 2,,3
 1706              	.L648:
 1707 15ac F30300AA 		mov	x19, x0
 1708 15b0 24008052 		mov	w4, 1
 1709 15b4 C0FFFF17 		b	.L804
 1710              		.p2align 2,,3
 1711              	.L557:
 1712 15b8 3FD00171 		cmp	w1, 116
 1713 15bc 60000054 		beq	.L560
 1714 15c0 3FE80171 		cmp	w1, 122
 1715 15c4 C11E0054 		bne	.L811
 1716              	.L560:
 1717 15c8 61064039 		ldrb	w1, [x19, 1]
 1718 15cc 750A0091 		add	x21, x19, 2
 1719 15d0 3FA40171 		cmp	w1, 105
 1720 15d4 00080054 		beq	.L576
 1721 15d8 49060054 		bls	.L812
 1722 15dc 3FD40171 		cmp	w1, 117
 1723 15e0 001C0054 		beq	.L666
 1724 15e4 A9010054 		bls	.L813
 1725 15e8 3FE00171 		cmp	w1, 120
 1726 15ec 40130054 		beq	.L643
 1727              		.p2align 3,,7
 1728              	.L568:
 1729 15f0 A0024039 		ldrb	w0, [x21]
 1730 15f4 1F940071 		cmp	w0, 37
 1731 15f8 81000054 		bne	.L625
 1732 15fc B5010014 		b	.L814
 1733              		.p2align 2,,3
 1734              	.L815:
 1735 1600 01F05F38 		ldrb	w1, [x0, -1]
 1736 1604 F50300AA 		mov	x21, x0
 1737              	.L625:
 1738 1608 3F940071 		cmp	w1, 37
 1739 160c A00600D1 		sub	x0, x21, #1
 1740 1610 81FFFF54 		bne	.L815
 1741 1614 38000014 		b	.L624
 1742              		.p2align 2,,3
 1743              	.L813:
 1744 1618 3FC00171 		cmp	w1, 112
 1745 161c 80150054 		beq	.L665
 1746              	.L792:
 1747 1620 3FCC0171 		cmp	w1, 115
 1748 1624 61FEFF54 		bne	.L568
 1749 1628 9722F837 		tbnz	w23, #31, .L617
 1750              	.L787:
 1751 162c E00316AA 		mov	x0, x22
 1752 1630 D6220091 		add	x22, x22, 8
 1753              	.L618:
 1754 1634 7F040031 		cmn	w3, #1
 1755 1638 130040F9 		ldr	x19, [x0]
 1756 163c 20230054 		beq	.L620
 1757 1640 C3010034 		cbz	w3, .L660
 1758 1644 79040051 		sub	w25, w3, #1
AARCH64 GAS  C:\Users\RAFAEL~1.ROM\AppData\Local\Temp\ccH9DRWF.s 			page 32


 1759 1648 39070091 		add	x25, x25, 1
 1760 164c 7902198B 		add	x25, x19, x25
 1761 1650 04000014 		b	.L621
 1762              		.p2align 2,,3
 1763              	.L623:
 1764 1654 00000094 		bl	hal_video_putc
 1765 1658 7F0219EB 		cmp	x19, x25
 1766 165c E0000054 		beq	.L660
 1767              	.L621:
 1768 1660 63024039 		ldrb	w3, [x19]
 1769 1664 02008012 		mov	w2, -1
 1770 1668 73060091 		add	x19, x19, 1
 1771 166c 21008052 		mov	w1, 1
 1772 1670 E003032A 		mov	w0, w3
 1773 1674 03FFFF35 		cbnz	w3, .L623
 1774              	.L660:
 1775 1678 F30315AA 		mov	x19, x21
 1776              	.L822:
 1777 167c 60024039 		ldrb	w0, [x19]
 1778 1680 E0EEFF35 		cbnz	w0, .L532
 1779 1684 1F2003D5 		.p2align 3,,7
 1780              	.L802:
 1781 1688 F76342A9 		ldp	x23, x24, [sp, 32]
 1782 168c F91B40F9 		ldr	x25, [sp, 48]
 1783              	.L531:
 1784 1690 F55B41A9 		ldp	x21, x22, [sp, 16]
 1785 1694 FE1F40F9 		ldr	x30, [sp, 56]
 1786 1698 F353D2A8 		ldp	x19, x20, [sp], 288
 1787 169c C0035FD6 		ret
 1788              		.p2align 2,,3
 1789              	.L812:
 1790 16a0 3F600171 		cmp	w1, 88
 1791 16a4 601C0054 		beq	.L641
 1792 16a8 29020054 		bls	.L797
 1793 16ac 3F8C0171 		cmp	w1, 99
 1794 16b0 E1000054 		bne	.L816
 1795              	.L569:
 1796 16b4 D71EF837 		tbnz	w23, #31, .L614
 1797              	.L786:
 1798 16b8 E00316AA 		mov	x0, x22
 1799 16bc D6220091 		add	x22, x22, 8
 1800              	.L615:
 1801 16c0 00004039 		ldrb	w0, [x0]
 1802 16c4 F30315AA 		mov	x19, x21
 1803 16c8 60FFFF17 		b	.L788
 1804              		.p2align 2,,3
 1805              	.L816:
 1806 16cc 3F900171 		cmp	w1, 100
 1807 16d0 01F9FF54 		bne	.L568
 1808              	.L576:
 1809 16d4 572BF837 		tbnz	w23, #31, .L593
 1810              		.p2align 3,,7
 1811              	.L780:
 1812 16d8 E00316AA 		mov	x0, x22
 1813 16dc D6220091 		add	x22, x22, 8
 1814              	.L594:
 1815 16e0 F30315AA 		mov	x19, x21
AARCH64 GAS  C:\Users\RAFAEL~1.ROM\AppData\Local\Temp\ccH9DRWF.s 			page 33


 1816 16e4 000040F9 		ldr	x0, [x0]
 1817 16e8 50000014 		b	.L586
 1818              		.p2align 2,,3
 1819              	.L797:
 1820 16ec 3F940071 		cmp	w1, 37
 1821 16f0 01F8FF54 		bne	.L568
 1822              	.L624:
 1823 16f4 F30315AA 		mov	x19, x21
 1824 16f8 02008012 		mov	w2, -1
 1825 16fc 21008052 		mov	w1, 1
 1826 1700 A0048052 		mov	w0, 37
 1827 1704 00000094 		bl	hal_video_putc
 1828 1708 53FFFF17 		b	.L534
 1829              		.p2align 2,,3
 1830              	.L537:
 1831 170c 3FB40071 		cmp	w1, 45
 1832 1710 C0000054 		beq	.L650
 1833 1714 3FC00071 		cmp	w1, 48
 1834 1718 E1EDFF54 		bne	.L538
 1835 171c F30300AA 		mov	x19, x0
 1836 1720 23008052 		mov	w3, 1
 1837 1724 64FFFF17 		b	.L804
 1838              		.p2align 2,,3
 1839              	.L650:
 1840 1728 F30300AA 		mov	x19, x0
 1841 172c 26008052 		mov	w6, 1
 1842 1730 61FFFF17 		b	.L804
 1843              		.p2align 2,,3
 1844              	.L807:
 1845 1734 61064039 		ldrb	w1, [x19, 1]
 1846 1738 3FA80071 		cmp	w1, 42
 1847 173c E1090054 		bne	.L817
 1848 1740 600A0091 		add	x0, x19, 2
 1849 1744 1722F837 		tbnz	w23, #31, .L553
 1850              	.L776:
 1851 1748 E10316AA 		mov	x1, x22
 1852 174c D6220091 		add	x22, x22, 8
 1853              	.L554:
 1854 1750 230040B9 		ldr	w3, [x1]
 1855 1754 750E0091 		add	x21, x19, 3
 1856 1758 610A4039 		ldrb	w1, [x19, 2]
 1857 175c F30300AA 		mov	x19, x0
 1858 1760 7F000071 		cmp	w3, 0
 1859 1764 63A09F1A 		csel	w3, w3, wzr, ge
 1860 1768 3FB00171 		cmp	w1, 108
 1861 176c A1EEFF54 		bne	.L818
 1862              		.p2align 3,,7
 1863              	.L556:
 1864 1770 61064039 		ldrb	w1, [x19, 1]
 1865 1774 3FB00171 		cmp	w1, 108
 1866 1778 60150054 		beq	.L819
 1867              	.L575:
 1868 177c B5060091 		add	x21, x21, 1
 1869 1780 3FC00171 		cmp	w1, 112
 1870 1784 400A0054 		beq	.L665
 1871 1788 E8050054 		bhi	.L640
 1872 178c 3F600171 		cmp	w1, 88
AARCH64 GAS  C:\Users\RAFAEL~1.ROM\AppData\Local\Temp\ccH9DRWF.s 			page 34


 1873 1790 00150054 		beq	.L641
 1874 1794 C9FAFF54 		bls	.L797
 1875 1798 3F8C0171 		cmp	w1, 99
 1876 179c C0F8FF54 		beq	.L569
 1877 17a0 3F880171 		cmp	w1, 98
 1878 17a4 69F2FF54 		bls	.L568
 1879 17a8 3F900171 		cmp	w1, 100
 1880 17ac 40F9FF54 		beq	.L576
 1881 17b0 3FA40171 		cmp	w1, 105
 1882 17b4 E1F1FF54 		bne	.L568
 1883 17b8 17F9FF36 		tbz	w23, #31, .L780
 1884 17bc 20010014 		b	.L593
 1885              		.p2align 2,,3
 1886              	.L805:
 1887 17c0 D707F837 		tbnz	w23, #31, .L545
 1888              	.L775:
 1889 17c4 E10316AA 		mov	x1, x22
 1890 17c8 D6220091 		add	x22, x22, 8
 1891              	.L546:
 1892 17cc 220040B9 		ldr	w2, [x1]
 1893 17d0 750A0091 		add	x21, x19, 2
 1894 17d4 61064039 		ldrb	w1, [x19, 1]
 1895 17d8 F30300AA 		mov	x19, x0
 1896 17dc 5F000071 		cmp	w2, 0
 1897 17e0 42A09F1A 		csel	w2, w2, wzr, ge
 1898 17e4 52FFFF17 		b	.L548
 1899              		.p2align 2,,3
 1900              	.L559:
 1901 17e8 3F600171 		cmp	w1, 88
 1902 17ec 00130054 		beq	.L635
 1903 17f0 E9F7FF54 		bls	.L797
 1904 17f4 3F8C0171 		cmp	w1, 99
 1905 17f8 E0F5FF54 		beq	.L569
 1906 17fc 3F880171 		cmp	w1, 98
 1907 1800 89EFFF54 		bls	.L568
 1908 1804 3F900171 		cmp	w1, 100
 1909 1808 60000054 		beq	.L637
 1910 180c 3FA40171 		cmp	w1, 105
 1911 1810 01EFFF54 		bne	.L568
 1912              	.L637:
 1913 1814 B720F837 		tbnz	w23, #31, .L590
 1914              	.L779:
 1915 1818 E00316AA 		mov	x0, x22
 1916 181c D6220091 		add	x22, x22, 8
 1917              	.L591:
 1918 1820 000080B9 		ldrsw	x0, [x0]
 1919 1824 F30315AA 		mov	x19, x21
 1920              	.L586:
 1921 1828 7F040031 		cmn	w3, #1
 1922 182c 84021B32 		orr	w4, w20, 32
 1923 1830 63109F1A 		csel	w3, w3, wzr, ne
 1924 1834 F403042A 		mov	w20, w4
 1925 1838 41018052 		mov	w1, 10
 1926 183c B5FAFF97 		bl	cprint_int.constprop.2
 1927 1840 05FFFF17 		b	.L534
 1928              		.p2align 2,,3
 1929              	.L640:
AARCH64 GAS  C:\Users\RAFAEL~1.ROM\AppData\Local\Temp\ccH9DRWF.s 			page 35


 1930 1844 3FD40171 		cmp	w1, 117
 1931 1848 C0080054 		beq	.L666
 1932 184c 3FE00171 		cmp	w1, 120
 1933 1850 81EEFF54 		bne	.L792
 1934              	.L643:
 1935 1854 94761B12 		and	w20, w20, -25
 1936 1858 01028052 		mov	w1, 16
 1937 185c 9402012A 		orr	w20, w20, w1
 1938 1860 3713F837 		tbnz	w23, #31, .L610
 1939              	.L785:
 1940 1864 E00316AA 		mov	x0, x22
 1941 1868 D6220091 		add	x22, x22, 8
 1942              	.L611:
 1943 186c F30315AA 		mov	x19, x21
 1944 1870 000040F9 		ldr	x0, [x0]
 1945 1874 4BFFFF17 		b	.L603
 1946              		.p2align 2,,3
 1947              	.L817:
 1948 1878 24C00051 		sub	w4, w1, #48
 1949 187c 03008052 		mov	w3, 0
 1950 1880 801C0012 		and	w0, w4, 255
 1951 1884 45018052 		mov	w5, 10
 1952 1888 1F240071 		cmp	w0, 9
 1953 188c E8200054 		bhi	.L820
 1954              		.p2align 3,,7
 1955              	.L552:
 1956 1890 E60315AA 		mov	x6, x21
 1957 1894 A11E4038 		ldrb	w1, [x21, 1]!
 1958 1898 6310051B 		madd	w3, w3, w5, w4
 1959 189c 24C00051 		sub	w4, w1, #48
 1960 18a0 801C0012 		and	w0, w4, 255
 1961 18a4 1F240071 		cmp	w0, 9
 1962 18a8 49FFFF54 		bls	.L552
 1963 18ac F30315AA 		mov	x19, x21
 1964 18b0 D5080091 		add	x21, x6, 2
 1965 18b4 21FFFF17 		b	.L550
 1966              		.p2align 2,,3
 1967              	.L545:
 1968 18b8 E2220011 		add	w2, w23, 8
 1969 18bc 5F000071 		cmp	w2, 0
 1970 18c0 4D0D0054 		ble	.L547
 1971 18c4 F703022A 		mov	w23, w2
 1972 18c8 BFFFFF17 		b	.L775
 1973              		.p2align 2,,3
 1974              	.L665:
 1975 18cc 00018052 		mov	w0, 8
 1976              	.L582:
 1977 18d0 94021E32 		orr	w20, w20, 4
 1978 18d4 7F040031 		cmn	w3, #1
 1979 18d8 010B8012 		mov	w1, -89
 1980 18dc 9402010A 		and	w20, w20, w1
 1981 18e0 6310981A 		csel	w3, w3, w24, ne
 1982 18e4 010A8052 		mov	w1, 80
 1983 18e8 1F080071 		cmp	w0, 2
 1984 18ec 9402012A 		orr	w20, w20, w1
 1985 18f0 20110054 		beq	.L821
 1986 18f4 1F100071 		cmp	w0, 4
AARCH64 GAS  C:\Users\RAFAEL~1.ROM\AppData\Local\Temp\ccH9DRWF.s 			page 36


 1987 18f8 80100054 		beq	.L667
 1988 18fc 1F200071 		cmp	w0, 8
 1989 1900 C0200054 		beq	.L668
 1990 1904 F30315AA 		mov	x19, x21
 1991 1908 01028052 		mov	w1, 16
 1992 190c 000080D2 		mov	x0, 0
 1993              	.L613:
 1994 1910 E403142A 		mov	w4, w20
 1995 1914 7FFAFF97 		bl	cprint_int.constprop.2
 1996 1918 CFFEFF17 		b	.L534
 1997              		.p2align 2,,3
 1998              	.L810:
 1999 191c 3FC00171 		cmp	w1, 112
 2000 1920 01E8FF54 		bne	.L792
 2001 1924 40008052 		mov	w0, 2
 2002 1928 EAFFFF17 		b	.L582
 2003              		.p2align 2,,3
 2004              	.L809:
 2005 192c 3F600171 		cmp	w1, 88
 2006 1930 E01A0054 		beq	.L629
 2007 1934 C9EDFF54 		bls	.L797
 2008 1938 3F8C0171 		cmp	w1, 99
 2009 193c C0EBFF54 		beq	.L569
 2010 1940 3F900171 		cmp	w1, 100
 2011 1944 61E5FF54 		bne	.L568
 2012              	.L627:
 2013 1948 7716F837 		tbnz	w23, #31, .L587
 2014              	.L778:
 2015 194c E00316AA 		mov	x0, x22
 2016 1950 D6220091 		add	x22, x22, 8
 2017              	.L588:
 2018 1954 00008079 		ldrsh	x0, [x0]
 2019 1958 F30315AA 		mov	x19, x21
 2020 195c B3FFFF17 		b	.L586
 2021              		.p2align 2,,3
 2022              	.L666:
 2023 1960 41018052 		mov	w1, 10
 2024 1964 17F8FF36 		tbz	w23, #31, .L785
 2025 1968 57000014 		b	.L610
 2026              		.p2align 2,,3
 2027              	.L806:
 2028 196c 45018052 		mov	w5, 10
 2029              		.p2align 3,,7
 2030              	.L549:
 2031 1970 01004039 		ldrb	w1, [x0]
 2032 1974 4210051B 		madd	w2, w2, w5, w4
 2033 1978 F50313AA 		mov	x21, x19
 2034 197c F30300AA 		mov	x19, x0
 2035 1980 24C00051 		sub	w4, w1, #48
 2036 1984 00040091 		add	x0, x0, 1
 2037 1988 831C0012 		and	w3, w4, 255
 2038 198c 7F240071 		cmp	w3, 9
 2039 1990 09FFFF54 		bls	.L549
 2040 1994 B50A0091 		add	x21, x21, 2
 2041 1998 E5FEFF17 		b	.L548
 2042              	.L811:
 2043 199c 3FC00171 		cmp	w1, 112
AARCH64 GAS  C:\Users\RAFAEL~1.ROM\AppData\Local\Temp\ccH9DRWF.s 			page 37


 2044 19a0 000B0054 		beq	.L663
 2045 19a4 29F2FF54 		bls	.L559
 2046 19a8 3FD40171 		cmp	w1, 117
 2047 19ac 600F0054 		beq	.L664
 2048 19b0 3FE00171 		cmp	w1, 120
 2049 19b4 61E3FF54 		bne	.L792
 2050 19b8 94761B12 		and	w20, w20, -25
 2051 19bc 01028052 		mov	w1, 16
 2052 19c0 9402012A 		orr	w20, w20, w1
 2053 19c4 5709F837 		tbnz	w23, #31, .L607
 2054              		.p2align 3,,7
 2055              	.L784:
 2056 19c8 E00316AA 		mov	x0, x22
 2057 19cc D6220091 		add	x22, x22, 8
 2058              	.L608:
 2059 19d0 000040B9 		ldr	w0, [x0]
 2060 19d4 F30315AA 		mov	x19, x21
 2061 19d8 F2FEFF17 		b	.L603
 2062              		.p2align 2,,3
 2063              	.L808:
 2064 19dc 610A4039 		ldrb	w1, [x19, 2]
 2065 19e0 750E0091 		add	x21, x19, 3
 2066 19e4 3FA40171 		cmp	w1, 105
 2067 19e8 20010054 		beq	.L563
 2068 19ec A8090054 		bhi	.L564
 2069 19f0 3F600171 		cmp	w1, 88
 2070 19f4 600A0054 		beq	.L781
 2071 19f8 A9E7FF54 		bls	.L797
 2072 19fc 3F8C0171 		cmp	w1, 99
 2073 1a00 A0E5FF54 		beq	.L569
 2074 1a04 3F900171 		cmp	w1, 100
 2075 1a08 41DFFF54 		bne	.L568
 2076              	.L563:
 2077 1a0c 3712F837 		tbnz	w23, #31, .L583
 2078              	.L777:
 2079 1a10 E00316AA 		mov	x0, x22
 2080 1a14 D6220091 		add	x22, x22, 8
 2081              	.L584:
 2082 1a18 00008039 		ldrsb	x0, [x0]
 2083 1a1c F30315AA 		mov	x19, x21
 2084 1a20 82FFFF17 		b	.L586
 2085              		.p2align 2,,3
 2086              	.L819:
 2087 1a24 610A4039 		ldrb	w1, [x19, 2]
 2088 1a28 750A0091 		add	x21, x19, 2
 2089 1a2c 54FFFF17 		b	.L575
 2090              		.p2align 2,,3
 2091              	.L641:
 2092 1a30 000B8012 		mov	w0, -89
 2093 1a34 9402000A 		and	w20, w20, w0
 2094 1a38 01028052 		mov	w1, 16
 2095 1a3c 000A8052 		mov	w0, 80
 2096 1a40 9402002A 		orr	w20, w20, w0
 2097 1a44 17F1FF36 		tbz	w23, #31, .L785
 2098 1a48 1F000014 		b	.L610
 2099              		.p2align 2,,3
 2100              	.L635:
AARCH64 GAS  C:\Users\RAFAEL~1.ROM\AppData\Local\Temp\ccH9DRWF.s 			page 38


 2101 1a4c 000B8012 		mov	w0, -89
 2102 1a50 9402000A 		and	w20, w20, w0
 2103 1a54 01028052 		mov	w1, 16
 2104 1a58 000A8052 		mov	w0, 80
 2105 1a5c 9402002A 		orr	w20, w20, w0
 2106 1a60 57FBFF36 		tbz	w23, #31, .L784
 2107 1a64 22000014 		b	.L607
 2108              		.p2align 2,,3
 2109              	.L547:
 2110 1a68 E1830491 		add	x1, sp, 288
 2111 1a6c 21C0378B 		add	x1, x1, x23, sxtw
 2112 1a70 F703022A 		mov	w23, w2
 2113 1a74 56FFFF17 		b	.L546
 2114              		.p2align 2,,3
 2115              	.L617:
 2116 1a78 E1220011 		add	w1, w23, 8
 2117 1a7c 3F000071 		cmp	w1, 0
 2118 1a80 ED0F0054 		ble	.L619
 2119 1a84 F703012A 		mov	w23, w1
 2120 1a88 E9FEFF17 		b	.L787
 2121              		.p2align 2,,3
 2122              	.L614:
 2123 1a8c E1220011 		add	w1, w23, 8
 2124 1a90 3F000071 		cmp	w1, 0
 2125 1a94 CD0E0054 		ble	.L616
 2126 1a98 F703012A 		mov	w23, w1
 2127 1a9c 07FFFF17 		b	.L786
 2128              		.p2align 2,,3
 2129              	.L620:
 2130 1aa0 60024039 		ldrb	w0, [x19]
 2131 1aa4 A0DEFF34 		cbz	w0, .L660
 2132              		.p2align 3,,7
 2133              	.L622:
 2134 1aa8 02008012 		mov	w2, -1
 2135 1aac 21008052 		mov	w1, 1
 2136 1ab0 00000094 		bl	hal_video_putc
 2137 1ab4 601E4038 		ldrb	w0, [x19, 1]!
 2138 1ab8 80FFFF35 		cbnz	w0, .L622
 2139 1abc F30315AA 		mov	x19, x21
 2140 1ac0 EFFEFF17 		b	.L822
 2141              		.p2align 2,,3
 2142              	.L610:
 2143 1ac4 E4220011 		add	w4, w23, 8
 2144 1ac8 9F000071 		cmp	w4, 0
 2145 1acc 4D090054 		ble	.L612
 2146 1ad0 F703042A 		mov	w23, w4
 2147 1ad4 64FFFF17 		b	.L785
 2148              		.p2align 2,,3
 2149              	.L604:
 2150 1ad8 E4220011 		add	w4, w23, 8
 2151 1adc 9F000071 		cmp	w4, 0
 2152 1ae0 2D080054 		ble	.L606
 2153 1ae4 F703042A 		mov	w23, w4
 2154 1ae8 AAFEFF17 		b	.L783
 2155              		.p2align 2,,3
 2156              	.L607:
 2157 1aec E4220011 		add	w4, w23, 8
AARCH64 GAS  C:\Users\RAFAEL~1.ROM\AppData\Local\Temp\ccH9DRWF.s 			page 39


 2158 1af0 9F000071 		cmp	w4, 0
 2159 1af4 0D070054 		ble	.L609
 2160 1af8 F703042A 		mov	w23, w4
 2161 1afc B3FFFF17 		b	.L784
 2162              		.p2align 2,,3
 2163              	.L663:
 2164 1b00 80008052 		mov	w0, 4
 2165 1b04 73FFFF17 		b	.L582
 2166              		.p2align 2,,3
 2167              	.L667:
 2168 1b08 01028052 		mov	w1, 16
 2169 1b0c F7F5FF36 		tbz	w23, #31, .L784
 2170 1b10 F7FFFF17 		b	.L607
 2171              		.p2align 2,,3
 2172              	.L821:
 2173 1b14 01028052 		mov	w1, 16
 2174 1b18 D7D3FF36 		tbz	w23, #31, .L783
 2175 1b1c EFFFFF17 		b	.L604
 2176              		.p2align 2,,3
 2177              	.L564:
 2178 1b20 3FD40171 		cmp	w1, 117
 2179 1b24 000A0054 		beq	.L655
 2180 1b28 28020054 		bhi	.L571
 2181 1b2c 3FC00171 		cmp	w1, 112
 2182 1b30 81D7FF54 		bne	.L792
 2183 1b34 94021E32 		orr	w20, w20, 4
 2184 1b38 7F040031 		cmn	w3, #1
 2185 1b3c C00B0054 		beq	.L644
 2186              	.L781:
 2187 1b40 000B8012 		mov	w0, -89
 2188 1b44 9402000A 		and	w20, w20, w0
 2189 1b48 000A8052 		mov	w0, 80
 2190 1b4c 9402002A 		orr	w20, w20, w0
 2191 1b50 01028052 		mov	w1, 16
 2192              	.L570:
 2193 1b54 F702F837 		tbnz	w23, #31, .L600
 2194              	.L782:
 2195 1b58 E00316AA 		mov	x0, x22
 2196 1b5c D6220091 		add	x22, x22, 8
 2197              	.L601:
 2198 1b60 00004039 		ldrb	w0, [x0]
 2199 1b64 F30315AA 		mov	x19, x21
 2200 1b68 8EFEFF17 		b	.L603
 2201              		.p2align 2,,3
 2202              	.L571:
 2203 1b6c 3FE00171 		cmp	w1, 120
 2204 1b70 01D4FF54 		bne	.L568
 2205 1b74 94761B12 		and	w20, w20, -25
 2206 1b78 01028052 		mov	w1, 16
 2207 1b7c 9402012A 		orr	w20, w20, w1
 2208 1b80 F5FFFF17 		b	.L570
 2209              		.p2align 2,,3
 2210              	.L553:
 2211 1b84 E3220011 		add	w3, w23, 8
 2212 1b88 7F000071 		cmp	w3, 0
 2213 1b8c CD010054 		ble	.L555
 2214 1b90 F703032A 		mov	w23, w3
AARCH64 GAS  C:\Users\RAFAEL~1.ROM\AppData\Local\Temp\ccH9DRWF.s 			page 40


 2215 1b94 EDFEFF17 		b	.L776
 2216              		.p2align 2,,3
 2217              	.L664:
 2218 1b98 41018052 		mov	w1, 10
 2219 1b9c 77F1FF36 		tbz	w23, #31, .L784
 2220 1ba0 D3FFFF17 		b	.L607
 2221              		.p2align 2,,3
 2222              	.L661:
 2223 1ba4 41018052 		mov	w1, 10
 2224 1ba8 57CFFF36 		tbz	w23, #31, .L783
 2225 1bac CBFFFF17 		b	.L604
 2226              		.p2align 2,,3
 2227              	.L600:
 2228 1bb0 E4220011 		add	w4, w23, 8
 2229 1bb4 9F000071 		cmp	w4, 0
 2230 1bb8 6D020054 		ble	.L602
 2231 1bbc F703042A 		mov	w23, w4
 2232 1bc0 E6FFFF17 		b	.L782
 2233              		.p2align 2,,3
 2234              	.L555:
 2235 1bc4 E1830491 		add	x1, sp, 288
 2236 1bc8 21C0378B 		add	x1, x1, x23, sxtw
 2237 1bcc F703032A 		mov	w23, w3
 2238 1bd0 E0FEFF17 		b	.L554
 2239              		.p2align 2,,3
 2240              	.L609:
 2241 1bd4 E0830491 		add	x0, sp, 288
 2242 1bd8 00C0378B 		add	x0, x0, x23, sxtw
 2243 1bdc F703042A 		mov	w23, w4
 2244 1be0 7CFFFF17 		b	.L608
 2245              		.p2align 2,,3
 2246              	.L606:
 2247 1be4 E0830491 		add	x0, sp, 288
 2248 1be8 00C0378B 		add	x0, x0, x23, sxtw
 2249 1bec F703042A 		mov	w23, w4
 2250 1bf0 6AFEFF17 		b	.L605
 2251              		.p2align 2,,3
 2252              	.L612:
 2253 1bf4 E0830491 		add	x0, sp, 288
 2254 1bf8 00C0378B 		add	x0, x0, x23, sxtw
 2255 1bfc F703042A 		mov	w23, w4
 2256 1c00 1BFFFF17 		b	.L611
 2257              		.p2align 2,,3
 2258              	.L602:
 2259 1c04 E0830491 		add	x0, sp, 288
 2260 1c08 00C0378B 		add	x0, x0, x23, sxtw
 2261 1c0c F703042A 		mov	w23, w4
 2262 1c10 D4FFFF17 		b	.L601
 2263              		.p2align 2,,3
 2264              	.L587:
 2265 1c14 E1220011 		add	w1, w23, 8
 2266 1c18 3F000071 		cmp	w1, 0
 2267 1c1c ED060054 		ble	.L589
 2268 1c20 F703012A 		mov	w23, w1
 2269 1c24 4AFFFF17 		b	.L778
 2270              		.p2align 2,,3
 2271              	.L590:
AARCH64 GAS  C:\Users\RAFAEL~1.ROM\AppData\Local\Temp\ccH9DRWF.s 			page 41


 2272 1c28 E1220011 		add	w1, w23, 8
 2273 1c2c 3F000071 		cmp	w1, 0
 2274 1c30 CD060054 		ble	.L592
 2275 1c34 F703012A 		mov	w23, w1
 2276 1c38 F8FEFF17 		b	.L779
 2277              		.p2align 2,,3
 2278              	.L593:
 2279 1c3c E1220011 		add	w1, w23, 8
 2280 1c40 3F000071 		cmp	w1, 0
 2281 1c44 2D050054 		ble	.L595
 2282 1c48 F703012A 		mov	w23, w1
 2283 1c4c A3FEFF17 		b	.L780
 2284              		.p2align 2,,3
 2285              	.L583:
 2286 1c50 E1220011 		add	w1, w23, 8
 2287 1c54 3F000071 		cmp	w1, 0
 2288 1c58 0D040054 		ble	.L585
 2289 1c5c F703012A 		mov	w23, w1
 2290 1c60 6CFFFF17 		b	.L777
 2291              		.p2align 2,,3
 2292              	.L655:
 2293 1c64 41018052 		mov	w1, 10
 2294 1c68 BBFFFF17 		b	.L570
 2295              		.p2align 2,,3
 2296              	.L616:
 2297 1c6c E0830491 		add	x0, sp, 288
 2298 1c70 00C0378B 		add	x0, x0, x23, sxtw
 2299 1c74 F703012A 		mov	w23, w1
 2300 1c78 92FEFF17 		b	.L615
 2301              		.p2align 2,,3
 2302              	.L619:
 2303 1c7c E0830491 		add	x0, sp, 288
 2304 1c80 00C0378B 		add	x0, x0, x23, sxtw
 2305 1c84 F703012A 		mov	w23, w1
 2306 1c88 6BFEFF17 		b	.L618
 2307              		.p2align 2,,3
 2308              	.L629:
 2309 1c8c 000B8012 		mov	w0, -89
 2310 1c90 9402000A 		and	w20, w20, w0
 2311 1c94 01028052 		mov	w1, 16
 2312 1c98 000A8052 		mov	w0, 80
 2313 1c9c 9402002A 		orr	w20, w20, w0
 2314 1ca0 97C7FF36 		tbz	w23, #31, .L783
 2315 1ca4 8DFFFF17 		b	.L604
 2316              		.p2align 2,,3
 2317              	.L820:
 2318 1ca8 F30315AA 		mov	x19, x21
 2319 1cac B5060091 		add	x21, x21, 1
 2320 1cb0 22FEFF17 		b	.L550
 2321              		.p2align 2,,3
 2322              	.L644:
 2323 1cb4 000B8012 		mov	w0, -89
 2324 1cb8 9402000A 		and	w20, w20, w0
 2325 1cbc 01028052 		mov	w1, 16
 2326 1cc0 000A8052 		mov	w0, 80
 2327 1cc4 E303012A 		mov	w3, w1
 2328 1cc8 9402002A 		orr	w20, w20, w0
AARCH64 GAS  C:\Users\RAFAEL~1.ROM\AppData\Local\Temp\ccH9DRWF.s 			page 42


 2329 1ccc A2FFFF17 		b	.L570
 2330              		.p2align 2,,3
 2331              	.L814:
 2332 1cd0 B5060091 		add	x21, x21, 1
 2333 1cd4 88FEFF17 		b	.L624
 2334              	.L585:
 2335 1cd8 E0830491 		add	x0, sp, 288
 2336 1cdc 00C0378B 		add	x0, x0, x23, sxtw
 2337 1ce0 F703012A 		mov	w23, w1
 2338 1ce4 4DFFFF17 		b	.L584
 2339              	.L595:
 2340 1ce8 E0830491 		add	x0, sp, 288
 2341 1cec 00C0378B 		add	x0, x0, x23, sxtw
 2342 1cf0 F703012A 		mov	w23, w1
 2343 1cf4 7BFEFF17 		b	.L594
 2344              	.L589:
 2345 1cf8 E0830491 		add	x0, sp, 288
 2346 1cfc 00C0378B 		add	x0, x0, x23, sxtw
 2347 1d00 F703012A 		mov	w23, w1
 2348 1d04 14FFFF17 		b	.L588
 2349              	.L592:
 2350 1d08 E0830491 		add	x0, sp, 288
 2351 1d0c 00C0378B 		add	x0, x0, x23, sxtw
 2352 1d10 F703012A 		mov	w23, w1
 2353 1d14 C3FEFF17 		b	.L591
 2354              	.L668:
 2355 1d18 01028052 		mov	w1, 16
 2356 1d1c 57DAFF36 		tbz	w23, #31, .L785
 2357 1d20 69FFFF17 		b	.L610
 2358              		.size	kprintf, .-kprintf
 2359              		.align	2
 2360 1d24 1F2003D5 		.p2align 4,,15
 2360      1F2003D5 
 2360      1F2003D5 
 2361              		.global	kprintf_debug
 2362              		.type	kprintf_debug, %function
 2363              	kprintf_debug:
 2364 1d30 F353AEA9 		stp	x19, x20, [sp, -288]!
 2365 1d34 F30300AA 		mov	x19, x0
 2366 1d38 E80F8012 		mov	w8, -128
 2367 1d3c F55B01A9 		stp	x21, x22, [sp, 16]
 2368 1d40 E9830391 		add	x9, sp, 224
 2369 1d44 F6830491 		add	x22, sp, 288
 2370 1d48 FE1F00F9 		str	x30, [sp, 56]
 2371 1d4c E0068012 		mov	w0, -56
 2372 1d50 E01B803D 		str	q0, [sp, 96]
 2373 1d54 E11F803D 		str	q1, [sp, 112]
 2374 1d58 E223803D 		str	q2, [sp, 128]
 2375 1d5c E327803D 		str	q3, [sp, 144]
 2376 1d60 E42B803D 		str	q4, [sp, 160]
 2377 1d64 E52F803D 		str	q5, [sp, 176]
 2378 1d68 E633803D 		str	q6, [sp, 192]
 2379 1d6c E737803D 		str	q7, [sp, 208]
 2380 1d70 E18B0EA9 		stp	x1, x2, [sp, 232]
 2381 1d74 E3930FA9 		stp	x3, x4, [sp, 248]
 2382 1d78 E59B10A9 		stp	x5, x6, [sp, 264]
 2383 1d7c E78F00F9 		str	x7, [sp, 280]
AARCH64 GAS  C:\Users\RAFAEL~1.ROM\AppData\Local\Temp\ccH9DRWF.s 			page 43


 2384 1d80 F65B04A9 		stp	x22, x22, [sp, 64]
 2385 1d84 61024039 		ldrb	w1, [x19]
 2386 1d88 E92B00F9 		str	x9, [sp, 80]
 2387 1d8c E0230B29 		stp	w0, w8, [sp, 88]
 2388 1d90 C1120034 		cbz	w1, .L823
 2389 1d94 F76302A9 		stp	x23, x24, [sp, 32]
 2390 1d98 F703002A 		mov	w23, w0
 2391 1d9c 18028052 		mov	w24, 16
 2392 1da0 F91B00F9 		str	x25, [sp, 48]
 2393 1da4 05000014 		b	.L824
 2394              		.p2align 2,,3
 2395              	.L1080:
 2396 1da8 00008052 		mov	w0, 0
 2397 1dac 00000094 		bl	hal_io_serial_putc
 2398              	.L826:
 2399 1db0 61024039 		ldrb	w1, [x19]
 2400 1db4 61110034 		cbz	w1, .L1094
 2401              	.L824:
 2402 1db8 73060091 		add	x19, x19, 1
 2403 1dbc 3F940071 		cmp	w1, 37
 2404 1dc0 41FFFF54 		bne	.L1080
 2405 1dc4 61024039 		ldrb	w1, [x19]
 2406 1dc8 60060091 		add	x0, x19, 1
 2407 1dcc 82621912 		and	w2, w20, -128
 2408 1dd0 F50300AA 		mov	x21, x0
 2409 1dd4 F403022A 		mov	w20, w2
 2410 1dd8 3FAC0071 		cmp	w1, 43
 2411 1ddc 03008052 		mov	w3, 0
 2412 1de0 04008052 		mov	w4, 0
 2413 1de4 05008052 		mov	w5, 0
 2414 1de8 06008052 		mov	w6, 0
 2415 1dec 07008052 		mov	w7, 0
 2416 1df0 C0010054 		beq	.L939
 2417 1df4 1F2003D5 		.p2align 3,,7
 2418              	.L1095:
 2419 1df8 48130054 		bhi	.L829
 2420 1dfc 3F800071 		cmp	w1, 32
 2421 1e00 60080054 		beq	.L940
 2422 1e04 3F8C0071 		cmp	w1, 35
 2423 1e08 61010054 		bne	.L830
 2424 1e0c F30300AA 		mov	x19, x0
 2425 1e10 25008052 		mov	w5, 1
 2426              	.L1096:
 2427 1e14 61024039 		ldrb	w1, [x19]
 2428 1e18 60060091 		add	x0, x19, 1
 2429 1e1c F50300AA 		mov	x21, x0
 2430 1e20 3FAC0071 		cmp	w1, 43
 2431 1e24 A1FEFF54 		bne	.L1095
 2432              	.L939:
 2433 1e28 F30300AA 		mov	x19, x0
 2434 1e2c 27008052 		mov	w7, 1
 2435 1e30 F9FFFF17 		b	.L1096
 2436              	.L830:
 2437 1e34 42000032 		orr	w2, w2, 1
 2438 1e38 FF000071 		cmp	w7, 0
 2439 1e3c 9402821A 		csel	w20, w20, w2, eq
 2440 1e40 DF000071 		cmp	w6, 0
AARCH64 GAS  C:\Users\RAFAEL~1.ROM\AppData\Local\Temp\ccH9DRWF.s 			page 44


 2441 1e44 82021F32 		orr	w2, w20, 2
 2442 1e48 9402821A 		csel	w20, w20, w2, eq
 2443 1e4c BF000071 		cmp	w5, 0
 2444 1e50 82021E32 		orr	w2, w20, 4
 2445 1e54 9402821A 		csel	w20, w20, w2, eq
 2446 1e58 9F000071 		cmp	w4, 0
 2447 1e5c 82021D32 		orr	w2, w20, 8
 2448 1e60 9402821A 		csel	w20, w20, w2, eq
 2449 1e64 7F000071 		cmp	w3, 0
 2450 1e68 82021C32 		orr	w2, w20, 16
 2451 1e6c 9402821A 		csel	w20, w20, w2, eq
 2452 1e70 3FA80071 		cmp	w1, 42
 2453 1e74 20150054 		beq	.L1097
 2454 1e78 24C00051 		sub	w4, w1, #48
 2455 1e7c 02008052 		mov	w2, 0
 2456 1e80 831C0012 		and	w3, w4, 255
 2457 1e84 7F240071 		cmp	w3, 9
 2458 1e88 E9210054 		bls	.L1098
 2459              	.L840:
 2460 1e8c 3FB80071 		cmp	w1, 46
 2461 1e90 03008012 		mov	w3, -1
 2462 1e94 A00F0054 		beq	.L1099
 2463              	.L842:
 2464 1e98 3FB00171 		cmp	w1, 108
 2465 1e9c 60110054 		beq	.L848
 2466              	.L1110:
 2467 1ea0 C8030054 		bhi	.L849
 2468 1ea4 3FA00171 		cmp	w1, 104
 2469 1ea8 C1140054 		bne	.L851
 2470 1eac 61064039 		ldrb	w1, [x19, 1]
 2471 1eb0 3FA00171 		cmp	w1, 104
 2472 1eb4 00240054 		beq	.L1100
 2473 1eb8 750A0091 		add	x21, x19, 2
 2474 1ebc 3FA40171 		cmp	w1, 105
 2475 1ec0 001F0054 		beq	.L919
 2476 1ec4 091E0054 		bls	.L1101
 2477 1ec8 3FD40171 		cmp	w1, 117
 2478 1ecc 60310054 		beq	.L953
 2479 1ed0 291D0054 		bls	.L1102
 2480 1ed4 3FE00171 		cmp	w1, 120
 2481 1ed8 C1030054 		bne	.L860
 2482 1edc 94761B12 		and	w20, w20, -25
 2483 1ee0 01028052 		mov	w1, 16
 2484 1ee4 9402012A 		orr	w20, w20, w1
 2485 1ee8 372AF837 		tbnz	w23, #31, .L896
 2486 1eec 1F2003D5 		.p2align 3,,7
 2487              	.L1075:
 2488 1ef0 E00316AA 		mov	x0, x22
 2489 1ef4 D6220091 		add	x22, x22, 8
 2490              	.L897:
 2491 1ef8 00004079 		ldrh	w0, [x0]
 2492 1efc F30315AA 		mov	x19, x21
 2493              	.L895:
 2494 1f00 7F040031 		cmn	w3, #1
 2495 1f04 63109F1A 		csel	w3, w3, wzr, ne
 2496 1f08 D8000014 		b	.L905
 2497              		.p2align 2,,3
AARCH64 GAS  C:\Users\RAFAEL~1.ROM\AppData\Local\Temp\ccH9DRWF.s 			page 45


 2498              	.L940:
 2499 1f0c F30300AA 		mov	x19, x0
 2500 1f10 24008052 		mov	w4, 1
 2501 1f14 C0FFFF17 		b	.L1096
 2502              		.p2align 2,,3
 2503              	.L849:
 2504 1f18 3FD00171 		cmp	w1, 116
 2505 1f1c 60000054 		beq	.L852
 2506 1f20 3FE80171 		cmp	w1, 122
 2507 1f24 811E0054 		bne	.L1103
 2508              	.L852:
 2509 1f28 61064039 		ldrb	w1, [x19, 1]
 2510 1f2c 750A0091 		add	x21, x19, 2
 2511 1f30 3FA40171 		cmp	w1, 105
 2512 1f34 00080054 		beq	.L868
 2513 1f38 09060054 		bls	.L1104
 2514 1f3c 3FD40171 		cmp	w1, 117
 2515 1f40 C01B0054 		beq	.L958
 2516 1f44 A9010054 		bls	.L1105
 2517 1f48 3FE00171 		cmp	w1, 120
 2518 1f4c 00130054 		beq	.L935
 2519              		.p2align 3,,7
 2520              	.L860:
 2521 1f50 A0024039 		ldrb	w0, [x21]
 2522 1f54 1F940071 		cmp	w0, 37
 2523 1f58 81000054 		bne	.L917
 2524 1f5c B2010014 		b	.L1106
 2525              		.p2align 2,,3
 2526              	.L1107:
 2527 1f60 01F05F38 		ldrb	w1, [x0, -1]
 2528 1f64 F50300AA 		mov	x21, x0
 2529              	.L917:
 2530 1f68 3F940071 		cmp	w1, 37
 2531 1f6c A00600D1 		sub	x0, x21, #1
 2532 1f70 81FFFF54 		bne	.L1107
 2533 1f74 38000014 		b	.L916
 2534              		.p2align 2,,3
 2535              	.L1105:
 2536 1f78 3FC00171 		cmp	w1, 112
 2537 1f7c 40150054 		beq	.L957
 2538              	.L1084:
 2539 1f80 3FCC0171 		cmp	w1, 115
 2540 1f84 61FEFF54 		bne	.L860
 2541 1f88 5722F837 		tbnz	w23, #31, .L909
 2542              	.L1079:
 2543 1f8c E00316AA 		mov	x0, x22
 2544 1f90 D6220091 		add	x22, x22, 8
 2545              	.L910:
 2546 1f94 7F040031 		cmn	w3, #1
 2547 1f98 130040F9 		ldr	x19, [x0]
 2548 1f9c E0220054 		beq	.L912
 2549 1fa0 A3010034 		cbz	w3, .L952
 2550 1fa4 79040051 		sub	w25, w3, #1
 2551 1fa8 39070091 		add	x25, x25, 1
 2552 1fac 7902198B 		add	x25, x19, x25
 2553 1fb0 04000014 		b	.L913
 2554              		.p2align 2,,3
AARCH64 GAS  C:\Users\RAFAEL~1.ROM\AppData\Local\Temp\ccH9DRWF.s 			page 46


 2555              	.L915:
 2556 1fb4 00000094 		bl	hal_io_serial_putc
 2557 1fb8 7F0219EB 		cmp	x19, x25
 2558 1fbc C0000054 		beq	.L952
 2559              	.L913:
 2560 1fc0 62024039 		ldrb	w2, [x19]
 2561 1fc4 00008052 		mov	w0, 0
 2562 1fc8 73060091 		add	x19, x19, 1
 2563 1fcc E103022A 		mov	w1, w2
 2564 1fd0 22FFFF35 		cbnz	w2, .L915
 2565              	.L952:
 2566 1fd4 F30315AA 		mov	x19, x21
 2567              	.L1114:
 2568 1fd8 61024039 		ldrb	w1, [x19]
 2569 1fdc E1EEFF35 		cbnz	w1, .L824
 2570              		.p2align 3,,7
 2571              	.L1094:
 2572 1fe0 F76342A9 		ldp	x23, x24, [sp, 32]
 2573 1fe4 F91B40F9 		ldr	x25, [sp, 48]
 2574              	.L823:
 2575 1fe8 F55B41A9 		ldp	x21, x22, [sp, 16]
 2576 1fec FE1F40F9 		ldr	x30, [sp, 56]
 2577 1ff0 F353D2A8 		ldp	x19, x20, [sp], 288
 2578 1ff4 C0035FD6 		ret
 2579              		.p2align 2,,3
 2580              	.L1104:
 2581 1ff8 3F600171 		cmp	w1, 88
 2582 1ffc 601C0054 		beq	.L933
 2583 2000 69020054 		bls	.L1089
 2584 2004 3F8C0171 		cmp	w1, 99
 2585 2008 21010054 		bne	.L1108
 2586              	.L861:
 2587 200c D71EF837 		tbnz	w23, #31, .L906
 2588              	.L1078:
 2589 2010 E00316AA 		mov	x0, x22
 2590 2014 D6220091 		add	x22, x22, 8
 2591              	.L907:
 2592 2018 01004039 		ldrb	w1, [x0]
 2593 201c F30315AA 		mov	x19, x21
 2594 2020 00008052 		mov	w0, 0
 2595 2024 00000094 		bl	hal_io_serial_putc
 2596 2028 62FFFF17 		b	.L826
 2597              		.p2align 2,,3
 2598              	.L1108:
 2599 202c 3F900171 		cmp	w1, 100
 2600 2030 01F9FF54 		bne	.L860
 2601              	.L868:
 2602 2034 F72AF837 		tbnz	w23, #31, .L885
 2603              		.p2align 3,,7
 2604              	.L1072:
 2605 2038 E00316AA 		mov	x0, x22
 2606 203c D6220091 		add	x22, x22, 8
 2607              	.L886:
 2608 2040 F30315AA 		mov	x19, x21
 2609 2044 000040F9 		ldr	x0, [x0]
 2610 2048 4E000014 		b	.L878
 2611              		.p2align 2,,3
AARCH64 GAS  C:\Users\RAFAEL~1.ROM\AppData\Local\Temp\ccH9DRWF.s 			page 47


 2612              	.L1089:
 2613 204c 3F940071 		cmp	w1, 37
 2614 2050 01F8FF54 		bne	.L860
 2615              	.L916:
 2616 2054 F30315AA 		mov	x19, x21
 2617 2058 A1048052 		mov	w1, 37
 2618 205c 53FFFF17 		b	.L1080
 2619              		.p2align 2,,3
 2620              	.L829:
 2621 2060 3FB40071 		cmp	w1, 45
 2622 2064 C0000054 		beq	.L942
 2623 2068 3FC00071 		cmp	w1, 48
 2624 206c 41EEFF54 		bne	.L830
 2625 2070 F30300AA 		mov	x19, x0
 2626 2074 23008052 		mov	w3, 1
 2627 2078 67FFFF17 		b	.L1096
 2628              		.p2align 2,,3
 2629              	.L942:
 2630 207c F30300AA 		mov	x19, x0
 2631 2080 26008052 		mov	w6, 1
 2632 2084 64FFFF17 		b	.L1096
 2633              		.p2align 2,,3
 2634              	.L1099:
 2635 2088 61064039 		ldrb	w1, [x19, 1]
 2636 208c 3FA80071 		cmp	w1, 42
 2637 2090 010A0054 		bne	.L1109
 2638 2094 600A0091 		add	x0, x19, 2
 2639 2098 1722F837 		tbnz	w23, #31, .L845
 2640              	.L1068:
 2641 209c E10316AA 		mov	x1, x22
 2642 20a0 D6220091 		add	x22, x22, 8
 2643              	.L846:
 2644 20a4 230040B9 		ldr	w3, [x1]
 2645 20a8 750E0091 		add	x21, x19, 3
 2646 20ac 610A4039 		ldrb	w1, [x19, 2]
 2647 20b0 F30300AA 		mov	x19, x0
 2648 20b4 7F000071 		cmp	w3, 0
 2649 20b8 63A09F1A 		csel	w3, w3, wzr, ge
 2650 20bc 3FB00171 		cmp	w1, 108
 2651 20c0 01EFFF54 		bne	.L1110
 2652 20c4 1F2003D5 		.p2align 3,,7
 2653              	.L848:
 2654 20c8 61064039 		ldrb	w1, [x19, 1]
 2655 20cc 3FB00171 		cmp	w1, 108
 2656 20d0 60150054 		beq	.L1111
 2657              	.L867:
 2658 20d4 B5060091 		add	x21, x21, 1
 2659 20d8 3FC00171 		cmp	w1, 112
 2660 20dc 400A0054 		beq	.L957
 2661 20e0 E8050054 		bhi	.L932
 2662 20e4 3F600171 		cmp	w1, 88
 2663 20e8 00150054 		beq	.L933
 2664 20ec 09FBFF54 		bls	.L1089
 2665 20f0 3F8C0171 		cmp	w1, 99
 2666 20f4 C0F8FF54 		beq	.L861
 2667 20f8 3F880171 		cmp	w1, 98
 2668 20fc A9F2FF54 		bls	.L860
AARCH64 GAS  C:\Users\RAFAEL~1.ROM\AppData\Local\Temp\ccH9DRWF.s 			page 48


 2669 2100 3F900171 		cmp	w1, 100
 2670 2104 80F9FF54 		beq	.L868
 2671 2108 3FA40171 		cmp	w1, 105
 2672 210c 21F2FF54 		bne	.L860
 2673 2110 57F9FF36 		tbz	w23, #31, .L1072
 2674 2114 1F010014 		b	.L885
 2675              		.p2align 2,,3
 2676              	.L1097:
 2677 2118 D707F837 		tbnz	w23, #31, .L837
 2678              	.L1067:
 2679 211c E10316AA 		mov	x1, x22
 2680 2120 D6220091 		add	x22, x22, 8
 2681              	.L838:
 2682 2124 220040B9 		ldr	w2, [x1]
 2683 2128 750A0091 		add	x21, x19, 2
 2684 212c 61064039 		ldrb	w1, [x19, 1]
 2685 2130 F30300AA 		mov	x19, x0
 2686 2134 5F000071 		cmp	w2, 0
 2687 2138 42A09F1A 		csel	w2, w2, wzr, ge
 2688 213c 54FFFF17 		b	.L840
 2689              		.p2align 2,,3
 2690              	.L851:
 2691 2140 3F600171 		cmp	w1, 88
 2692 2144 00130054 		beq	.L927
 2693 2148 29F8FF54 		bls	.L1089
 2694 214c 3F8C0171 		cmp	w1, 99
 2695 2150 E0F5FF54 		beq	.L861
 2696 2154 3F880171 		cmp	w1, 98
 2697 2158 C9EFFF54 		bls	.L860
 2698 215c 3F900171 		cmp	w1, 100
 2699 2160 60000054 		beq	.L929
 2700 2164 3FA40171 		cmp	w1, 105
 2701 2168 41EFFF54 		bne	.L860
 2702              	.L929:
 2703 216c 9720F837 		tbnz	w23, #31, .L882
 2704              	.L1071:
 2705 2170 E00316AA 		mov	x0, x22
 2706 2174 D6220091 		add	x22, x22, 8
 2707              	.L883:
 2708 2178 000080B9 		ldrsw	x0, [x0]
 2709 217c F30315AA 		mov	x19, x21
 2710              	.L878:
 2711 2180 7F040031 		cmn	w3, #1
 2712 2184 84021B32 		orr	w4, w20, 32
 2713 2188 63109F1A 		csel	w3, w3, wzr, ne
 2714 218c F403042A 		mov	w20, w4
 2715 2190 41018052 		mov	w1, 10
 2716 2194 AFF7FF97 		bl	cprint_int.constprop.1
 2717 2198 06FFFF17 		b	.L826
 2718              		.p2align 2,,3
 2719              	.L932:
 2720 219c 3FD40171 		cmp	w1, 117
 2721 21a0 C0080054 		beq	.L958
 2722 21a4 3FE00171 		cmp	w1, 120
 2723 21a8 C1EEFF54 		bne	.L1084
 2724              	.L935:
 2725 21ac 94761B12 		and	w20, w20, -25
AARCH64 GAS  C:\Users\RAFAEL~1.ROM\AppData\Local\Temp\ccH9DRWF.s 			page 49


 2726 21b0 01028052 		mov	w1, 16
 2727 21b4 9402012A 		orr	w20, w20, w1
 2728 21b8 1713F837 		tbnz	w23, #31, .L902
 2729              	.L1077:
 2730 21bc E00316AA 		mov	x0, x22
 2731 21c0 D6220091 		add	x22, x22, 8
 2732              	.L903:
 2733 21c4 F30315AA 		mov	x19, x21
 2734 21c8 000040F9 		ldr	x0, [x0]
 2735 21cc 4DFFFF17 		b	.L895
 2736              		.p2align 2,,3
 2737              	.L1109:
 2738 21d0 24C00051 		sub	w4, w1, #48
 2739 21d4 03008052 		mov	w3, 0
 2740 21d8 801C0012 		and	w0, w4, 255
 2741 21dc 45018052 		mov	w5, 10
 2742 21e0 1F240071 		cmp	w0, 9
 2743 21e4 C8200054 		bhi	.L1112
 2744              		.p2align 3,,7
 2745              	.L844:
 2746 21e8 E60315AA 		mov	x6, x21
 2747 21ec A11E4038 		ldrb	w1, [x21, 1]!
 2748 21f0 6310051B 		madd	w3, w3, w5, w4
 2749 21f4 24C00051 		sub	w4, w1, #48
 2750 21f8 801C0012 		and	w0, w4, 255
 2751 21fc 1F240071 		cmp	w0, 9
 2752 2200 49FFFF54 		bls	.L844
 2753 2204 F30315AA 		mov	x19, x21
 2754 2208 D5080091 		add	x21, x6, 2
 2755 220c 23FFFF17 		b	.L842
 2756              		.p2align 2,,3
 2757              	.L837:
 2758 2210 E2220011 		add	w2, w23, 8
 2759 2214 5F000071 		cmp	w2, 0
 2760 2218 4D0D0054 		ble	.L839
 2761 221c F703022A 		mov	w23, w2
 2762 2220 BFFFFF17 		b	.L1067
 2763              		.p2align 2,,3
 2764              	.L957:
 2765 2224 00018052 		mov	w0, 8
 2766              	.L874:
 2767 2228 94021E32 		orr	w20, w20, 4
 2768 222c 7F040031 		cmn	w3, #1
 2769 2230 010B8012 		mov	w1, -89
 2770 2234 9402010A 		and	w20, w20, w1
 2771 2238 6310981A 		csel	w3, w3, w24, ne
 2772 223c 010A8052 		mov	w1, 80
 2773 2240 1F080071 		cmp	w0, 2
 2774 2244 9402012A 		orr	w20, w20, w1
 2775 2248 00110054 		beq	.L1113
 2776 224c 1F100071 		cmp	w0, 4
 2777 2250 60100054 		beq	.L959
 2778 2254 1F200071 		cmp	w0, 8
 2779 2258 A0200054 		beq	.L960
 2780 225c F30315AA 		mov	x19, x21
 2781 2260 01028052 		mov	w1, 16
 2782 2264 000080D2 		mov	x0, 0
AARCH64 GAS  C:\Users\RAFAEL~1.ROM\AppData\Local\Temp\ccH9DRWF.s 			page 50


 2783              	.L905:
 2784 2268 E403142A 		mov	w4, w20
 2785 226c 79F7FF97 		bl	cprint_int.constprop.1
 2786 2270 D0FEFF17 		b	.L826
 2787              		.p2align 2,,3
 2788              	.L1102:
 2789 2274 3FC00171 		cmp	w1, 112
 2790 2278 41E8FF54 		bne	.L1084
 2791 227c 40008052 		mov	w0, 2
 2792 2280 EAFFFF17 		b	.L874
 2793              		.p2align 2,,3
 2794              	.L1101:
 2795 2284 3F600171 		cmp	w1, 88
 2796 2288 C01A0054 		beq	.L921
 2797 228c 09EEFF54 		bls	.L1089
 2798 2290 3F8C0171 		cmp	w1, 99
 2799 2294 C0EBFF54 		beq	.L861
 2800 2298 3F900171 		cmp	w1, 100
 2801 229c A1E5FF54 		bne	.L860
 2802              	.L919:
 2803 22a0 5716F837 		tbnz	w23, #31, .L879
 2804              	.L1070:
 2805 22a4 E00316AA 		mov	x0, x22
 2806 22a8 D6220091 		add	x22, x22, 8
 2807              	.L880:
 2808 22ac 00008079 		ldrsh	x0, [x0]
 2809 22b0 F30315AA 		mov	x19, x21
 2810 22b4 B3FFFF17 		b	.L878
 2811              		.p2align 2,,3
 2812              	.L958:
 2813 22b8 41018052 		mov	w1, 10
 2814 22bc 17F8FF36 		tbz	w23, #31, .L1077
 2815 22c0 56000014 		b	.L902
 2816              		.p2align 2,,3
 2817              	.L1098:
 2818 22c4 45018052 		mov	w5, 10
 2819              		.p2align 3,,7
 2820              	.L841:
 2821 22c8 01004039 		ldrb	w1, [x0]
 2822 22cc 4210051B 		madd	w2, w2, w5, w4
 2823 22d0 F50313AA 		mov	x21, x19
 2824 22d4 F30300AA 		mov	x19, x0
 2825 22d8 24C00051 		sub	w4, w1, #48
 2826 22dc 00040091 		add	x0, x0, 1
 2827 22e0 831C0012 		and	w3, w4, 255
 2828 22e4 7F240071 		cmp	w3, 9
 2829 22e8 09FFFF54 		bls	.L841
 2830 22ec B50A0091 		add	x21, x21, 2
 2831 22f0 E7FEFF17 		b	.L840
 2832              	.L1103:
 2833 22f4 3FC00171 		cmp	w1, 112
 2834 22f8 E00A0054 		beq	.L955
 2835 22fc 29F2FF54 		bls	.L851
 2836 2300 3FD40171 		cmp	w1, 117
 2837 2304 400F0054 		beq	.L956
 2838 2308 3FE00171 		cmp	w1, 120
 2839 230c A1E3FF54 		bne	.L1084
AARCH64 GAS  C:\Users\RAFAEL~1.ROM\AppData\Local\Temp\ccH9DRWF.s 			page 51


 2840 2310 94761B12 		and	w20, w20, -25
 2841 2314 01028052 		mov	w1, 16
 2842 2318 9402012A 		orr	w20, w20, w1
 2843 231c 3709F837 		tbnz	w23, #31, .L899
 2844              		.p2align 3,,7
 2845              	.L1076:
 2846 2320 E00316AA 		mov	x0, x22
 2847 2324 D6220091 		add	x22, x22, 8
 2848              	.L900:
 2849 2328 000040B9 		ldr	w0, [x0]
 2850 232c F30315AA 		mov	x19, x21
 2851 2330 F4FEFF17 		b	.L895
 2852              		.p2align 2,,3
 2853              	.L1100:
 2854 2334 610A4039 		ldrb	w1, [x19, 2]
 2855 2338 750E0091 		add	x21, x19, 3
 2856 233c 3FA40171 		cmp	w1, 105
 2857 2340 20010054 		beq	.L855
 2858 2344 88090054 		bhi	.L856
 2859 2348 3F600171 		cmp	w1, 88
 2860 234c 400A0054 		beq	.L1073
 2861 2350 E9E7FF54 		bls	.L1089
 2862 2354 3F8C0171 		cmp	w1, 99
 2863 2358 A0E5FF54 		beq	.L861
 2864 235c 3F900171 		cmp	w1, 100
 2865 2360 81DFFF54 		bne	.L860
 2866              	.L855:
 2867 2364 1712F837 		tbnz	w23, #31, .L875
 2868              	.L1069:
 2869 2368 E00316AA 		mov	x0, x22
 2870 236c D6220091 		add	x22, x22, 8
 2871              	.L876:
 2872 2370 00008039 		ldrsb	x0, [x0]
 2873 2374 F30315AA 		mov	x19, x21
 2874 2378 82FFFF17 		b	.L878
 2875              		.p2align 2,,3
 2876              	.L1111:
 2877 237c 610A4039 		ldrb	w1, [x19, 2]
 2878 2380 750A0091 		add	x21, x19, 2
 2879 2384 54FFFF17 		b	.L867
 2880              		.p2align 2,,3
 2881              	.L933:
 2882 2388 000B8012 		mov	w0, -89
 2883 238c 9402000A 		and	w20, w20, w0
 2884 2390 01028052 		mov	w1, 16
 2885 2394 000A8052 		mov	w0, 80
 2886 2398 9402002A 		orr	w20, w20, w0
 2887 239c 17F1FF36 		tbz	w23, #31, .L1077
 2888 23a0 1E000014 		b	.L902
 2889              		.p2align 2,,3
 2890              	.L927:
 2891 23a4 000B8012 		mov	w0, -89
 2892 23a8 9402000A 		and	w20, w20, w0
 2893 23ac 01028052 		mov	w1, 16
 2894 23b0 000A8052 		mov	w0, 80
 2895 23b4 9402002A 		orr	w20, w20, w0
 2896 23b8 57FBFF36 		tbz	w23, #31, .L1076
AARCH64 GAS  C:\Users\RAFAEL~1.ROM\AppData\Local\Temp\ccH9DRWF.s 			page 52


 2897 23bc 21000014 		b	.L899
 2898              		.p2align 2,,3
 2899              	.L839:
 2900 23c0 E1830491 		add	x1, sp, 288
 2901 23c4 21C0378B 		add	x1, x1, x23, sxtw
 2902 23c8 F703022A 		mov	w23, w2
 2903 23cc 56FFFF17 		b	.L838
 2904              		.p2align 2,,3
 2905              	.L909:
 2906 23d0 E1220011 		add	w1, w23, 8
 2907 23d4 3F000071 		cmp	w1, 0
 2908 23d8 CD0F0054 		ble	.L911
 2909 23dc F703012A 		mov	w23, w1
 2910 23e0 EBFEFF17 		b	.L1079
 2911              		.p2align 2,,3
 2912              	.L906:
 2913 23e4 E1220011 		add	w1, w23, 8
 2914 23e8 3F000071 		cmp	w1, 0
 2915 23ec AD0E0054 		ble	.L908
 2916 23f0 F703012A 		mov	w23, w1
 2917 23f4 07FFFF17 		b	.L1078
 2918              		.p2align 2,,3
 2919              	.L912:
 2920 23f8 61024039 		ldrb	w1, [x19]
 2921 23fc C1DEFF34 		cbz	w1, .L952
 2922              		.p2align 3,,7
 2923              	.L914:
 2924 2400 00008052 		mov	w0, 0
 2925 2404 00000094 		bl	hal_io_serial_putc
 2926 2408 611E4038 		ldrb	w1, [x19, 1]!
 2927 240c A1FFFF35 		cbnz	w1, .L914
 2928 2410 F30315AA 		mov	x19, x21
 2929 2414 F1FEFF17 		b	.L1114
 2930              		.p2align 2,,3
 2931              	.L902:
 2932 2418 E4220011 		add	w4, w23, 8
 2933 241c 9F000071 		cmp	w4, 0
 2934 2420 4D090054 		ble	.L904
 2935 2424 F703042A 		mov	w23, w4
 2936 2428 65FFFF17 		b	.L1077
 2937              		.p2align 2,,3
 2938              	.L896:
 2939 242c E4220011 		add	w4, w23, 8
 2940 2430 9F000071 		cmp	w4, 0
 2941 2434 2D080054 		ble	.L898
 2942 2438 F703042A 		mov	w23, w4
 2943 243c ADFEFF17 		b	.L1075
 2944              		.p2align 2,,3
 2945              	.L899:
 2946 2440 E4220011 		add	w4, w23, 8
 2947 2444 9F000071 		cmp	w4, 0
 2948 2448 0D070054 		ble	.L901
 2949 244c F703042A 		mov	w23, w4
 2950 2450 B4FFFF17 		b	.L1076
 2951              		.p2align 2,,3
 2952              	.L955:
 2953 2454 80008052 		mov	w0, 4
AARCH64 GAS  C:\Users\RAFAEL~1.ROM\AppData\Local\Temp\ccH9DRWF.s 			page 53


 2954 2458 74FFFF17 		b	.L874
 2955              		.p2align 2,,3
 2956              	.L959:
 2957 245c 01028052 		mov	w1, 16
 2958 2460 17F6FF36 		tbz	w23, #31, .L1076
 2959 2464 F7FFFF17 		b	.L899
 2960              		.p2align 2,,3
 2961              	.L1113:
 2962 2468 01028052 		mov	w1, 16
 2963 246c 37D4FF36 		tbz	w23, #31, .L1075
 2964 2470 EFFFFF17 		b	.L896
 2965              		.p2align 2,,3
 2966              	.L856:
 2967 2474 3FD40171 		cmp	w1, 117
 2968 2478 000A0054 		beq	.L947
 2969 247c 28020054 		bhi	.L863
 2970 2480 3FC00171 		cmp	w1, 112
 2971 2484 E1D7FF54 		bne	.L1084
 2972 2488 94021E32 		orr	w20, w20, 4
 2973 248c 7F040031 		cmn	w3, #1
 2974 2490 C00B0054 		beq	.L936
 2975              	.L1073:
 2976 2494 000B8012 		mov	w0, -89
 2977 2498 9402000A 		and	w20, w20, w0
 2978 249c 000A8052 		mov	w0, 80
 2979 24a0 9402002A 		orr	w20, w20, w0
 2980 24a4 01028052 		mov	w1, 16
 2981              	.L862:
 2982 24a8 F702F837 		tbnz	w23, #31, .L892
 2983              	.L1074:
 2984 24ac E00316AA 		mov	x0, x22
 2985 24b0 D6220091 		add	x22, x22, 8
 2986              	.L893:
 2987 24b4 00004039 		ldrb	w0, [x0]
 2988 24b8 F30315AA 		mov	x19, x21
 2989 24bc 91FEFF17 		b	.L895
 2990              		.p2align 2,,3
 2991              	.L863:
 2992 24c0 3FE00171 		cmp	w1, 120
 2993 24c4 61D4FF54 		bne	.L860
 2994 24c8 94761B12 		and	w20, w20, -25
 2995 24cc 01028052 		mov	w1, 16
 2996 24d0 9402012A 		orr	w20, w20, w1
 2997 24d4 F5FFFF17 		b	.L862
 2998              		.p2align 2,,3
 2999              	.L845:
 3000 24d8 E3220011 		add	w3, w23, 8
 3001 24dc 7F000071 		cmp	w3, 0
 3002 24e0 CD010054 		ble	.L847
 3003 24e4 F703032A 		mov	w23, w3
 3004 24e8 EDFEFF17 		b	.L1068
 3005              		.p2align 2,,3
 3006              	.L956:
 3007 24ec 41018052 		mov	w1, 10
 3008 24f0 97F1FF36 		tbz	w23, #31, .L1076
 3009 24f4 D3FFFF17 		b	.L899
 3010              		.p2align 2,,3
AARCH64 GAS  C:\Users\RAFAEL~1.ROM\AppData\Local\Temp\ccH9DRWF.s 			page 54


 3011              	.L953:
 3012 24f8 41018052 		mov	w1, 10
 3013 24fc B7CFFF36 		tbz	w23, #31, .L1075
 3014 2500 CBFFFF17 		b	.L896
 3015              		.p2align 2,,3
 3016              	.L892:
 3017 2504 E4220011 		add	w4, w23, 8
 3018 2508 9F000071 		cmp	w4, 0
 3019 250c 6D020054 		ble	.L894
 3020 2510 F703042A 		mov	w23, w4
 3021 2514 E6FFFF17 		b	.L1074
 3022              		.p2align 2,,3
 3023              	.L847:
 3024 2518 E1830491 		add	x1, sp, 288
 3025 251c 21C0378B 		add	x1, x1, x23, sxtw
 3026 2520 F703032A 		mov	w23, w3
 3027 2524 E0FEFF17 		b	.L846
 3028              		.p2align 2,,3
 3029              	.L901:
 3030 2528 E0830491 		add	x0, sp, 288
 3031 252c 00C0378B 		add	x0, x0, x23, sxtw
 3032 2530 F703042A 		mov	w23, w4
 3033 2534 7DFFFF17 		b	.L900
 3034              		.p2align 2,,3
 3035              	.L898:
 3036 2538 E0830491 		add	x0, sp, 288
 3037 253c 00C0378B 		add	x0, x0, x23, sxtw
 3038 2540 F703042A 		mov	w23, w4
 3039 2544 6DFEFF17 		b	.L897
 3040              		.p2align 2,,3
 3041              	.L904:
 3042 2548 E0830491 		add	x0, sp, 288
 3043 254c 00C0378B 		add	x0, x0, x23, sxtw
 3044 2550 F703042A 		mov	w23, w4
 3045 2554 1CFFFF17 		b	.L903
 3046              		.p2align 2,,3
 3047              	.L894:
 3048 2558 E0830491 		add	x0, sp, 288
 3049 255c 00C0378B 		add	x0, x0, x23, sxtw
 3050 2560 F703042A 		mov	w23, w4
 3051 2564 D4FFFF17 		b	.L893
 3052              		.p2align 2,,3
 3053              	.L879:
 3054 2568 E1220011 		add	w1, w23, 8
 3055 256c 3F000071 		cmp	w1, 0
 3056 2570 ED060054 		ble	.L881
 3057 2574 F703012A 		mov	w23, w1
 3058 2578 4BFFFF17 		b	.L1070
 3059              		.p2align 2,,3
 3060              	.L882:
 3061 257c E1220011 		add	w1, w23, 8
 3062 2580 3F000071 		cmp	w1, 0
 3063 2584 CD060054 		ble	.L884
 3064 2588 F703012A 		mov	w23, w1
 3065 258c F9FEFF17 		b	.L1071
 3066              		.p2align 2,,3
 3067              	.L885:
AARCH64 GAS  C:\Users\RAFAEL~1.ROM\AppData\Local\Temp\ccH9DRWF.s 			page 55


 3068 2590 E1220011 		add	w1, w23, 8
 3069 2594 3F000071 		cmp	w1, 0
 3070 2598 2D050054 		ble	.L887
 3071 259c F703012A 		mov	w23, w1
 3072 25a0 A6FEFF17 		b	.L1072
 3073              		.p2align 2,,3
 3074              	.L875:
 3075 25a4 E1220011 		add	w1, w23, 8
 3076 25a8 3F000071 		cmp	w1, 0
 3077 25ac 0D040054 		ble	.L877
 3078 25b0 F703012A 		mov	w23, w1
 3079 25b4 6DFFFF17 		b	.L1069
 3080              		.p2align 2,,3
 3081              	.L947:
 3082 25b8 41018052 		mov	w1, 10
 3083 25bc BBFFFF17 		b	.L862
 3084              		.p2align 2,,3
 3085              	.L908:
 3086 25c0 E0830491 		add	x0, sp, 288
 3087 25c4 00C0378B 		add	x0, x0, x23, sxtw
 3088 25c8 F703012A 		mov	w23, w1
 3089 25cc 93FEFF17 		b	.L907
 3090              		.p2align 2,,3
 3091              	.L911:
 3092 25d0 E0830491 		add	x0, sp, 288
 3093 25d4 00C0378B 		add	x0, x0, x23, sxtw
 3094 25d8 F703012A 		mov	w23, w1
 3095 25dc 6EFEFF17 		b	.L910
 3096              		.p2align 2,,3
 3097              	.L921:
 3098 25e0 000B8012 		mov	w0, -89
 3099 25e4 9402000A 		and	w20, w20, w0
 3100 25e8 01028052 		mov	w1, 16
 3101 25ec 000A8052 		mov	w0, 80
 3102 25f0 9402002A 		orr	w20, w20, w0
 3103 25f4 F7C7FF36 		tbz	w23, #31, .L1075
 3104 25f8 8DFFFF17 		b	.L896
 3105              		.p2align 2,,3
 3106              	.L1112:
 3107 25fc F30315AA 		mov	x19, x21
 3108 2600 B5060091 		add	x21, x21, 1
 3109 2604 25FEFF17 		b	.L842
 3110              		.p2align 2,,3
 3111              	.L936:
 3112 2608 000B8012 		mov	w0, -89
 3113 260c 9402000A 		and	w20, w20, w0
 3114 2610 01028052 		mov	w1, 16
 3115 2614 000A8052 		mov	w0, 80
 3116 2618 E303012A 		mov	w3, w1
 3117 261c 9402002A 		orr	w20, w20, w0
 3118 2620 A2FFFF17 		b	.L862
 3119              		.p2align 2,,3
 3120              	.L1106:
 3121 2624 B5060091 		add	x21, x21, 1
 3122 2628 8BFEFF17 		b	.L916
 3123              	.L877:
 3124 262c E0830491 		add	x0, sp, 288
AARCH64 GAS  C:\Users\RAFAEL~1.ROM\AppData\Local\Temp\ccH9DRWF.s 			page 56


 3125 2630 00C0378B 		add	x0, x0, x23, sxtw
 3126 2634 F703012A 		mov	w23, w1
 3127 2638 4EFFFF17 		b	.L876
 3128              	.L887:
 3129 263c E0830491 		add	x0, sp, 288
 3130 2640 00C0378B 		add	x0, x0, x23, sxtw
 3131 2644 F703012A 		mov	w23, w1
 3132 2648 7EFEFF17 		b	.L886
 3133              	.L881:
 3134 264c E0830491 		add	x0, sp, 288
 3135 2650 00C0378B 		add	x0, x0, x23, sxtw
 3136 2654 F703012A 		mov	w23, w1
 3137 2658 15FFFF17 		b	.L880
 3138              	.L884:
 3139 265c E0830491 		add	x0, sp, 288
 3140 2660 00C0378B 		add	x0, x0, x23, sxtw
 3141 2664 F703012A 		mov	w23, w1
 3142 2668 C4FEFF17 		b	.L883
 3143              	.L960:
 3144 266c 01028052 		mov	w1, 16
 3145 2670 77DAFF36 		tbz	w23, #31, .L1077
 3146 2674 69FFFF17 		b	.L902
 3147              		.size	kprintf_debug, .-kprintf_debug
 3148              		.align	2
 3149 2678 1F2003D5 		.p2align 4,,15
 3149      1F2003D5 
 3150              		.global	snprintf
 3151              		.type	snprintf, %function
 3152              	snprintf:
 3153 2680 F353ACA9 		stp	x19, x20, [sp, -320]!
 3154 2684 E9048012 		mov	w9, -40
 3155 2688 E80F8012 		mov	w8, -128
 3156 268c EA430491 		add	x10, sp, 272
 3157 2690 EB030591 		add	x11, sp, 320
 3158 2694 EB2F05A9 		stp	x11, x11, [sp, 80]
 3159 2698 F30301AA 		mov	x19, x1
 3160 269c F40300AA 		mov	x20, x0
 3161 26a0 EA3300F9 		str	x10, [sp, 96]
 3162 26a4 E10302AA 		mov	x1, x2
 3163 26a8 E9230D29 		stp	w9, w8, [sp, 104]
 3164 26ac E0030191 		add	x0, sp, 64
 3165 26b0 EA2F45A9 		ldp	x10, x11, [sp, 80]
 3166 26b4 E2830091 		add	x2, sp, 32
 3167 26b8 E82746A9 		ldp	x8, x9, [sp, 96]
 3168 26bc FE0B00F9 		str	x30, [sp, 16]
 3169 26c0 EA2F02A9 		stp	x10, x11, [sp, 32]
 3170 26c4 E82703A9 		stp	x8, x9, [sp, 48]
 3171 26c8 F44F04A9 		stp	x20, x19, [sp, 64]
 3172 26cc EA2F07A9 		stp	x10, x11, [sp, 112]
 3173 26d0 E82708A9 		stp	x8, x9, [sp, 128]
 3174 26d4 E027803D 		str	q0, [sp, 144]
 3175 26d8 E12B803D 		str	q1, [sp, 160]
 3176 26dc E22F803D 		str	q2, [sp, 176]
 3177 26e0 E333803D 		str	q3, [sp, 192]
 3178 26e4 E437803D 		str	q4, [sp, 208]
 3179 26e8 E53B803D 		str	q5, [sp, 224]
 3180 26ec E63F803D 		str	q6, [sp, 240]
AARCH64 GAS  C:\Users\RAFAEL~1.ROM\AppData\Local\Temp\ccH9DRWF.s 			page 57


 3181 26f0 E743803D 		str	q7, [sp, 256]
 3182 26f4 E39311A9 		stp	x3, x4, [sp, 280]
 3183 26f8 E59B12A9 		stp	x5, x6, [sp, 296]
 3184 26fc E79F00F9 		str	x7, [sp, 312]
 3185 2700 A4F8FF97 		bl	vcprintf.constprop.2
 3186 2704 E02740F9 		ldr	x0, [sp, 72]
 3187 2708 600000B4 		cbz	x0, .L1116
 3188 270c E02340F9 		ldr	x0, [sp, 64]
 3189 2710 1F000039 		strb	wzr, [x0]
 3190              	.L1116:
 3191 2714 9302138B 		add	x19, x20, x19
 3192 2718 E02340F9 		ldr	x0, [sp, 64]
 3193 271c 7FF21F38 		strb	wzr, [x19, -1]
 3194 2720 0000144B 		sub	w0, w0, w20
 3195 2724 FE0B40F9 		ldr	x30, [sp, 16]
 3196 2728 F353D4A8 		ldp	x19, x20, [sp], 320
 3197 272c C0035FD6 		ret
 3198              		.size	snprintf, .-snprintf
 3199              		.align	2
 3200              		.p2align 4,,15
 3201              		.global	atoi
 3202              		.type	atoi, %function
 3203              	atoi:
 3204 2730 020040F9 		ldr	x2, [x0]
 3205 2734 E50300AA 		mov	x5, x0
 3206 2738 43004039 		ldrb	w3, [x2]
 3207 273c 61C00051 		sub	w1, w3, #48
 3208 2740 201C0012 		and	w0, w1, 255
 3209 2744 1F240071 		cmp	w0, 9
 3210 2748 00008052 		mov	w0, 0
 3211 274c 28010054 		bhi	.L1122
 3212 2750 44018052 		mov	w4, 10
 3213 2754 1F2003D5 		.p2align 3,,7
 3214              	.L1123:
 3215 2758 431C4038 		ldrb	w3, [x2, 1]!
 3216 275c 0004041B 		madd	w0, w0, w4, w1
 3217 2760 61C00051 		sub	w1, w3, #48
 3218 2764 231C0012 		and	w3, w1, 255
 3219 2768 7F240071 		cmp	w3, 9
 3220 276c 69FFFF54 		bls	.L1123
 3221              	.L1122:
 3222 2770 A20000F9 		str	x2, [x5]
 3223 2774 C0035FD6 		ret
 3224              		.size	atoi, .-atoi
 3225              		.align	2
 3226 2778 1F2003D5 		.p2align 4,,15
 3226      1F2003D5 
 3227              		.global	cprint_int
 3228              		.type	cprint_int, %function
 3229              	cprint_int:
 3230 2780 F353B4A9 		stp	x19, x20, [sp, -192]!
 3231 2784 D31C0012 		and	w19, w6, 255
 3232 2788 07000090 		adrp	x7, .LC0
 3233 278c E7000091 		add	x7, x7, :lo12:.LC0
 3234 2790 F96B03A9 		stp	x25, x26, [sp, 48]
 3235 2794 F903132A 		mov	w25, w19
 3236 2798 E9430291 		add	x9, sp, 144
AARCH64 GAS  C:\Users\RAFAEL~1.ROM\AppData\Local\Temp\ccH9DRWF.s 			page 58


 3237 279c 66781E12 		and	w6, w3, -3
 3238 27a0 3F037AF2 		tst	x25, 64
 3239 27a4 E8E30191 		add	x8, sp, 120
 3240 27a8 2811889A 		csel	x8, x9, x8, ne
 3241 27ac 0B2686D2 		mov	x11, 12592
 3242 27b0 4B66A6F2 		movk	x11, 0x3332, lsl 16
 3243 27b4 DF200071 		cmp	w6, 8
 3244 27b8 E6404039 		ldrb	w6, [x7, 16]
 3245 27bc 8BA6C6F2 		movk	x11, 0x3534, lsl 32
 3246 27c0 CBE6E6F2 		movk	x11, 0x3736, lsl 48
 3247 27c4 FE2B00F9 		str	x30, [sp, 80]
 3248 27c8 EA2440A9 		ldp	x10, x9, [x7]
 3249 27cc 072787D2 		mov	x7, 14648
 3250 27d0 274CACF2 		movk	x7, 0x6261, lsl 16
 3251 27d4 FF230239 		strb	wzr, [sp, 136]
 3252 27d8 678CCCF2 		movk	x7, 0x6463, lsl 32
 3253 27dc A7CCECF2 		movk	x7, 0x6665, lsl 48
 3254 27e0 EB9F07A9 		stp	x11, x7, [sp, 120]
 3255 27e4 EA2709A9 		stp	x10, x9, [sp, 144]
 3256 27e8 E6830239 		strb	w6, [sp, 160]
 3257 27ec E6079F1A 		cset	w6, ne
 3258 27f0 7F400071 		cmp	w3, 16
 3259 27f4 C6109F1A 		csel	w6, w6, wzr, ne
 3260 27f8 260C0035 		cbnz	w6, .L1126
 3261 27fc F55B01A9 		stp	x21, x22, [sp, 16]
 3262 2800 F403042A 		mov	w20, w4
 3263 2804 F50300AA 		mov	x21, x0
 3264 2808 F76302A9 		stp	x23, x24, [sp, 32]
 3265 280c F60301AA 		mov	x22, x1
 3266 2810 FB7304A9 		stp	x27, x28, [sp, 64]
 3267 2814 53002836 		tbz	x19, 5, .L1129
 3268 2818 0210F8B7 		tbnz	x2, #63, .L1182
 3269              	.L1129:
 3270 281c 820B00B5 		cbnz	x2, .L1151
 3271 2820 BF000071 		cmp	w5, 0
 3272 2824 37008052 		mov	w23, 1
 3273 2828 BAC0971A 		csel	w26, w5, w23, gt
 3274 282c 00068052 		mov	w0, 48
 3275 2830 18068052 		mov	w24, 48
 3276 2834 E0A30239 		strb	w0, [sp, 168]
 3277              	.L1131:
 3278 2838 60020012 		and	w0, w19, 1
 3279 283c B30E0037 		tbnz	x19, 0, .L1183
 3280 2840 7B021E12 		and	w27, w19, 4
 3281 2844 730D1036 		tbz	x19, 2, .L1136
 3282 2848 940A0051 		sub	w20, w20, #2
 3283 284c 06008052 		mov	w6, 0
 3284              		.p2align 3,,7
 3285              	.L1135:
 3286 2850 60020012 		and	w0, w19, 1
 3287 2854 E60C0034 		cbz	w6, .L1136
 3288 2858 E10316AA 		mov	x1, x22
 3289 285c A0058052 		mov	w0, 45
 3290 2860 A0023FD6 		blr	x21
 3291              	.L1137:
 3292 2864 FB000034 		cbz	w27, .L1139
 3293 2868 E10316AA 		mov	x1, x22
AARCH64 GAS  C:\Users\RAFAEL~1.ROM\AppData\Local\Temp\ccH9DRWF.s 			page 59


 3294 286c 00068052 		mov	w0, 48
 3295 2870 A0023FD6 		blr	x21
 3296 2874 E10316AA 		mov	x1, x22
 3297 2878 000F8052 		mov	w0, 120
 3298 287c A0023FD6 		blr	x21
 3299              	.L1139:
 3300 2880 590B0837 		tbnz	x25, 1, .L1181
 3301 2884 9C060051 		sub	w28, w20, #1
 3302 2888 FC6F00B9 		str	w28, [sp, 108]
 3303 288c 5F03146B 		cmp	w26, w20
 3304 2890 AA0A0054 		bge	.L1153
 3305 2894 7F027CF2 		tst	x19, 16
 3306 2898 1B068052 		mov	w27, 48
 3307 289c 00048052 		mov	w0, 32
 3308 28a0 59070051 		sub	w25, w26, #1
 3309 28a4 7B13801A 		csel	w27, w27, w0, ne
 3310              		.p2align 3,,7
 3311              	.L1141:
 3312 28a8 9C070051 		sub	w28, w28, #1
 3313 28ac E10316AA 		mov	x1, x22
 3314 28b0 E0031B2A 		mov	w0, w27
 3315 28b4 A0023FD6 		blr	x21
 3316 28b8 3F031C6B 		cmp	w25, w28
 3317 28bc 61FFFF54 		bne	.L1141
 3318 28c0 E06F40B9 		ldr	w0, [sp, 108]
 3319 28c4 5403144B 		sub	w20, w26, w20
 3320 28c8 9402000B 		add	w20, w20, w0
 3321              	.L1140:
 3322 28cc 5F03176B 		cmp	w26, w23
 3323 28d0 AD0A0054 		ble	.L1184
 3324 28d4 7F027CF2 		tst	x19, 16
 3325 28d8 1B068052 		mov	w27, 48
 3326 28dc 00048052 		mov	w0, 32
 3327 28e0 F3060051 		sub	w19, w23, #1
 3328 28e4 7B13801A 		csel	w27, w27, w0, ne
 3329              		.p2align 3,,7
 3330              	.L1143:
 3331 28e8 39070051 		sub	w25, w25, #1
 3332 28ec E10316AA 		mov	x1, x22
 3333 28f0 E0031B2A 		mov	w0, w27
 3334 28f4 A0023FD6 		blr	x21
 3335 28f8 7F02196B 		cmp	w19, w25
 3336 28fc 61FFFF54 		bne	.L1143
 3337 2900 FA021A4B 		sub	w26, w23, w26
 3338 2904 5403140B 		add	w20, w26, w20
 3339              	.L1142:
 3340 2908 737E4093 		sxtw	x19, w19
 3341 290c 03000014 		b	.L1145
 3342              		.p2align 2,,3
 3343              	.L1185:
 3344 2910 18F05F38 		ldrb	w24, [x0, -1]
 3345 2914 730600D1 		sub	x19, x19, #1
 3346              	.L1145:
 3347 2918 E003182A 		mov	w0, w24
 3348 291c E10316AA 		mov	x1, x22
 3349 2920 A0023FD6 		blr	x21
 3350 2924 E0A30291 		add	x0, sp, 168
AARCH64 GAS  C:\Users\RAFAEL~1.ROM\AppData\Local\Temp\ccH9DRWF.s 			page 60


 3351 2928 7F020071 		cmp	w19, 0
 3352 292c 6002008B 		add	x0, x19, x0
 3353 2930 0CFFFF54 		bgt	.L1185
 3354 2934 81060051 		sub	w1, w20, #1
 3355 2938 20008052 		mov	w0, 1
 3356 293c 1700174B 		sub	w23, w0, w23
 3357 2940 9402170B 		add	w20, w20, w23
 3358 2944 F702010B 		add	w23, w23, w1
 3359 2948 940A0051 		sub	w20, w20, #2
 3360 294c FF020071 		cmp	w23, 0
 3361 2950 0D010054 		ble	.L1180
 3362 2954 1F2003D5 		.p2align 3,,7
 3363              	.L1146:
 3364 2958 E10316AA 		mov	x1, x22
 3365 295c 00048052 		mov	w0, 32
 3366 2960 A0023FD6 		blr	x21
 3367 2964 9F020071 		cmp	w20, 0
 3368 2968 94060051 		sub	w20, w20, #1
 3369 296c 6CFFFF54 		bgt	.L1146
 3370              	.L1180:
 3371 2970 F55B41A9 		ldp	x21, x22, [sp, 16]
 3372 2974 F76342A9 		ldp	x23, x24, [sp, 32]
 3373 2978 FB7344A9 		ldp	x27, x28, [sp, 64]
 3374              	.L1126:
 3375 297c F96B43A9 		ldp	x25, x26, [sp, 48]
 3376 2980 FE2B40F9 		ldr	x30, [sp, 80]
 3377 2984 F353CCA8 		ldp	x19, x20, [sp], 192
 3378 2988 C0035FD6 		ret
 3379              		.p2align 2,,3
 3380              	.L1151:
 3381 298c 06008052 		mov	w6, 0
 3382              	.L1130:
 3383 2990 637C4093 		sxtw	x3, w3
 3384 2994 200080D2 		mov	x0, 1
 3385              		.p2align 3,,7
 3386              	.L1132:
 3387 2998 4408C39A 		udiv	x4, x2, x3
 3388 299c E1A30291 		add	x1, sp, 168
 3389 29a0 2100008B 		add	x1, x1, x0
 3390 29a4 F703002A 		mov	w23, w0
 3391 29a8 5F0003EB 		cmp	x2, x3
 3392 29ac 00040091 		add	x0, x0, 1
 3393 29b0 8788039B 		msub	x7, x4, x3, x2
 3394 29b4 E20304AA 		mov	x2, x4
 3395 29b8 18696738 		ldrb	w24, [x8, x7]
 3396 29bc 38F01F38 		strb	w24, [x1, -1]
 3397 29c0 C2FEFF54 		bcs	.L1132
 3398 29c4 BF00176B 		cmp	w5, w23
 3399 29c8 BAA0971A 		csel	w26, w5, w23, ge
 3400 29cc 66F3FF34 		cbz	w6, .L1131
 3401              	.L1133:
 3402 29d0 94060051 		sub	w20, w20, #1
 3403 29d4 7B021E12 		and	w27, w19, 4
 3404 29d8 D3F31736 		tbz	x19, 2, .L1135
 3405 29dc 940A0051 		sub	w20, w20, #2
 3406 29e0 9CFFFF17 		b	.L1135
 3407              	.L1153:
AARCH64 GAS  C:\Users\RAFAEL~1.ROM\AppData\Local\Temp\ccH9DRWF.s 			page 61


 3408 29e4 F46F40B9 		ldr	w20, [sp, 108]
 3409              		.p2align 3,,7
 3410              	.L1181:
 3411 29e8 59070051 		sub	w25, w26, #1
 3412 29ec B8FFFF17 		b	.L1140
 3413              		.p2align 2,,3
 3414              	.L1136:
 3415 29f0 A0F3FF34 		cbz	w0, .L1137
 3416 29f4 7F027DF2 		tst	x19, 8
 3417 29f8 02048052 		mov	w2, 32
 3418 29fc E10316AA 		mov	x1, x22
 3419 2a00 60058052 		mov	w0, 43
 3420 2a04 4010801A 		csel	w0, w2, w0, ne
 3421 2a08 A0023FD6 		blr	x21
 3422 2a0c 96FFFF17 		b	.L1137
 3423              		.p2align 2,,3
 3424              	.L1183:
 3425 2a10 06008052 		mov	w6, 0
 3426 2a14 EFFFFF17 		b	.L1133
 3427              		.p2align 2,,3
 3428              	.L1182:
 3429 2a18 E20302CB 		neg	x2, x2
 3430 2a1c 26008052 		mov	w6, 1
 3431 2a20 DCFFFF17 		b	.L1130
 3432              		.p2align 2,,3
 3433              	.L1184:
 3434 2a24 F3060051 		sub	w19, w23, #1
 3435 2a28 B8FFFF17 		b	.L1142
 3436              		.size	cprint_int, .-cprint_int
 3437              		.align	2
 3438 2a2c 1F2003D5 		.p2align 4,,15
 3439              		.global	vcprintf
 3440              		.type	vcprintf, %function
 3441              	vcprintf:
 3442 2a30 F353BAA9 		stp	x19, x20, [sp, -96]!
 3443 2a34 F55B01A9 		stp	x21, x22, [sp, 16]
 3444 2a38 F60300AA 		mov	x22, x0
 3445 2a3c F76302A9 		stp	x23, x24, [sp, 32]
 3446 2a40 781840B9 		ldr	w24, [x3, 24]
 3447 2a44 F96B03A9 		stp	x25, x26, [sp, 48]
 3448 2a48 776440A9 		ldp	x23, x25, [x3]
 3449 2a4c FE2B00F9 		str	x30, [sp, 80]
 3450 2a50 40004039 		ldrb	w0, [x2]
 3451 2a54 00140034 		cbz	w0, .L1186
 3452 2a58 F30302AA 		mov	x19, x2
 3453 2a5c F50301AA 		mov	x21, x1
 3454 2a60 1A028052 		mov	w26, 16
 3455 2a64 FB7304A9 		stp	x27, x28, [sp, 64]
 3456 2a68 05000014 		b	.L1187
 3457              		.p2align 2,,3
 3458              	.L1431:
 3459 2a6c E10315AA 		mov	x1, x21
 3460 2a70 C0023FD6 		blr	x22
 3461              	.L1189:
 3462 2a74 60024039 		ldrb	w0, [x19]
 3463 2a78 C0120034 		cbz	w0, .L1445
 3464              	.L1187:
AARCH64 GAS  C:\Users\RAFAEL~1.ROM\AppData\Local\Temp\ccH9DRWF.s 			page 62


 3465 2a7c 73060091 		add	x19, x19, 1
 3466 2a80 1F940071 		cmp	w0, 37
 3467 2a84 41FFFF54 		bne	.L1431
 3468 2a88 63024039 		ldrb	w3, [x19]
 3469 2a8c 62060091 		add	x2, x19, 1
 3470 2a90 84621912 		and	w4, w20, -128
 3471 2a94 FB0302AA 		mov	x27, x2
 3472 2a98 F403042A 		mov	w20, w4
 3473 2a9c 7FAC0071 		cmp	w3, 43
 3474 2aa0 00008052 		mov	w0, 0
 3475 2aa4 05008052 		mov	w5, 0
 3476 2aa8 01008052 		mov	w1, 0
 3477 2aac 06008052 		mov	w6, 0
 3478 2ab0 07008052 		mov	w7, 0
 3479 2ab4 A0010054 		beq	.L1302
 3480              		.p2align 3,,7
 3481              	.L1446:
 3482 2ab8 E8010054 		bhi	.L1192
 3483 2abc 7F800071 		cmp	w3, 32
 3484 2ac0 80020054 		beq	.L1303
 3485 2ac4 7F8C0071 		cmp	w3, 35
 3486 2ac8 01030054 		bne	.L1193
 3487 2acc F30302AA 		mov	x19, x2
 3488 2ad0 21008052 		mov	w1, 1
 3489              	.L1447:
 3490 2ad4 63024039 		ldrb	w3, [x19]
 3491 2ad8 62060091 		add	x2, x19, 1
 3492 2adc FB0302AA 		mov	x27, x2
 3493 2ae0 7FAC0071 		cmp	w3, 43
 3494 2ae4 A1FEFF54 		bne	.L1446
 3495              	.L1302:
 3496 2ae8 F30302AA 		mov	x19, x2
 3497 2aec 27008052 		mov	w7, 1
 3498 2af0 F9FFFF17 		b	.L1447
 3499              		.p2align 2,,3
 3500              	.L1192:
 3501 2af4 7FB40071 		cmp	w3, 45
 3502 2af8 20010054 		beq	.L1305
 3503 2afc 7FC00071 		cmp	w3, 48
 3504 2b00 41010054 		bne	.L1193
 3505 2b04 F30302AA 		mov	x19, x2
 3506 2b08 20008052 		mov	w0, 1
 3507 2b0c F2FFFF17 		b	.L1447
 3508              		.p2align 2,,3
 3509              	.L1303:
 3510 2b10 F30302AA 		mov	x19, x2
 3511 2b14 25008052 		mov	w5, 1
 3512 2b18 EFFFFF17 		b	.L1447
 3513              		.p2align 2,,3
 3514              	.L1305:
 3515 2b1c F30302AA 		mov	x19, x2
 3516 2b20 26008052 		mov	w6, 1
 3517 2b24 ECFFFF17 		b	.L1447
 3518              	.L1193:
 3519 2b28 84000032 		orr	w4, w4, 1
 3520 2b2c FF000071 		cmp	w7, 0
 3521 2b30 9402841A 		csel	w20, w20, w4, eq
AARCH64 GAS  C:\Users\RAFAEL~1.ROM\AppData\Local\Temp\ccH9DRWF.s 			page 63


 3522 2b34 DF000071 		cmp	w6, 0
 3523 2b38 84021F32 		orr	w4, w20, 2
 3524 2b3c 9402841A 		csel	w20, w20, w4, eq
 3525 2b40 3F000071 		cmp	w1, 0
 3526 2b44 81021E32 		orr	w1, w20, 4
 3527 2b48 9402811A 		csel	w20, w20, w1, eq
 3528 2b4c BF000071 		cmp	w5, 0
 3529 2b50 81021D32 		orr	w1, w20, 8
 3530 2b54 9402811A 		csel	w20, w20, w1, eq
 3531 2b58 1F000071 		cmp	w0, 0
 3532 2b5c 80021C32 		orr	w0, w20, 16
 3533 2b60 9402801A 		csel	w20, w20, w0, eq
 3534 2b64 7FA80071 		cmp	w3, 42
 3535 2b68 40150054 		beq	.L1448
 3536 2b6c 60C00051 		sub	w0, w3, #48
 3537 2b70 04008052 		mov	w4, 0
 3538 2b74 011C0012 		and	w1, w0, 255
 3539 2b78 3F240071 		cmp	w1, 9
 3540 2b7c 89220054 		bls	.L1449
 3541              	.L1203:
 3542 2b80 7FB80071 		cmp	w3, 46
 3543 2b84 05008012 		mov	w5, -1
 3544 2b88 A00F0054 		beq	.L1450
 3545              	.L1205:
 3546 2b8c 7FB00171 		cmp	w3, 108
 3547 2b90 80110054 		beq	.L1211
 3548              	.L1461:
 3549 2b94 68030054 		bhi	.L1212
 3550 2b98 7FA00171 		cmp	w3, 104
 3551 2b9c C1160054 		bne	.L1214
 3552 2ba0 63064039 		ldrb	w3, [x19, 1]
 3553 2ba4 7FA00171 		cmp	w3, 104
 3554 2ba8 C0240054 		beq	.L1451
 3555 2bac 7B0A0091 		add	x27, x19, 2
 3556 2bb0 7FA40171 		cmp	w3, 105
 3557 2bb4 801F0054 		beq	.L1282
 3558 2bb8 891E0054 		bls	.L1452
 3559 2bbc 7FD40171 		cmp	w3, 117
 3560 2bc0 80350054 		beq	.L1316
 3561 2bc4 A91D0054 		bls	.L1453
 3562 2bc8 7FE00171 		cmp	w3, 120
 3563 2bcc 61030054 		bne	.L1223
 3564 2bd0 94761B12 		and	w20, w20, -25
 3565 2bd4 03028052 		mov	w3, 16
 3566 2bd8 9402032A 		orr	w20, w20, w3
 3567 2bdc 182AF837 		tbnz	w24, #31, .L1259
 3568              		.p2align 3,,7
 3569              	.L1468:
 3570 2be0 E12E0091 		add	x1, x23, 11
 3571 2be4 E00317AA 		mov	x0, x23
 3572 2be8 37F07D92 		and	x23, x1, -8
 3573              	.L1260:
 3574 2bec 02004079 		ldrh	w2, [x0]
 3575 2bf0 F3031BAA 		mov	x19, x27
 3576              	.L1258:
 3577 2bf4 BF040031 		cmn	w5, #1
 3578 2bf8 A5109F1A 		csel	w5, w5, wzr, ne
AARCH64 GAS  C:\Users\RAFAEL~1.ROM\AppData\Local\Temp\ccH9DRWF.s 			page 64


 3579 2bfc DA000014 		b	.L1268
 3580              		.p2align 2,,3
 3581              	.L1212:
 3582 2c00 7FD00171 		cmp	w3, 116
 3583 2c04 60000054 		beq	.L1215
 3584 2c08 7FE80171 		cmp	w3, 122
 3585 2c0c 811F0054 		bne	.L1454
 3586              	.L1215:
 3587 2c10 63064039 		ldrb	w3, [x19, 1]
 3588 2c14 7B0A0091 		add	x27, x19, 2
 3589 2c18 7FA40171 		cmp	w3, 105
 3590 2c1c 40080054 		beq	.L1231
 3591 2c20 69060054 		bls	.L1455
 3592 2c24 7FD40171 		cmp	w3, 117
 3593 2c28 C01C0054 		beq	.L1321
 3594 2c2c A9010054 		bls	.L1456
 3595 2c30 7FE00171 		cmp	w3, 120
 3596 2c34 C0100054 		beq	.L1298
 3597              		.p2align 3,,7
 3598              	.L1223:
 3599 2c38 60034039 		ldrb	w0, [x27]
 3600 2c3c 1F940071 		cmp	w0, 37
 3601 2c40 81000054 		bne	.L1280
 3602 2c44 D6010014 		b	.L1457
 3603              		.p2align 2,,3
 3604              	.L1458:
 3605 2c48 03F05F38 		ldrb	w3, [x0, -1]
 3606 2c4c FB0300AA 		mov	x27, x0
 3607              	.L1280:
 3608 2c50 7F940071 		cmp	w3, 37
 3609 2c54 600700D1 		sub	x0, x27, #1
 3610 2c58 81FFFF54 		bne	.L1458
 3611 2c5c 43000014 		b	.L1279
 3612              		.p2align 2,,3
 3613              	.L1456:
 3614 2c60 7FC00171 		cmp	w3, 112
 3615 2c64 E0150054 		beq	.L1320
 3616              	.L1435:
 3617 2c68 7FCC0171 		cmp	w3, 115
 3618 2c6c 61FEFF54 		bne	.L1223
 3619 2c70 7823F837 		tbnz	w24, #31, .L1272
 3620 2c74 E13E0091 		add	x1, x23, 15
 3621 2c78 E00317AA 		mov	x0, x23
 3622 2c7c 37F07D92 		and	x23, x1, -8
 3623              	.L1273:
 3624 2c80 BF040031 		cmn	w5, #1
 3625 2c84 1C0040F9 		ldr	x28, [x0]
 3626 2c88 402D0054 		beq	.L1275
 3627 2c8c A5010034 		cbz	w5, .L1315
 3628 2c90 B3040051 		sub	w19, w5, #1
 3629 2c94 73060091 		add	x19, x19, 1
 3630 2c98 9303138B 		add	x19, x28, x19
 3631 2c9c 04000014 		b	.L1276
 3632              		.p2align 2,,3
 3633              	.L1278:
 3634 2ca0 C0023FD6 		blr	x22
 3635 2ca4 9F0313EB 		cmp	x28, x19
AARCH64 GAS  C:\Users\RAFAEL~1.ROM\AppData\Local\Temp\ccH9DRWF.s 			page 65


 3636 2ca8 C0000054 		beq	.L1315
 3637              	.L1276:
 3638 2cac 82034039 		ldrb	w2, [x28]
 3639 2cb0 E10315AA 		mov	x1, x21
 3640 2cb4 9C070091 		add	x28, x28, 1
 3641 2cb8 E003022A 		mov	w0, w2
 3642 2cbc 22FFFF35 		cbnz	w2, .L1278
 3643              	.L1315:
 3644 2cc0 F3031BAA 		mov	x19, x27
 3645              	.L1469:
 3646 2cc4 60024039 		ldrb	w0, [x19]
 3647 2cc8 A0EDFF35 		cbnz	w0, .L1187
 3648 2ccc 1F2003D5 		.p2align 3,,7
 3649              	.L1445:
 3650 2cd0 FB7344A9 		ldp	x27, x28, [sp, 64]
 3651              	.L1186:
 3652 2cd4 F55B41A9 		ldp	x21, x22, [sp, 16]
 3653 2cd8 F76342A9 		ldp	x23, x24, [sp, 32]
 3654 2cdc F96B43A9 		ldp	x25, x26, [sp, 48]
 3655 2ce0 FE2B40F9 		ldr	x30, [sp, 80]
 3656 2ce4 F353C6A8 		ldp	x19, x20, [sp], 96
 3657 2ce8 C0035FD6 		ret
 3658              		.p2align 2,,3
 3659              	.L1455:
 3660 2cec 7F600171 		cmp	w3, 88
 3661 2cf0 401D0054 		beq	.L1296
 3662 2cf4 69030054 		bls	.L1440
 3663 2cf8 7F8C0171 		cmp	w3, 99
 3664 2cfc 01010054 		bne	.L1459
 3665              	.L1224:
 3666 2d00 F81FF837 		tbnz	w24, #31, .L1269
 3667 2d04 E12E0091 		add	x1, x23, 11
 3668 2d08 E00317AA 		mov	x0, x23
 3669 2d0c 37F07D92 		and	x23, x1, -8
 3670              	.L1270:
 3671 2d10 00004039 		ldrb	w0, [x0]
 3672 2d14 F3031BAA 		mov	x19, x27
 3673 2d18 55FFFF17 		b	.L1431
 3674              		.p2align 2,,3
 3675              	.L1459:
 3676 2d1c 7F900171 		cmp	w3, 100
 3677 2d20 C1F8FF54 		bne	.L1223
 3678              	.L1231:
 3679 2d24 B82DF837 		tbnz	w24, #31, .L1248
 3680              	.L1463:
 3681 2d28 E13E0091 		add	x1, x23, 15
 3682 2d2c E00317AA 		mov	x0, x23
 3683 2d30 37F07D92 		and	x23, x1, -8
 3684              	.L1249:
 3685 2d34 020040F9 		ldr	x2, [x0]
 3686 2d38 F3031BAA 		mov	x19, x27
 3687              	.L1241:
 3688 2d3c BF040031 		cmn	w5, #1
 3689 2d40 86021B32 		orr	w6, w20, 32
 3690 2d44 A5109F1A 		csel	w5, w5, wzr, ne
 3691 2d48 F403062A 		mov	w20, w6
 3692 2d4c E10315AA 		mov	x1, x21
AARCH64 GAS  C:\Users\RAFAEL~1.ROM\AppData\Local\Temp\ccH9DRWF.s 			page 66


 3693 2d50 E00316AA 		mov	x0, x22
 3694 2d54 43018052 		mov	w3, 10
 3695 2d58 00000094 		bl	cprint_int
 3696 2d5c 46FFFF17 		b	.L1189
 3697              	.L1440:
 3698 2d60 7F940071 		cmp	w3, 37
 3699 2d64 A1F6FF54 		bne	.L1223
 3700              	.L1279:
 3701 2d68 F3031BAA 		mov	x19, x27
 3702 2d6c E10315AA 		mov	x1, x21
 3703 2d70 A0048052 		mov	w0, 37
 3704 2d74 C0023FD6 		blr	x22
 3705 2d78 3FFFFF17 		b	.L1189
 3706              		.p2align 2,,3
 3707              	.L1450:
 3708 2d7c 63064039 		ldrb	w3, [x19, 1]
 3709 2d80 7FA80071 		cmp	w3, 42
 3710 2d84 C1090054 		bne	.L1460
 3711 2d88 600A0091 		add	x0, x19, 2
 3712 2d8c D823F837 		tbnz	w24, #31, .L1208
 3713 2d90 E22E0091 		add	x2, x23, 11
 3714 2d94 E10317AA 		mov	x1, x23
 3715 2d98 57F07D92 		and	x23, x2, -8
 3716              	.L1209:
 3717 2d9c 250040B9 		ldr	w5, [x1]
 3718 2da0 7B0E0091 		add	x27, x19, 3
 3719 2da4 630A4039 		ldrb	w3, [x19, 2]
 3720 2da8 F30300AA 		mov	x19, x0
 3721 2dac BF000071 		cmp	w5, 0
 3722 2db0 A5A09F1A 		csel	w5, w5, wzr, ge
 3723 2db4 7FB00171 		cmp	w3, 108
 3724 2db8 E1EEFF54 		bne	.L1461
 3725 2dbc 1F2003D5 		.p2align 3,,7
 3726              	.L1211:
 3727 2dc0 63064039 		ldrb	w3, [x19, 1]
 3728 2dc4 7FB00171 		cmp	w3, 108
 3729 2dc8 20160054 		beq	.L1462
 3730              	.L1230:
 3731 2dcc 7B070091 		add	x27, x27, 1
 3732 2dd0 7FC00171 		cmp	w3, 112
 3733 2dd4 600A0054 		beq	.L1320
 3734 2dd8 28030054 		bhi	.L1295
 3735 2ddc 7F600171 		cmp	w3, 88
 3736 2de0 C0150054 		beq	.L1296
 3737 2de4 E9FBFF54 		bls	.L1440
 3738 2de8 7F8C0171 		cmp	w3, 99
 3739 2dec A0F8FF54 		beq	.L1224
 3740 2df0 7F880171 		cmp	w3, 98
 3741 2df4 29F2FF54 		bls	.L1223
 3742 2df8 7F900171 		cmp	w3, 100
 3743 2dfc 40F9FF54 		beq	.L1231
 3744 2e00 7FA40171 		cmp	w3, 105
 3745 2e04 A1F1FF54 		bne	.L1223
 3746 2e08 18F9FF36 		tbz	w24, #31, .L1463
 3747 2e0c 33010014 		b	.L1248
 3748              		.p2align 2,,3
 3749              	.L1448:
AARCH64 GAS  C:\Users\RAFAEL~1.ROM\AppData\Local\Temp\ccH9DRWF.s 			page 67


 3750 2e10 9807F837 		tbnz	w24, #31, .L1200
 3751 2e14 E12E0091 		add	x1, x23, 11
 3752 2e18 E00317AA 		mov	x0, x23
 3753 2e1c 37F07D92 		and	x23, x1, -8
 3754              	.L1201:
 3755 2e20 040040B9 		ldr	w4, [x0]
 3756 2e24 7B0A0091 		add	x27, x19, 2
 3757 2e28 63064039 		ldrb	w3, [x19, 1]
 3758 2e2c F30302AA 		mov	x19, x2
 3759 2e30 9F000071 		cmp	w4, 0
 3760 2e34 84A09F1A 		csel	w4, w4, wzr, ge
 3761 2e38 52FFFF17 		b	.L1203
 3762              		.p2align 2,,3
 3763              	.L1295:
 3764 2e3c 7FD40171 		cmp	w3, 117
 3765 2e40 000C0054 		beq	.L1321
 3766 2e44 7FE00171 		cmp	w3, 120
 3767 2e48 01F1FF54 		bne	.L1435
 3768              	.L1298:
 3769 2e4c 94761B12 		and	w20, w20, -25
 3770 2e50 03028052 		mov	w3, 16
 3771 2e54 9402032A 		orr	w20, w20, w3
 3772 2e58 3817F837 		tbnz	w24, #31, .L1265
 3773              	.L1466:
 3774 2e5c E13E0091 		add	x1, x23, 15
 3775 2e60 E00317AA 		mov	x0, x23
 3776 2e64 37F07D92 		and	x23, x1, -8
 3777              	.L1266:
 3778 2e68 F3031BAA 		mov	x19, x27
 3779 2e6c 020040F9 		ldr	x2, [x0]
 3780 2e70 61FFFF17 		b	.L1258
 3781              		.p2align 2,,3
 3782              	.L1214:
 3783 2e74 7F600171 		cmp	w3, 88
 3784 2e78 E0110054 		beq	.L1290
 3785 2e7c 29F7FF54 		bls	.L1440
 3786 2e80 7F8C0171 		cmp	w3, 99
 3787 2e84 E0F3FF54 		beq	.L1224
 3788 2e88 7F880171 		cmp	w3, 98
 3789 2e8c 69EDFF54 		bls	.L1223
 3790 2e90 7F900171 		cmp	w3, 100
 3791 2e94 60000054 		beq	.L1292
 3792 2e98 7FA40171 		cmp	w3, 105
 3793 2e9c E1ECFF54 		bne	.L1223
 3794              	.L1292:
 3795 2ea0 D822F837 		tbnz	w24, #31, .L1245
 3796 2ea4 E12E0091 		add	x1, x23, 11
 3797 2ea8 E00317AA 		mov	x0, x23
 3798 2eac 37F07D92 		and	x23, x1, -8
 3799              	.L1246:
 3800 2eb0 020080B9 		ldrsw	x2, [x0]
 3801 2eb4 F3031BAA 		mov	x19, x27
 3802 2eb8 A1FFFF17 		b	.L1241
 3803              		.p2align 2,,3
 3804              	.L1460:
 3805 2ebc 60C00051 		sub	w0, w3, #48
 3806 2ec0 05008052 		mov	w5, 0
AARCH64 GAS  C:\Users\RAFAEL~1.ROM\AppData\Local\Temp\ccH9DRWF.s 			page 68


 3807 2ec4 011C0012 		and	w1, w0, 255
 3808 2ec8 42018052 		mov	w2, 10
 3809 2ecc 3F240071 		cmp	w1, 9
 3810 2ed0 28250054 		bhi	.L1464
 3811 2ed4 1F2003D5 		.p2align 3,,7
 3812              	.L1207:
 3813 2ed8 E6031BAA 		mov	x6, x27
 3814 2edc 631F4038 		ldrb	w3, [x27, 1]!
 3815 2ee0 A500021B 		madd	w5, w5, w2, w0
 3816 2ee4 60C00051 		sub	w0, w3, #48
 3817 2ee8 011C0012 		and	w1, w0, 255
 3818 2eec 3F240071 		cmp	w1, 9
 3819 2ef0 49FFFF54 		bls	.L1207
 3820 2ef4 F3031BAA 		mov	x19, x27
 3821 2ef8 DB080091 		add	x27, x6, 2
 3822 2efc 24FFFF17 		b	.L1205
 3823              		.p2align 2,,3
 3824              	.L1200:
 3825 2f00 01230011 		add	w1, w24, 8
 3826 2f04 3F000071 		cmp	w1, 0
 3827 2f08 4D0E0054 		ble	.L1202
 3828 2f0c E32E0091 		add	x3, x23, 11
 3829 2f10 E00317AA 		mov	x0, x23
 3830 2f14 F803012A 		mov	w24, w1
 3831 2f18 77F07D92 		and	x23, x3, -8
 3832 2f1c C1FFFF17 		b	.L1201
 3833              		.p2align 2,,3
 3834              	.L1320:
 3835 2f20 00018052 		mov	w0, 8
 3836              	.L1237:
 3837 2f24 94021E32 		orr	w20, w20, 4
 3838 2f28 BF040031 		cmn	w5, #1
 3839 2f2c 010B8012 		mov	w1, -89
 3840 2f30 9402010A 		and	w20, w20, w1
 3841 2f34 A5109A1A 		csel	w5, w5, w26, ne
 3842 2f38 010A8052 		mov	w1, 80
 3843 2f3c 1F080071 		cmp	w0, 2
 3844 2f40 9402012A 		orr	w20, w20, w1
 3845 2f44 00120054 		beq	.L1465
 3846 2f48 1F100071 		cmp	w0, 4
 3847 2f4c 20120054 		beq	.L1322
 3848 2f50 1F200071 		cmp	w0, 8
 3849 2f54 00240054 		beq	.L1323
 3850 2f58 F3031BAA 		mov	x19, x27
 3851 2f5c 03028052 		mov	w3, 16
 3852 2f60 020080D2 		mov	x2, 0
 3853              	.L1268:
 3854 2f64 E603142A 		mov	w6, w20
 3855 2f68 E10315AA 		mov	x1, x21
 3856 2f6c E00316AA 		mov	x0, x22
 3857 2f70 00000094 		bl	cprint_int
 3858 2f74 C0FEFF17 		b	.L1189
 3859              		.p2align 2,,3
 3860              	.L1453:
 3861 2f78 7FC00171 		cmp	w3, 112
 3862 2f7c 61E7FF54 		bne	.L1435
 3863 2f80 40008052 		mov	w0, 2
AARCH64 GAS  C:\Users\RAFAEL~1.ROM\AppData\Local\Temp\ccH9DRWF.s 			page 69


 3864 2f84 E8FFFF17 		b	.L1237
 3865              		.p2align 2,,3
 3866              	.L1452:
 3867 2f88 7F600171 		cmp	w3, 88
 3868 2f8c 601E0054 		beq	.L1284
 3869 2f90 89EEFF54 		bls	.L1440
 3870 2f94 7F8C0171 		cmp	w3, 99
 3871 2f98 40EBFF54 		beq	.L1224
 3872 2f9c 7F900171 		cmp	w3, 100
 3873 2fa0 C1E4FF54 		bne	.L1223
 3874              	.L1282:
 3875 2fa4 B818F837 		tbnz	w24, #31, .L1242
 3876 2fa8 E12E0091 		add	x1, x23, 11
 3877 2fac E00317AA 		mov	x0, x23
 3878 2fb0 37F07D92 		and	x23, x1, -8
 3879              	.L1243:
 3880 2fb4 02008079 		ldrsh	x2, [x0]
 3881 2fb8 F3031BAA 		mov	x19, x27
 3882 2fbc 60FFFF17 		b	.L1241
 3883              		.p2align 2,,3
 3884              	.L1321:
 3885 2fc0 43018052 		mov	w3, 10
 3886 2fc4 D8F4FF36 		tbz	w24, #31, .L1466
 3887 2fc8 5D000014 		b	.L1265
 3888              		.p2align 2,,3
 3889              	.L1449:
 3890 2fcc 45018052 		mov	w5, 10
 3891              		.p2align 3,,7
 3892              	.L1204:
 3893 2fd0 43004039 		ldrb	w3, [x2]
 3894 2fd4 8400051B 		madd	w4, w4, w5, w0
 3895 2fd8 FB0313AA 		mov	x27, x19
 3896 2fdc F30302AA 		mov	x19, x2
 3897 2fe0 60C00051 		sub	w0, w3, #48
 3898 2fe4 42040091 		add	x2, x2, 1
 3899 2fe8 011C0012 		and	w1, w0, 255
 3900 2fec 3F240071 		cmp	w1, 9
 3901 2ff0 09FFFF54 		bls	.L1204
 3902 2ff4 7B0B0091 		add	x27, x27, 2
 3903 2ff8 E2FEFF17 		b	.L1203
 3904              	.L1454:
 3905 2ffc 7FC00171 		cmp	w3, 112
 3906 3000 E00B0054 		beq	.L1318
 3907 3004 89F3FF54 		bls	.L1214
 3908 3008 7FD40171 		cmp	w3, 117
 3909 300c C0100054 		beq	.L1319
 3910 3010 7FE00171 		cmp	w3, 120
 3911 3014 A1E2FF54 		bne	.L1435
 3912 3018 94761B12 		and	w20, w20, -25
 3913 301c 03028052 		mov	w3, 16
 3914 3020 9402032A 		orr	w20, w20, w3
 3915 3024 D809F837 		tbnz	w24, #31, .L1262
 3916              		.p2align 3,,7
 3917              	.L1467:
 3918 3028 E12E0091 		add	x1, x23, 11
 3919 302c E00317AA 		mov	x0, x23
 3920 3030 37F07D92 		and	x23, x1, -8
AARCH64 GAS  C:\Users\RAFAEL~1.ROM\AppData\Local\Temp\ccH9DRWF.s 			page 70


 3921              	.L1263:
 3922 3034 020040B9 		ldr	w2, [x0]
 3923 3038 F3031BAA 		mov	x19, x27
 3924 303c EEFEFF17 		b	.L1258
 3925              		.p2align 2,,3
 3926              	.L1451:
 3927 3040 630A4039 		ldrb	w3, [x19, 2]
 3928 3044 7B0E0091 		add	x27, x19, 3
 3929 3048 7FA40171 		cmp	w3, 105
 3930 304c 20010054 		beq	.L1218
 3931 3050 680A0054 		bhi	.L1219
 3932 3054 7F600171 		cmp	w3, 88
 3933 3058 200B0054 		beq	.L1430
 3934 305c 29E8FF54 		bls	.L1440
 3935 3060 7F8C0171 		cmp	w3, 99
 3936 3064 E0E4FF54 		beq	.L1224
 3937 3068 7F900171 		cmp	w3, 100
 3938 306c 61DEFF54 		bne	.L1223
 3939              	.L1218:
 3940 3070 5815F837 		tbnz	w24, #31, .L1238
 3941 3074 E12E0091 		add	x1, x23, 11
 3942 3078 E00317AA 		mov	x0, x23
 3943 307c 37F07D92 		and	x23, x1, -8
 3944              	.L1239:
 3945 3080 02008039 		ldrsb	x2, [x0]
 3946 3084 F3031BAA 		mov	x19, x27
 3947 3088 2DFFFF17 		b	.L1241
 3948              		.p2align 2,,3
 3949              	.L1462:
 3950 308c 630A4039 		ldrb	w3, [x19, 2]
 3951 3090 7B0A0091 		add	x27, x19, 2
 3952 3094 4EFFFF17 		b	.L1230
 3953              		.p2align 2,,3
 3954              	.L1296:
 3955 3098 000B8012 		mov	w0, -89
 3956 309c 9402000A 		and	w20, w20, w0
 3957 30a0 03028052 		mov	w3, 16
 3958 30a4 000A8052 		mov	w0, 80
 3959 30a8 9402002A 		orr	w20, w20, w0
 3960 30ac 98EDFF36 		tbz	w24, #31, .L1466
 3961 30b0 23000014 		b	.L1265
 3962              	.L1290:
 3963 30b4 000B8012 		mov	w0, -89
 3964 30b8 9402000A 		and	w20, w20, w0
 3965 30bc 03028052 		mov	w3, 16
 3966 30c0 000A8052 		mov	w0, 80
 3967 30c4 9402002A 		orr	w20, w20, w0
 3968 30c8 18FBFF36 		tbz	w24, #31, .L1467
 3969 30cc 24000014 		b	.L1262
 3970              	.L1202:
 3971 30d0 20C3388B 		add	x0, x25, x24, sxtw
 3972 30d4 F803012A 		mov	w24, w1
 3973 30d8 52FFFF17 		b	.L1201
 3974              	.L1272:
 3975 30dc 01230011 		add	w1, w24, 8
 3976 30e0 3F000071 		cmp	w1, 0
 3977 30e4 4D130054 		ble	.L1274
AARCH64 GAS  C:\Users\RAFAEL~1.ROM\AppData\Local\Temp\ccH9DRWF.s 			page 71


 3978 30e8 E23E0091 		add	x2, x23, 15
 3979 30ec E00317AA 		mov	x0, x23
 3980 30f0 F803012A 		mov	w24, w1
 3981 30f4 57F07D92 		and	x23, x2, -8
 3982 30f8 E2FEFF17 		b	.L1273
 3983              	.L1269:
 3984 30fc 01230011 		add	w1, w24, 8
 3985 3100 3F000071 		cmp	w1, 0
 3986 3104 AD110054 		ble	.L1271
 3987 3108 E22E0091 		add	x2, x23, 11
 3988 310c E00317AA 		mov	x0, x23
 3989 3110 F803012A 		mov	w24, w1
 3990 3114 57F07D92 		and	x23, x2, -8
 3991 3118 FEFEFF17 		b	.L1270
 3992              	.L1259:
 3993 311c 01230011 		add	w1, w24, 8
 3994 3120 3F000071 		cmp	w1, 0
 3995 3124 ED0B0054 		ble	.L1261
 3996 3128 E22E0091 		add	x2, x23, 11
 3997 312c E00317AA 		mov	x0, x23
 3998 3130 F803012A 		mov	w24, w1
 3999 3134 57F07D92 		and	x23, x2, -8
 4000 3138 ADFEFF17 		b	.L1260
 4001              		.p2align 2,,3
 4002              	.L1265:
 4003 313c 01230011 		add	w1, w24, 8
 4004 3140 3F000071 		cmp	w1, 0
 4005 3144 8D0A0054 		ble	.L1267
 4006 3148 E23E0091 		add	x2, x23, 15
 4007 314c E00317AA 		mov	x0, x23
 4008 3150 F803012A 		mov	w24, w1
 4009 3154 57F07D92 		and	x23, x2, -8
 4010 3158 44FFFF17 		b	.L1266
 4011              		.p2align 2,,3
 4012              	.L1262:
 4013 315c 01230011 		add	w1, w24, 8
 4014 3160 3F000071 		cmp	w1, 0
 4015 3164 2D090054 		ble	.L1264
 4016 3168 E22E0091 		add	x2, x23, 11
 4017 316c E00317AA 		mov	x0, x23
 4018 3170 F803012A 		mov	w24, w1
 4019 3174 57F07D92 		and	x23, x2, -8
 4020 3178 AFFFFF17 		b	.L1263
 4021              	.L1318:
 4022 317c 80008052 		mov	w0, 4
 4023 3180 69FFFF17 		b	.L1237
 4024              	.L1465:
 4025 3184 03028052 		mov	w3, 16
 4026 3188 D8D2FF36 		tbz	w24, #31, .L1468
 4027 318c E4FFFF17 		b	.L1259
 4028              	.L1322:
 4029 3190 03028052 		mov	w3, 16
 4030 3194 B8F4FF36 		tbz	w24, #31, .L1467
 4031 3198 F1FFFF17 		b	.L1262
 4032              	.L1219:
 4033 319c 7FD40171 		cmp	w3, 117
 4034 31a0 200D0054 		beq	.L1310
AARCH64 GAS  C:\Users\RAFAEL~1.ROM\AppData\Local\Temp\ccH9DRWF.s 			page 72


 4035 31a4 48020054 		bhi	.L1226
 4036 31a8 7FC00171 		cmp	w3, 112
 4037 31ac E1D5FF54 		bne	.L1435
 4038 31b0 94021E32 		orr	w20, w20, 4
 4039 31b4 BF040031 		cmn	w5, #1
 4040 31b8 400E0054 		beq	.L1299
 4041              	.L1430:
 4042 31bc 000B8012 		mov	w0, -89
 4043 31c0 9402000A 		and	w20, w20, w0
 4044 31c4 000A8052 		mov	w0, 80
 4045 31c8 9402002A 		orr	w20, w20, w0
 4046 31cc 03028052 		mov	w3, 16
 4047              	.L1225:
 4048 31d0 1804F837 		tbnz	w24, #31, .L1255
 4049 31d4 E12E0091 		add	x1, x23, 11
 4050 31d8 E00317AA 		mov	x0, x23
 4051 31dc 37F07D92 		and	x23, x1, -8
 4052              	.L1256:
 4053 31e0 02004039 		ldrb	w2, [x0]
 4054 31e4 F3031BAA 		mov	x19, x27
 4055 31e8 83FEFF17 		b	.L1258
 4056              	.L1226:
 4057 31ec 7FE00171 		cmp	w3, 120
 4058 31f0 41D2FF54 		bne	.L1223
 4059 31f4 94761B12 		and	w20, w20, -25
 4060 31f8 03028052 		mov	w3, 16
 4061 31fc 9402032A 		orr	w20, w20, w3
 4062 3200 F4FFFF17 		b	.L1225
 4063              		.p2align 2,,3
 4064              	.L1208:
 4065 3204 02230011 		add	w2, w24, 8
 4066 3208 5F000071 		cmp	w2, 0
 4067 320c 8D030054 		ble	.L1210
 4068 3210 E32E0091 		add	x3, x23, 11
 4069 3214 E10317AA 		mov	x1, x23
 4070 3218 F803022A 		mov	w24, w2
 4071 321c 77F07D92 		and	x23, x3, -8
 4072 3220 DFFEFF17 		b	.L1209
 4073              		.p2align 2,,3
 4074              	.L1319:
 4075 3224 43018052 		mov	w3, 10
 4076 3228 18F0FF36 		tbz	w24, #31, .L1467
 4077 322c CCFFFF17 		b	.L1262
 4078              	.L1275:
 4079 3230 80034039 		ldrb	w0, [x28]
 4080 3234 60D4FF34 		cbz	w0, .L1315
 4081              		.p2align 3,,7
 4082              	.L1277:
 4083 3238 E10315AA 		mov	x1, x21
 4084 323c C0023FD6 		blr	x22
 4085 3240 801F4038 		ldrb	w0, [x28, 1]!
 4086 3244 A0FFFF35 		cbnz	w0, .L1277
 4087 3248 F3031BAA 		mov	x19, x27
 4088 324c 9EFEFF17 		b	.L1469
 4089              	.L1255:
 4090 3250 01230011 		add	w1, w24, 8
 4091 3254 3F000071 		cmp	w1, 0
AARCH64 GAS  C:\Users\RAFAEL~1.ROM\AppData\Local\Temp\ccH9DRWF.s 			page 73


 4092 3258 AD020054 		ble	.L1257
 4093 325c E22E0091 		add	x2, x23, 11
 4094 3260 E00317AA 		mov	x0, x23
 4095 3264 F803012A 		mov	w24, w1
 4096 3268 57F07D92 		and	x23, x2, -8
 4097 326c DDFFFF17 		b	.L1256
 4098              	.L1316:
 4099 3270 43018052 		mov	w3, 10
 4100 3274 78CBFF36 		tbz	w24, #31, .L1468
 4101 3278 A9FFFF17 		b	.L1259
 4102              	.L1210:
 4103 327c 21C3388B 		add	x1, x25, x24, sxtw
 4104 3280 F803022A 		mov	w24, w2
 4105 3284 C6FEFF17 		b	.L1209
 4106              	.L1264:
 4107 3288 20C3388B 		add	x0, x25, x24, sxtw
 4108 328c F803012A 		mov	w24, w1
 4109 3290 69FFFF17 		b	.L1263
 4110              	.L1267:
 4111 3294 20C3388B 		add	x0, x25, x24, sxtw
 4112 3298 F803012A 		mov	w24, w1
 4113 329c F3FEFF17 		b	.L1266
 4114              	.L1261:
 4115 32a0 20C3388B 		add	x0, x25, x24, sxtw
 4116 32a4 F803012A 		mov	w24, w1
 4117 32a8 51FEFF17 		b	.L1260
 4118              	.L1257:
 4119 32ac 20C3388B 		add	x0, x25, x24, sxtw
 4120 32b0 F803012A 		mov	w24, w1
 4121 32b4 CBFFFF17 		b	.L1256
 4122              	.L1242:
 4123 32b8 01230011 		add	w1, w24, 8
 4124 32bc 3F000071 		cmp	w1, 0
 4125 32c0 2D070054 		ble	.L1244
 4126 32c4 E22E0091 		add	x2, x23, 11
 4127 32c8 E00317AA 		mov	x0, x23
 4128 32cc F803012A 		mov	w24, w1
 4129 32d0 57F07D92 		and	x23, x2, -8
 4130 32d4 38FFFF17 		b	.L1243
 4131              	.L1248:
 4132 32d8 01230011 		add	w1, w24, 8
 4133 32dc 3F000071 		cmp	w1, 0
 4134 32e0 4D070054 		ble	.L1250
 4135 32e4 E23E0091 		add	x2, x23, 15
 4136 32e8 E00317AA 		mov	x0, x23
 4137 32ec F803012A 		mov	w24, w1
 4138 32f0 57F07D92 		and	x23, x2, -8
 4139 32f4 90FEFF17 		b	.L1249
 4140              	.L1245:
 4141 32f8 01230011 		add	w1, w24, 8
 4142 32fc 3F000071 		cmp	w1, 0
 4143 3300 8D050054 		ble	.L1247
 4144 3304 E22E0091 		add	x2, x23, 11
 4145 3308 E00317AA 		mov	x0, x23
 4146 330c F803012A 		mov	w24, w1
 4147 3310 57F07D92 		and	x23, x2, -8
 4148 3314 E7FEFF17 		b	.L1246
AARCH64 GAS  C:\Users\RAFAEL~1.ROM\AppData\Local\Temp\ccH9DRWF.s 			page 74


 4149              	.L1238:
 4150 3318 01230011 		add	w1, w24, 8
 4151 331c 3F000071 		cmp	w1, 0
 4152 3320 ED040054 		ble	.L1240
 4153 3324 E22E0091 		add	x2, x23, 11
 4154 3328 E00317AA 		mov	x0, x23
 4155 332c F803012A 		mov	w24, w1
 4156 3330 57F07D92 		and	x23, x2, -8
 4157 3334 53FFFF17 		b	.L1239
 4158              	.L1271:
 4159 3338 20C3388B 		add	x0, x25, x24, sxtw
 4160 333c F803012A 		mov	w24, w1
 4161 3340 74FEFF17 		b	.L1270
 4162              	.L1310:
 4163 3344 43018052 		mov	w3, 10
 4164 3348 A2FFFF17 		b	.L1225
 4165              	.L1274:
 4166 334c 20C3388B 		add	x0, x25, x24, sxtw
 4167 3350 F803012A 		mov	w24, w1
 4168 3354 4BFEFF17 		b	.L1273
 4169              	.L1284:
 4170 3358 000B8012 		mov	w0, -89
 4171 335c 9402000A 		and	w20, w20, w0
 4172 3360 03028052 		mov	w3, 16
 4173 3364 000A8052 		mov	w0, 80
 4174 3368 9402002A 		orr	w20, w20, w0
 4175 336c B8C3FF36 		tbz	w24, #31, .L1468
 4176 3370 6BFFFF17 		b	.L1259
 4177              	.L1464:
 4178 3374 F3031BAA 		mov	x19, x27
 4179 3378 7B070091 		add	x27, x27, 1
 4180 337c 04FEFF17 		b	.L1205
 4181              	.L1299:
 4182 3380 000B8012 		mov	w0, -89
 4183 3384 9402000A 		and	w20, w20, w0
 4184 3388 03028052 		mov	w3, 16
 4185 338c 000A8052 		mov	w0, 80
 4186 3390 E503032A 		mov	w5, w3
 4187 3394 9402002A 		orr	w20, w20, w0
 4188 3398 8EFFFF17 		b	.L1225
 4189              	.L1457:
 4190 339c 7B070091 		add	x27, x27, 1
 4191 33a0 72FEFF17 		b	.L1279
 4192              	.L1244:
 4193 33a4 20C3388B 		add	x0, x25, x24, sxtw
 4194 33a8 F803012A 		mov	w24, w1
 4195 33ac 02FFFF17 		b	.L1243
 4196              	.L1247:
 4197 33b0 20C3388B 		add	x0, x25, x24, sxtw
 4198 33b4 F803012A 		mov	w24, w1
 4199 33b8 BEFEFF17 		b	.L1246
 4200              	.L1240:
 4201 33bc 20C3388B 		add	x0, x25, x24, sxtw
 4202 33c0 F803012A 		mov	w24, w1
 4203 33c4 2FFFFF17 		b	.L1239
 4204              	.L1250:
 4205 33c8 20C3388B 		add	x0, x25, x24, sxtw
AARCH64 GAS  C:\Users\RAFAEL~1.ROM\AppData\Local\Temp\ccH9DRWF.s 			page 75


 4206 33cc F803012A 		mov	w24, w1
 4207 33d0 59FEFF17 		b	.L1249
 4208              	.L1323:
 4209 33d4 03028052 		mov	w3, 16
 4210 33d8 38D4FF36 		tbz	w24, #31, .L1466
 4211 33dc 58FFFF17 		b	.L1265
 4212              		.size	vcprintf, .-vcprintf
 4213              		.align	2
 4214              		.p2align 4,,15
 4215              		.global	vsnprintf
 4216              		.type	vsnprintf, %function
 4217              	vsnprintf:
 4218 33e0 F353BBA9 		stp	x19, x20, [sp, -80]!
 4219 33e4 F30301AA 		mov	x19, x1
 4220 33e8 F40300AA 		mov	x20, x0
 4221 33ec 661440A9 		ldp	x6, x5, [x3]
 4222 33f0 E10302AA 		mov	x1, x2
 4223 33f4 640840F9 		ldr	x4, [x3, 16]
 4224 33f8 E61300F9 		str	x6, [sp, 32]
 4225 33fc E0030191 		add	x0, sp, 64
 4226 3400 E2830091 		add	x2, sp, 32
 4227 3404 630C40F9 		ldr	x3, [x3, 24]
 4228 3408 FE0B00F9 		str	x30, [sp, 16]
 4229 340c E59302A9 		stp	x5, x4, [sp, 40]
 4230 3410 E31F00F9 		str	x3, [sp, 56]
 4231 3414 F44F04A9 		stp	x20, x19, [sp, 64]
 4232 3418 5EF5FF97 		bl	vcprintf.constprop.2
 4233 341c E02740F9 		ldr	x0, [sp, 72]
 4234 3420 600000B4 		cbz	x0, .L1471
 4235 3424 E02340F9 		ldr	x0, [sp, 64]
 4236 3428 1F000039 		strb	wzr, [x0]
 4237              	.L1471:
 4238 342c 9302138B 		add	x19, x20, x19
 4239 3430 E02340F9 		ldr	x0, [sp, 64]
 4240 3434 7FF21F38 		strb	wzr, [x19, -1]
 4241 3438 0000144B 		sub	w0, w0, w20
 4242 343c FE0B40F9 		ldr	x30, [sp, 16]
 4243 3440 F353C5A8 		ldp	x19, x20, [sp], 80
 4244 3444 C0035FD6 		ret
 4245              		.size	vsnprintf, .-vsnprintf
 4246              		.align	2
 4247 3448 1F2003D5 		.p2align 4,,15
 4247      1F2003D5 
 4248              		.global	cprintf
 4249              		.type	cprintf, %function
 4250              	cprintf:
 4251 3450 FF0304D1 		sub	sp, sp, #256
 4252 3454 E9048012 		mov	w9, -40
 4253 3458 EA430391 		add	x10, sp, 208
 4254 345c EB030491 		add	x11, sp, 256
 4255 3460 E80F8012 		mov	w8, -128
 4256 3464 EB2F03A9 		stp	x11, x11, [sp, 48]
 4257 3468 EA2300F9 		str	x10, [sp, 64]
 4258 346c E9230929 		stp	w9, w8, [sp, 72]
 4259 3470 EA2F43A9 		ldp	x10, x11, [sp, 48]
 4260 3474 FE0300F9 		str	x30, [sp]
 4261 3478 E82744A9 		ldp	x8, x9, [sp, 64]
AARCH64 GAS  C:\Users\RAFAEL~1.ROM\AppData\Local\Temp\ccH9DRWF.s 			page 76


 4262 347c EA2F01A9 		stp	x10, x11, [sp, 16]
 4263 3480 E82702A9 		stp	x8, x9, [sp, 32]
 4264 3484 E017803D 		str	q0, [sp, 80]
 4265 3488 E11B803D 		str	q1, [sp, 96]
 4266 348c E21F803D 		str	q2, [sp, 112]
 4267 3490 E323803D 		str	q3, [sp, 128]
 4268 3494 E427803D 		str	q4, [sp, 144]
 4269 3498 E52B803D 		str	q5, [sp, 160]
 4270 349c E62F803D 		str	q6, [sp, 176]
 4271 34a0 E733803D 		str	q7, [sp, 192]
 4272 34a4 E3930DA9 		stp	x3, x4, [sp, 216]
 4273 34a8 E3430091 		add	x3, sp, 16
 4274 34ac E59B0EA9 		stp	x5, x6, [sp, 232]
 4275 34b0 E77F00F9 		str	x7, [sp, 248]
 4276 34b4 00000094 		bl	vcprintf
 4277 34b8 FE0340F9 		ldr	x30, [sp]
 4278 34bc FF030491 		add	sp, sp, 256
 4279 34c0 C0035FD6 		ret
 4280              		.size	cprintf, .-cprintf
 4281              		.ident	"GCC: (GNU Toolchain for the A-profile Architecture 9.2-2020.02 (arm-9.10)) 9.2.1 20191025"
AARCH64 GAS  C:\Users\RAFAEL~1.ROM\AppData\Local\Temp\ccH9DRWF.s 			page 77


DEFINED SYMBOLS
                            *ABS*:0000000000000000 kprintf.c
C:\Users\RAFAEL~1.ROM\AppData\Local\Temp\ccH9DRWF.s:4      .text:0000000000000000 $x
C:\Users\RAFAEL~1.ROM\AppData\Local\Temp\ccH9DRWF.s:7      .text:0000000000000000 buffer_add
C:\Users\RAFAEL~1.ROM\AppData\Local\Temp\ccH9DRWF.s:24     .text:0000000000000030 local_putc
C:\Users\RAFAEL~1.ROM\AppData\Local\Temp\ccH9DRWF.s:33     .text:0000000000000040 debug_putc
C:\Users\RAFAEL~1.ROM\AppData\Local\Temp\ccH9DRWF.s:41     .text:0000000000000050 cprint_int.constprop.1
C:\Users\RAFAEL~1.ROM\AppData\Local\Temp\ccH9DRWF.s:250    .rodata.str1.8:0000000000000000 $d
C:\Users\RAFAEL~1.ROM\AppData\Local\Temp\ccH9DRWF.s:257    .text:0000000000000310 cprint_int.constprop.2
C:\Users\RAFAEL~1.ROM\AppData\Local\Temp\ccH9DRWF.s:476    .text:00000000000005f0 cprint_int.constprop.0
C:\Users\RAFAEL~1.ROM\AppData\Local\Temp\ccH9DRWF.s:756    .text:0000000000000990 vcprintf.constprop.2
C:\Users\RAFAEL~1.ROM\AppData\Local\Temp\ccH9DRWF.s:1570   .text:00000000000013d0 kprintf
C:\Users\RAFAEL~1.ROM\AppData\Local\Temp\ccH9DRWF.s:2363   .text:0000000000001d30 kprintf_debug
C:\Users\RAFAEL~1.ROM\AppData\Local\Temp\ccH9DRWF.s:3152   .text:0000000000002680 snprintf
C:\Users\RAFAEL~1.ROM\AppData\Local\Temp\ccH9DRWF.s:3203   .text:0000000000002730 atoi
C:\Users\RAFAEL~1.ROM\AppData\Local\Temp\ccH9DRWF.s:3229   .text:0000000000002780 cprint_int
C:\Users\RAFAEL~1.ROM\AppData\Local\Temp\ccH9DRWF.s:3441   .text:0000000000002a30 vcprintf
C:\Users\RAFAEL~1.ROM\AppData\Local\Temp\ccH9DRWF.s:4217   .text:00000000000033e0 vsnprintf
C:\Users\RAFAEL~1.ROM\AppData\Local\Temp\ccH9DRWF.s:4250   .text:0000000000003450 cprintf

UNDEFINED SYMBOLS
hal_video_putc
hal_io_serial_putc
AARCH64 GAS  C:\Users\RAFAEL~1.ROM\AppData\Local\Temp\ccH9DRWF.s 			page 1


   1              		.arch armv8-a
   2              		.file	"kprintf_hex_dump.c"
   3              		.text
   4              		.section	.rodata.str1.8,"aMS",@progbits,1
   5              		.align	3
   6              	.LC0:
   7 0000 21253032 		.string	"!%02x "
   7      782000
   8 0007 00       		.align	3
   9              	.LC1:
  10 0008 25303278 		.string	"%02x "
  10      2000
  11 000e 0000     		.align	3
  12              	.LC2:
  13 0010 256300   		.string	"%c"
  14 0013 00000000 		.align	3
  14      00
  15              	.LC3:
  16 0018 2000     		.string	" "
  17 001a 00000000 		.align	3
  17      0000
  18              	.LC4:
  19 0020 0A0D00   		.string	"\n\r"
  20              		.text
  21              		.align	2
  22              		.p2align 4,,15
  23              		.global	kprintf_hex_dump
  24              		.type	kprintf_hex_dump, %function
  25              	kprintf_hex_dump:
  26 0000 F353B8A9 		stp	x19, x20, [sp, -128]!
  27 0004 F55B01A9 		stp	x21, x22, [sp, 16]
  28 0008 F503022A 		mov	w21, w2
  29 000c F96B03A9 		stp	x25, x26, [sp, 48]
  30 0010 FA03012A 		mov	w26, w1
  31 0014 21500071 		subs	w1, w1, #20
  32 0018 FB7304A9 		stp	x27, x28, [sp, 64]
  33 001c FE2B00F9 		str	x30, [sp, 80]
  34 0020 E03700F9 		str	x0, [sp, 104]
  35 0024 E17F00B9 		str	w1, [sp, 124]
  36 0028 E0110054 		beq	.L21
  37 002c F603032A 		mov	w22, w3
  38 0030 14500091 		add	x20, x0, 20
  39 0034 F76302A9 		stp	x23, x24, [sp, 32]
  40 0038 18000090 		adrp	x24, .LC1
  41 003c 18030091 		add	x24, x24, :lo12:.LC1
  42 0040 17000090 		adrp	x23, .LC0
  43 0044 F7020091 		add	x23, x23, :lo12:.LC0
  44 0048 1C000090 		adrp	x28, .LC4
  45 004c 81030091 		add	x1, x28, :lo12:.LC4
  46 0050 93028052 		mov	w19, 20
  47 0054 E13B00F9 		str	x1, [sp, 112]
  48              		.p2align 3,,7
  49              	.L10:
  50 0058 9B5200D1 		sub	x27, x20, #20
  51 005c 79520051 		sub	w25, w19, #20
  52 0060 FC031BAA 		mov	x28, x27
  53 0064 07000014 		b	.L5
AARCH64 GAS  C:\Users\RAFAEL~1.ROM\AppData\Local\Temp\ccH9DRWF.s 			page 2


  54              		.p2align 2,,3
  55              	.L33:
  56 0068 E00317AA 		mov	x0, x23
  57 006c 39070011 		add	w25, w25, 1
  58 0070 00000094 		bl	kprintf
  59 0074 9C070091 		add	x28, x28, 1
  60 0078 3F03136B 		cmp	w25, w19
  61 007c 60010054 		beq	.L32
  62              	.L5:
  63 0080 BF02196B 		cmp	w21, w25
  64 0084 81034039 		ldrb	w1, [x28]
  65 0088 C092597A 		ccmp	w22, w25, 0, ls
  66 008c E2FEFF54 		bcs	.L33
  67 0090 E00318AA 		mov	x0, x24
  68 0094 39070011 		add	w25, w25, 1
  69 0098 00000094 		bl	kprintf
  70 009c 9C070091 		add	x28, x28, 1
  71 00a0 3F03136B 		cmp	w25, w19
  72 00a4 E1FEFF54 		bne	.L5
  73              	.L32:
  74 00a8 05000090 		adrp	x5, .LC2
  75 00ac BC000091 		add	x28, x5, :lo12:.LC2
  76 00b0 19000090 		adrp	x25, .LC3
  77 00b4 39030091 		add	x25, x25, :lo12:.LC3
  78              		.p2align 3,,7
  79              	.L9:
  80 00b8 61034039 		ldrb	w1, [x27]
  81 00bc E0031CAA 		mov	x0, x28
  82 00c0 22781A12 		and	w2, w1, -33
  83 00c4 24C00051 		sub	w4, w1, #48
  84 00c8 42040151 		sub	w2, w2, #65
  85 00cc 3F280071 		cmp	w1, 10
  86 00d0 421C0012 		and	w2, w2, 255
  87 00d4 841C0012 		and	w4, w4, 255
  88 00d8 24184D7A 		ccmp	w1, 13, 4, ne
  89 00dc C0000054 		beq	.L6
  90 00e0 5F640071 		cmp	w2, 25
  91 00e4 69000054 		bls	.L7
  92 00e8 9F240071 		cmp	w4, 9
  93 00ec E8010054 		bhi	.L8
  94              	.L7:
  95 00f0 00000094 		bl	kprintf
  96              	.L6:
  97 00f4 7B070091 		add	x27, x27, 1
  98 00f8 9F021BEB 		cmp	x20, x27
  99 00fc E1FDFF54 		bne	.L9
 100 0100 E03B40F9 		ldr	x0, [sp, 112]
 101 0104 94520091 		add	x20, x20, 20
 102 0108 00000094 		bl	kprintf
 103 010c E07F40B9 		ldr	w0, [sp, 124]
 104 0110 E103132A 		mov	w1, w19
 105 0114 1F00136B 		cmp	w0, w19
 106 0118 60520011 		add	w0, w19, 20
 107 011c C9000054 		bls	.L34
 108 0120 F303002A 		mov	w19, w0
 109 0124 CDFFFF17 		b	.L10
 110              		.p2align 2,,3
AARCH64 GAS  C:\Users\RAFAEL~1.ROM\AppData\Local\Temp\ccH9DRWF.s 			page 3


 111              	.L8:
 112 0128 E00319AA 		mov	x0, x25
 113 012c 00000094 		bl	kprintf
 114 0130 F1FFFF17 		b	.L6
 115              	.L34:
 116 0134 5F03136B 		cmp	w26, w19
 117 0138 69080054 		bls	.L30
 118 013c F76342A9 		ldp	x23, x24, [sp, 32]
 119 0140 DF02136B 		cmp	w22, w19
 120 0144 E0379F1A 		cset	w0, cs
 121              	.L2:
 122 0148 1F000071 		cmp	w0, 0
 123 014c 347C4093 		sxtw	x20, w1
 124 0150 6012557A 		ccmp	w19, w21, 0, ne
 125 0154 A2050054 		bcs	.L12
 126 0158 16000090 		adrp	x22, .LC1
 127 015c D6020091 		add	x22, x22, :lo12:.LC1
 128 0160 F50314AA 		mov	x21, x20
 129 0164 1F2003D5 		.p2align 3,,7
 130              	.L13:
 131 0168 E03740F9 		ldr	x0, [sp, 104]
 132 016c 01687538 		ldrb	w1, [x0, x21]
 133 0170 E00316AA 		mov	x0, x22
 134 0174 B5060091 		add	x21, x21, 1
 135 0178 00000094 		bl	kprintf
 136 017c 5F03156B 		cmp	w26, w21
 137 0180 48FFFF54 		bhi	.L13
 138              	.L14:
 139 0184 7F021A6B 		cmp	w19, w26
 140 0188 22030054 		bcs	.L11
 141 018c 15000090 		adrp	x21, .LC2
 142 0190 B5020091 		add	x21, x21, :lo12:.LC2
 143 0194 13000090 		adrp	x19, .LC3
 144 0198 73020091 		add	x19, x19, :lo12:.LC3
 145 019c 1F2003D5 		.p2align 3,,7
 146              	.L20:
 147 01a0 E03740F9 		ldr	x0, [sp, 104]
 148 01a4 01687438 		ldrb	w1, [x0, x20]
 149 01a8 E00315AA 		mov	x0, x21
 150 01ac 22781A12 		and	w2, w1, -33
 151 01b0 23C00051 		sub	w3, w1, #48
 152 01b4 42040151 		sub	w2, w2, #65
 153 01b8 3F280071 		cmp	w1, 10
 154 01bc 421C0012 		and	w2, w2, 255
 155 01c0 631C0012 		and	w3, w3, 255
 156 01c4 24184D7A 		ccmp	w1, 13, 4, ne
 157 01c8 C0000054 		beq	.L17
 158 01cc 5F640071 		cmp	w2, 25
 159 01d0 69000054 		bls	.L18
 160 01d4 7F240071 		cmp	w3, 9
 161 01d8 08030054 		bhi	.L19
 162              	.L18:
 163 01dc 00000094 		bl	kprintf
 164              	.L17:
 165 01e0 94060091 		add	x20, x20, 1
 166 01e4 5F03146B 		cmp	w26, w20
 167 01e8 C8FDFF54 		bhi	.L20
AARCH64 GAS  C:\Users\RAFAEL~1.ROM\AppData\Local\Temp\ccH9DRWF.s 			page 4


 168              	.L11:
 169 01ec F55B41A9 		ldp	x21, x22, [sp, 16]
 170 01f0 F96B43A9 		ldp	x25, x26, [sp, 48]
 171 01f4 FB7344A9 		ldp	x27, x28, [sp, 64]
 172 01f8 FE2B40F9 		ldr	x30, [sp, 80]
 173 01fc E03B40F9 		ldr	x0, [sp, 112]
 174 0200 F353C8A8 		ldp	x19, x20, [sp], 128
 175 0204 00000014 		b	kprintf
 176              	.L12:
 177 0208 16000090 		adrp	x22, .LC0
 178 020c D6020091 		add	x22, x22, :lo12:.LC0
 179 0210 F50314AA 		mov	x21, x20
 180 0214 1F2003D5 		.p2align 3,,7
 181              	.L15:
 182 0218 E03740F9 		ldr	x0, [sp, 104]
 183 021c 01687538 		ldrb	w1, [x0, x21]
 184 0220 E00316AA 		mov	x0, x22
 185 0224 B5060091 		add	x21, x21, 1
 186 0228 00000094 		bl	kprintf
 187 022c 5F03156B 		cmp	w26, w21
 188 0230 48FFFF54 		bhi	.L15
 189 0234 D4FFFF17 		b	.L14
 190              	.L19:
 191 0238 E00313AA 		mov	x0, x19
 192 023c 00000094 		bl	kprintf
 193 0240 E8FFFF17 		b	.L17
 194              	.L30:
 195 0244 F55B41A9 		ldp	x21, x22, [sp, 16]
 196 0248 F76342A9 		ldp	x23, x24, [sp, 32]
 197 024c F96B43A9 		ldp	x25, x26, [sp, 48]
 198 0250 FB7344A9 		ldp	x27, x28, [sp, 64]
 199 0254 FE2B40F9 		ldr	x30, [sp, 80]
 200 0258 E03B40F9 		ldr	x0, [sp, 112]
 201 025c F353C8A8 		ldp	x19, x20, [sp], 128
 202 0260 00000014 		b	kprintf
 203              	.L21:
 204 0264 1C000090 		adrp	x28, .LC4
 205 0268 80030091 		add	x0, x28, :lo12:.LC4
 206 026c 13008052 		mov	w19, 0
 207 0270 01008052 		mov	w1, 0
 208 0274 E03B00F9 		str	x0, [sp, 112]
 209 0278 20008052 		mov	w0, 1
 210 027c B3FFFF17 		b	.L2
 211              		.size	kprintf_hex_dump, .-kprintf_hex_dump
 212              		.ident	"GCC: (GNU Toolchain for the A-profile Architecture 9.2-2020.02 (arm-9.10)) 9.2.1 20191025"
AARCH64 GAS  C:\Users\RAFAEL~1.ROM\AppData\Local\Temp\ccH9DRWF.s 			page 5


DEFINED SYMBOLS
                            *ABS*:0000000000000000 kprintf_hex_dump.c
C:\Users\RAFAEL~1.ROM\AppData\Local\Temp\ccH9DRWF.s:5      .rodata.str1.8:0000000000000000 $d
C:\Users\RAFAEL~1.ROM\AppData\Local\Temp\ccH9DRWF.s:21     .text:0000000000000000 $x
C:\Users\RAFAEL~1.ROM\AppData\Local\Temp\ccH9DRWF.s:25     .text:0000000000000000 kprintf_hex_dump

UNDEFINED SYMBOLS
kprintf
